SF:/Users/runner/work/Draxul/Draxul/app/app.cpp
FN:125,_ZN6draxul7AppDeps12from_optionsENS_10AppOptionsE
FN:135,_ZN6draxul3AppC2ENS_10AppOptionsE
FN:135,_ZN6draxul3AppC1ENS_10AppOptionsE
FN:140,_ZN6draxul3AppC2ENS_7AppDepsE
FN:151,_ZN6draxul3AppD2Ev
FN:154,_ZN6draxul3App10initializeEv
FN:344,_ZNK6draxul3App24make_text_service_configEv
FN:356,_ZN6draxul3App23initialize_text_serviceEv
FN:377,_ZN6draxul3App18apply_font_metricsEv
FN:400,_ZN6draxul3App13reload_configEv
FN:463,_ZN6draxul3App22initialize_chrome_hostEv
FN:514,_ZN6draxul3App16wire_gui_actionsEv
FN:687,_ZN6draxul3App21wire_window_callbacksEv
FN:715,_ZN6draxul3App3runEv
FN:721,_ZN6draxul3App14run_smoke_testENSt3__16chrono8durationIxNS1_5ratioILl1ELl1000EEEEE
FN:735,_ZN6draxul3App14run_screenshotENSt3__16chrono8durationIxNS1_5ratioILl1ELl1000EEEEE
FN:768,_ZN6draxul3App15run_render_testENSt3__16chrono8durationIxNS1_5ratioILl1ELl1000EEEEES6_
FN:950,_ZN6draxul3App16close_dead_panesEv
FN:991,_ZN6draxul3App20render_imgui_overlayERNS_13IFrameContextEf
FN:1009,_ZN6draxul3App12render_frameEv
FN:1059,_ZN6draxul3App9pump_onceENSt3__18optionalINS1_6chrono10time_pointINS3_12steady_clockENS3_8durationIxNS1_5ratioILl1ELl1000000000EEEEEEEEE
FN:1129,_ZN6draxul3App9on_resizeEii
FN:1158,_ZN6draxul3App24on_display_scale_changedEf
FN:1179,_ZN6draxul3App13request_frameEv
FN:1185,_ZN6draxul3App12request_quitEv
FN:1193,_ZN6draxul3App11wake_windowEv
FN:1199,_ZN6draxul3App16set_window_titleERKNSt3__112basic_stringIcNS1_11char_traitsIcEENS1_9allocatorIcEEEE
FN:1205,_ZN6draxul3App19set_text_input_areaEiiii
FN:1211,_ZN6draxul3App21dispatch_to_nvim_hostENSt3__117basic_string_viewIcNS1_11char_traitsIcEEEE
FN:1247,_ZN6draxul3App24update_diagnostics_panelEv
FN:1275,_ZN6draxul3App21refresh_window_layoutEv
FN:1286,_ZNK6draxul3App24viewport_from_descriptorERKNS_14PaneDescriptorE
FN:1306,_ZNK6draxul3App15wait_timeout_msENSt3__18optionalINS1_6chrono10time_pointINS3_12steady_clockENS3_8durationIxNS1_5ratioILl1ELl1000000000EEEEEEEEE
FN:1340,_ZN6draxul3App8shutdownEv
FN:162,app.cpp:_ZZN6draxul3App10initializeEvENK3$_0clIZNS0_10initializeEvE3$_1EEDaPKcT_
FN:170,app.cpp:_ZZN6draxul3App10initializeEvENK3$_1clEv
FN:190,app.cpp:_ZZN6draxul3App10initializeEvEN12InitRollbackC2EPS0_
FN:162,app.cpp:_ZZN6draxul3App10initializeEvENK3$_0clIZNS0_10initializeEvE3$_2EEDaPKcT_
FN:217,app.cpp:_ZZN6draxul3App10initializeEvENK3$_2clEv
FN:76,app.cpp:_ZN6draxul12_GLOBAL__N_135normalize_render_target_window_sizeERNS_7IWindowERKNS_10AppOptionsE
FN:162,app.cpp:_ZZN6draxul3App10initializeEvENK3$_0clIZNS0_10initializeEvE3$_3EEDaPKcT_
FN:246,app.cpp:_ZZN6draxul3App10initializeEvENK3$_3clEv
FN:162,app.cpp:_ZZN6draxul3App10initializeEvENK3$_0clIZNS0_10initializeEvE3$_4EEDaPKcT_
FN:264,app.cpp:_ZZN6draxul3App10initializeEvENK3$_4clEv
FN:162,app.cpp:_ZZN6draxul3App10initializeEvENK3$_0clIZNS0_10initializeEvE3$_5EEDaPKcT_
FN:267,app.cpp:_ZZN6draxul3App10initializeEvENK3$_5clEv
FN:162,app.cpp:_ZZN6draxul3App10initializeEvENK3$_0clIZNS0_10initializeEvE3$_6EEDaPKcT_
FN:295,app.cpp:_ZZN6draxul3App10initializeEvENK3$_6clEv
FN:198,app.cpp:_ZZN6draxul3App10initializeEvEN12InitRollbackD2Ev
FN:84,app.cpp:_ZN6draxul12_GLOBAL__N_127text_service_config_changedERKNS_9AppConfigES3_
FN:95,app.cpp:_ZN6draxul12_GLOBAL__N_127restore_text_service_configERNS_9AppConfigERKS1_
FN:106,app.cpp:_ZN6draxul12_GLOBAL__N_134host_reload_config_from_app_configERKNS_9AppConfigE
FN:42,app.cpp:_ZN6draxul12_GLOBAL__N_122render_test_phase_nameENS0_15RenderTestPhaseE
FN:386,app.cpp:_ZZN6draxul3App18apply_font_metricsEvENK3$_0clEiRNS_5IHostE
FN:453,app.cpp:_ZZN6draxul3App13reload_configEvENK3$_0clEiRNS_5IHostE
FN:477,app.cpp:_ZZN6draxul3App22initialize_chrome_hostEvENK3$_0clERKNS_14PaneDescriptorE
FN:519,app.cpp:_ZZN6draxul3App16wire_gui_actionsEvENK3$_0clEv
FN:522,app.cpp:_ZZN6draxul3App16wire_gui_actionsEvENK3$_1clEv
FN:523,app.cpp:_ZZN6draxul3App16wire_gui_actionsEvENK3$_2clEv
FN:524,app.cpp:_ZZN6draxul3App16wire_gui_actionsEvENK3$_3clENSt3__18optionalINS_8HostKindEEE
FN:534,app.cpp:_ZZN6draxul3App16wire_gui_actionsEvENK3$_4clENSt3__18optionalINS_8HostKindEEE
FN:544,app.cpp:_ZZN6draxul3App16wire_gui_actionsEvENK3$_5clEv
FN:552,app.cpp:_ZZN6draxul3App16wire_gui_actionsEvENK3$_6clEv
FN:556,app.cpp:_ZZN6draxul3App16wire_gui_actionsEvENK3$_7clEv
FN:567,app.cpp:_ZZN6draxul3App16wire_gui_actionsEvENK3$_8clEv
FN:568,app.cpp:_ZZN6draxul3App16wire_gui_actionsEvENK3$_9clEv
FN:575,app.cpp:_ZZN6draxul3App16wire_gui_actionsEvENK4$_10clEv
FN:601,app.cpp:_ZZN6draxul3App16wire_gui_actionsEvENK4$_11clEv
FN:613,app.cpp:_ZZN6draxul3App16wire_gui_actionsEvENK4$_12clEv
FN:627,app.cpp:_ZZN6draxul3App16wire_gui_actionsEvENK4$_13clEv
FN:620,app.cpp:_ZZN6draxul3App16wire_gui_actionsEvENK4$_22clENS_14FocusDirectionE
FN:628,app.cpp:_ZZN6draxul3App16wire_gui_actionsEvENK4$_14clEv
FN:629,app.cpp:_ZZN6draxul3App16wire_gui_actionsEvENK4$_15clEv
FN:630,app.cpp:_ZZN6draxul3App16wire_gui_actionsEvENK4$_16clEv
FN:631,app.cpp:_ZZN6draxul3App16wire_gui_actionsEvENK4$_17clENSt3__18optionalINS_8HostKindEEE
FN:652,app.cpp:_ZZN6draxul3App16wire_gui_actionsEvENK4$_18clEv
FN:666,app.cpp:_ZZN6draxul3App16wire_gui_actionsEvENK4$_19clEv
FN:671,app.cpp:_ZZN6draxul3App16wire_gui_actionsEvENK4$_20clEv
FN:676,app.cpp:_ZZN6draxul3App16wire_gui_actionsEvENK4$_21clEi
FN:692,app.cpp:_ZZN6draxul3App21wire_window_callbacksEvENK3$_0clEv
FN:697,app.cpp:_ZZN6draxul3App21wire_window_callbacksEvENK3$_1clEv
FN:701,app.cpp:_ZZN6draxul3App21wire_window_callbacksEvENK3$_2clEv
FN:702,app.cpp:_ZZN6draxul3App21wire_window_callbacksEvENK3$_3clEii
FN:703,app.cpp:_ZZN6draxul3App21wire_window_callbacksEvENK3$_4clEf
FN:704,app.cpp:_ZZN6draxul3App21wire_window_callbacksEvENK3$_5clEii
FN:705,app.cpp:_ZZN6draxul3App21wire_window_callbacksEvENK3$_6clEi
FN:953,app.cpp:_ZZN6draxul3App16close_dead_panesEvENK3$_0clEiRKNS_5IHostE
FN:1038,app.cpp:_ZZN6draxul3App12render_frameEvENK3$_0clEiRNS_5IHostE
FN:1093,app.cpp:_ZZN6draxul3App9pump_onceENSt3__18optionalINS1_6chrono10time_pointINS3_12steady_clockENS3_8durationIxNS1_5ratioILl1ELl1000000000EEEEEEEEEENK3$_0clEiRNS_5IHostE
FN:1186,app.cpp:_ZZN6draxul3App12request_quitEvENK3$_0clEiRNS_5IHostE
FN:1215,app.cpp:_ZZN6draxul3App21dispatch_to_nvim_hostENSt3__117basic_string_viewIcNS1_11char_traitsIcEEEEENK3$_0clEiRNS_5IHostE
FN:1316,app.cpp:_ZZNK6draxul3App15wait_timeout_msENSt3__18optionalINS1_6chrono10time_pointINS3_12steady_clockENS3_8durationIxNS1_5ratioILl1ELl1000000000EEEEEEEEEENK3$_0clEiRKNS_5IHostE
FNDA:33,_ZN6draxul7AppDeps12from_optionsENS_10AppOptionsE
FNDA:0,_ZN6draxul3AppC2ENS_10AppOptionsE
FNDA:32,_ZN6draxul3AppC1ENS_10AppOptionsE
FNDA:34,_ZN6draxul3AppC2ENS_7AppDepsE
FNDA:34,_ZN6draxul3AppD2Ev
FNDA:34,_ZN6draxul3App10initializeEv
FNDA:19,_ZNK6draxul3App24make_text_service_configEv
FNDA:18,_ZN6draxul3App23initialize_text_serviceEv
FNDA:1,_ZN6draxul3App18apply_font_metricsEv
FNDA:1,_ZN6draxul3App13reload_configEv
FNDA:14,_ZN6draxul3App22initialize_chrome_hostEv
FNDA:7,_ZN6draxul3App16wire_gui_actionsEv
FNDA:7,_ZN6draxul3App21wire_window_callbacksEv
FNDA:0,_ZN6draxul3App3runEv
FNDA:3,_ZN6draxul3App14run_smoke_testENSt3__16chrono8durationIxNS1_5ratioILl1ELl1000EEEEE
FNDA:0,_ZN6draxul3App14run_screenshotENSt3__16chrono8durationIxNS1_5ratioILl1ELl1000EEEEE
FNDA:0,_ZN6draxul3App15run_render_testENSt3__16chrono8durationIxNS1_5ratioILl1ELl1000EEEEES6_
FNDA:5,_ZN6draxul3App16close_dead_panesEv
FNDA:2,_ZN6draxul3App20render_imgui_overlayERNS_13IFrameContextEf
FNDA:2,_ZN6draxul3App12render_frameEv
FNDA:3,_ZN6draxul3App9pump_onceENSt3__18optionalINS1_6chrono10time_pointINS3_12steady_clockENS3_8durationIxNS1_5ratioILl1ELl1000000000EEEEEEEEE
FNDA:0,_ZN6draxul3App9on_resizeEii
FNDA:0,_ZN6draxul3App24on_display_scale_changedEf
FNDA:37,_ZN6draxul3App13request_frameEv
FNDA:0,_ZN6draxul3App12request_quitEv
FNDA:37,_ZN6draxul3App11wake_windowEv
FNDA:0,_ZN6draxul3App16set_window_titleERKNSt3__112basic_stringIcNS1_11char_traitsIcEENS1_9allocatorIcEEEE
FNDA:4,_ZN6draxul3App19set_text_input_areaEiiii
FNDA:0,_ZN6draxul3App21dispatch_to_nvim_hostENSt3__117basic_string_viewIcNS1_11char_traitsIcEEEE
FNDA:2,_ZN6draxul3App24update_diagnostics_panelEv
FNDA:29,_ZN6draxul3App21refresh_window_layoutEv
FNDA:13,_ZNK6draxul3App24viewport_from_descriptorERKNS_14PaneDescriptorE
FNDA:0,_ZNK6draxul3App15wait_timeout_msENSt3__18optionalINS1_6chrono10time_pointINS3_12steady_clockENS3_8durationIxNS1_5ratioILl1ELl1000000000EEEEEEEEE
FNDA:46,_ZN6draxul3App8shutdownEv
FNDA:34,app.cpp:_ZZN6draxul3App10initializeEvENK3$_0clIZNS0_10initializeEvE3$_1EEDaPKcT_
FNDA:34,app.cpp:_ZZN6draxul3App10initializeEvENK3$_1clEv
FNDA:34,app.cpp:_ZZN6draxul3App10initializeEvEN12InitRollbackC2EPS0_
FNDA:34,app.cpp:_ZZN6draxul3App10initializeEvENK3$_0clIZNS0_10initializeEvE3$_2EEDaPKcT_
FNDA:34,app.cpp:_ZZN6draxul3App10initializeEvENK3$_2clEv
FNDA:25,app.cpp:_ZN6draxul12_GLOBAL__N_135normalize_render_target_window_sizeERNS_7IWindowERKNS_10AppOptionsE
FNDA:25,app.cpp:_ZZN6draxul3App10initializeEvENK3$_0clIZNS0_10initializeEvE3$_3EEDaPKcT_
FNDA:25,app.cpp:_ZZN6draxul3App10initializeEvENK3$_3clEv
FNDA:18,app.cpp:_ZZN6draxul3App10initializeEvENK3$_0clIZNS0_10initializeEvE3$_4EEDaPKcT_
FNDA:18,app.cpp:_ZZN6draxul3App10initializeEvENK3$_4clEv
FNDA:14,app.cpp:_ZZN6draxul3App10initializeEvENK3$_0clIZNS0_10initializeEvE3$_5EEDaPKcT_
FNDA:14,app.cpp:_ZZN6draxul3App10initializeEvENK3$_5clEv
FNDA:14,app.cpp:_ZZN6draxul3App10initializeEvENK3$_0clIZNS0_10initializeEvE3$_6EEDaPKcT_
FNDA:14,app.cpp:_ZZN6draxul3App10initializeEvENK3$_6clEv
FNDA:34,app.cpp:_ZZN6draxul3App10initializeEvEN12InitRollbackD2Ev
FNDA:1,app.cpp:_ZN6draxul12_GLOBAL__N_127text_service_config_changedERKNS_9AppConfigES3_
FNDA:0,app.cpp:_ZN6draxul12_GLOBAL__N_127restore_text_service_configERNS_9AppConfigERKS1_
FNDA:1,app.cpp:_ZN6draxul12_GLOBAL__N_134host_reload_config_from_app_configERKNS_9AppConfigE
FNDA:0,app.cpp:_ZN6draxul12_GLOBAL__N_122render_test_phase_nameENS0_15RenderTestPhaseE
FNDA:1,app.cpp:_ZZN6draxul3App18apply_font_metricsEvENK3$_0clEiRNS_5IHostE
FNDA:1,app.cpp:_ZZN6draxul3App13reload_configEvENK3$_0clEiRNS_5IHostE
FNDA:13,app.cpp:_ZZN6draxul3App22initialize_chrome_hostEvENK3$_0clERKNS_14PaneDescriptorE
FNDA:0,app.cpp:_ZZN6draxul3App16wire_gui_actionsEvENK3$_0clEv
FNDA:0,app.cpp:_ZZN6draxul3App16wire_gui_actionsEvENK3$_1clEv
FNDA:0,app.cpp:_ZZN6draxul3App16wire_gui_actionsEvENK3$_2clEv
FNDA:0,app.cpp:_ZZN6draxul3App16wire_gui_actionsEvENK3$_3clENSt3__18optionalINS_8HostKindEEE
FNDA:0,app.cpp:_ZZN6draxul3App16wire_gui_actionsEvENK3$_4clENSt3__18optionalINS_8HostKindEEE
FNDA:0,app.cpp:_ZZN6draxul3App16wire_gui_actionsEvENK3$_5clEv
FNDA:0,app.cpp:_ZZN6draxul3App16wire_gui_actionsEvENK3$_6clEv
FNDA:0,app.cpp:_ZZN6draxul3App16wire_gui_actionsEvENK3$_7clEv
FNDA:1,app.cpp:_ZZN6draxul3App16wire_gui_actionsEvENK3$_8clEv
FNDA:0,app.cpp:_ZZN6draxul3App16wire_gui_actionsEvENK3$_9clEv
FNDA:0,app.cpp:_ZZN6draxul3App16wire_gui_actionsEvENK4$_10clEv
FNDA:0,app.cpp:_ZZN6draxul3App16wire_gui_actionsEvENK4$_11clEv
FNDA:0,app.cpp:_ZZN6draxul3App16wire_gui_actionsEvENK4$_12clEv
FNDA:0,app.cpp:_ZZN6draxul3App16wire_gui_actionsEvENK4$_13clEv
FNDA:0,app.cpp:_ZZN6draxul3App16wire_gui_actionsEvENK4$_22clENS_14FocusDirectionE
FNDA:0,app.cpp:_ZZN6draxul3App16wire_gui_actionsEvENK4$_14clEv
FNDA:0,app.cpp:_ZZN6draxul3App16wire_gui_actionsEvENK4$_15clEv
FNDA:0,app.cpp:_ZZN6draxul3App16wire_gui_actionsEvENK4$_16clEv
FNDA:0,app.cpp:_ZZN6draxul3App16wire_gui_actionsEvENK4$_17clENSt3__18optionalINS_8HostKindEEE
FNDA:0,app.cpp:_ZZN6draxul3App16wire_gui_actionsEvENK4$_18clEv
FNDA:0,app.cpp:_ZZN6draxul3App16wire_gui_actionsEvENK4$_19clEv
FNDA:0,app.cpp:_ZZN6draxul3App16wire_gui_actionsEvENK4$_20clEv
FNDA:0,app.cpp:_ZZN6draxul3App16wire_gui_actionsEvENK4$_21clEi
FNDA:1,app.cpp:_ZZN6draxul3App21wire_window_callbacksEvENK3$_0clEv
FNDA:0,app.cpp:_ZZN6draxul3App21wire_window_callbacksEvENK3$_1clEv
FNDA:0,app.cpp:_ZZN6draxul3App21wire_window_callbacksEvENK3$_2clEv
FNDA:0,app.cpp:_ZZN6draxul3App21wire_window_callbacksEvENK3$_3clEii
FNDA:0,app.cpp:_ZZN6draxul3App21wire_window_callbacksEvENK3$_4clEf
FNDA:0,app.cpp:_ZZN6draxul3App21wire_window_callbacksEvENK3$_5clEii
FNDA:0,app.cpp:_ZZN6draxul3App21wire_window_callbacksEvENK3$_6clEi
FNDA:5,app.cpp:_ZZN6draxul3App16close_dead_panesEvENK3$_0clEiRKNS_5IHostE
FNDA:2,app.cpp:_ZZN6draxul3App12render_frameEvENK3$_0clEiRNS_5IHostE
FNDA:2,app.cpp:_ZZN6draxul3App9pump_onceENSt3__18optionalINS1_6chrono10time_pointINS3_12steady_clockENS3_8durationIxNS1_5ratioILl1ELl1000000000EEEEEEEEEENK3$_0clEiRNS_5IHostE
FNDA:0,app.cpp:_ZZN6draxul3App12request_quitEvENK3$_0clEiRNS_5IHostE
FNDA:0,app.cpp:_ZZN6draxul3App21dispatch_to_nvim_hostENSt3__117basic_string_viewIcNS1_11char_traitsIcEEEEENK3$_0clEiRNS_5IHostE
FNDA:0,app.cpp:_ZZNK6draxul3App15wait_timeout_msENSt3__18optionalINS1_6chrono10time_pointINS3_12steady_clockENS3_8durationIxNS1_5ratioILl1ELl1000000000EEEEEEEEEENK3$_0clEiRKNS_5IHostE
FNF:86
FNH:44
DA:42,0
DA:43,0
DA:44,0
DA:45,0
DA:46,0
DA:47,0
DA:48,0
DA:49,0
DA:50,0
DA:51,0
DA:52,0
DA:53,0
DA:54,0
DA:55,0
DA:56,0
DA:57,0
DA:76,25
DA:77,25
DA:78,25
DA:79,0
DA:80,0
DA:81,0
DA:84,1
DA:85,1
DA:86,1
DA:87,1
DA:88,1
DA:89,1
DA:90,1
DA:91,1
DA:92,1
DA:95,0
DA:96,0
DA:97,0
DA:98,0
DA:99,0
DA:100,0
DA:101,0
DA:102,0
DA:103,0
DA:106,1
DA:107,1
DA:108,1
DA:109,1
DA:110,1
DA:111,1
DA:112,1
DA:113,1
DA:114,1
DA:115,1
DA:116,1
DA:117,1
DA:118,1
DA:119,1
DA:120,1
DA:125,33
DA:126,33
DA:127,33
DA:128,33
DA:129,33
DA:130,33
DA:131,33
DA:132,33
DA:135,32
DA:136,32
DA:137,32
DA:140,34
DA:141,34
DA:142,34
DA:143,34
DA:144,34
DA:147,34
DA:148,34
DA:149,34
DA:151,34
DA:154,34
DA:155,34
DA:156,34
DA:157,34
DA:159,34
DA:160,34
DA:162,139
DA:163,139
DA:164,139
DA:165,139
DA:166,139
DA:167,139
DA:168,139
DA:170,34
DA:171,34
DA:172,1
DA:173,1
DA:174,1
DA:175,1
DA:176,33
DA:177,33
DA:178,33
DA:179,33
DA:180,33
DA:181,34
DA:182,34
DA:183,34
DA:185,34
DA:186,34
DA:187,34
DA:188,34
DA:189,34
DA:190,34
DA:191,34
DA:192,34
DA:193,34
DA:194,34
DA:195,34
DA:196,34
DA:197,34
DA:198,34
DA:199,34
DA:200,27
DA:201,27
DA:202,27
DA:203,27
DA:204,27
DA:205,27
DA:206,27
DA:208,0
DA:209,27
DA:210,34
DA:211,34
DA:212,34
DA:214,34
DA:215,0
DA:217,34
DA:218,34
DA:219,34
DA:220,34
DA:221,34
DA:222,0
DA:223,0
DA:224,0
DA:225,0
DA:226,0
DA:227,0
DA:228,0
DA:229,0
DA:230,0
DA:231,0
DA:232,0
DA:233,0
DA:234,0
DA:235,0
DA:236,34
DA:237,9
DA:238,9
DA:239,9
DA:240,9
DA:241,25
DA:242,25
DA:243,34
DA:244,9
DA:246,25
DA:247,25
DA:248,25
DA:249,25
DA:250,25
DA:251,25
DA:252,25
DA:253,25
DA:254,7
DA:255,7
DA:256,7
DA:257,7
DA:258,18
DA:259,0
DA:260,18
DA:261,25
DA:262,7
DA:264,18
DA:265,4
DA:267,14
DA:268,14
DA:269,14
DA:270,14
DA:271,14
DA:272,14
DA:273,14
DA:274,0
DA:275,0
DA:276,0
DA:277,0
DA:278,14
DA:279,14
DA:280,14
DA:281,14
DA:282,14
DA:283,14
DA:284,14
DA:285,14
DA:286,14
DA:287,0
DA:288,0
DA:289,0
DA:290,0
DA:291,14
DA:292,14
DA:293,0
DA:295,14
DA:296,7
DA:298,7
DA:299,7
DA:301,7
DA:303,7
DA:306,7
DA:307,7
DA:308,7
DA:309,7
DA:310,7
DA:311,7
DA:313,7
DA:314,7
DA:315,7
DA:316,7
DA:317,7
DA:318,7
DA:319,7
DA:320,7
DA:322,7
DA:323,7
DA:324,7
DA:326,7
DA:330,7
DA:332,7
DA:333,7
DA:336,7
DA:338,7
DA:339,7
DA:340,7
DA:341,14
DA:344,19
DA:345,19
DA:346,19
DA:347,19
DA:348,19
DA:349,19
DA:350,19
DA:351,19
DA:352,19
DA:353,19
DA:356,18
DA:357,18
DA:358,18
DA:360,18
DA:361,18
DA:362,4
DA:363,4
DA:364,4
DA:365,4
DA:366,4
DA:367,4
DA:369,14
DA:370,14
DA:371,14
DA:372,14
DA:373,14
DA:374,18
DA:377,1
DA:378,1
DA:379,1
DA:380,1
DA:381,1
DA:382,1
DA:383,1
DA:384,1
DA:385,1
DA:386,1
DA:387,1
DA:388,1
DA:389,1
DA:390,1
DA:391,1
DA:392,1
DA:393,1
DA:394,1
DA:395,1
DA:396,1
DA:397,1
DA:400,1
DA:401,1
DA:402,1
DA:403,0
DA:404,0
DA:405,0
DA:406,0
DA:407,0
DA:409,1
DA:410,1
DA:411,1
DA:412,1
DA:413,1
DA:415,1
DA:416,1
DA:417,1
DA:419,1
DA:420,1
DA:421,1
DA:422,1
DA:423,1
DA:424,1
DA:425,1
DA:426,1
DA:427,1
DA:428,0
DA:429,0
DA:430,0
DA:431,0
DA:432,0
DA:433,0
DA:434,0
DA:435,0
DA:436,0
DA:437,0
DA:438,0
DA:439,0
DA:440,0
DA:441,0
DA:442,0
DA:443,0
DA:444,0
DA:445,0
DA:446,0
DA:447,1
DA:449,1
DA:450,1
DA:452,1
DA:453,1
DA:454,1
DA:455,1
DA:457,1
DA:458,1
DA:459,1
DA:460,1
DA:463,14
DA:464,14
DA:465,14
DA:467,14
DA:468,14
DA:469,14
DA:470,14
DA:471,14
DA:472,14
DA:473,14
DA:474,14
DA:475,14
DA:476,14
DA:477,14
DA:478,13
DA:479,13
DA:480,14
DA:482,14
DA:483,14
DA:484,14
DA:485,14
DA:486,14
DA:487,14
DA:491,14
DA:492,14
DA:493,14
DA:494,14
DA:495,14
DA:497,14
DA:498,7
DA:499,7
DA:500,7
DA:501,7
DA:503,7
DA:504,7
DA:505,7
DA:506,7
DA:507,7
DA:509,7
DA:510,7
DA:511,14
DA:514,7
DA:515,7
DA:516,7
DA:517,7
DA:518,7
DA:519,7
DA:520,7
DA:521,7
DA:522,7
DA:523,7
DA:524,7
DA:525,0
DA:526,0
DA:527,0
DA:528,0
DA:529,0
DA:530,0
DA:531,0
DA:532,0
DA:533,0
DA:534,7
DA:535,0
DA:536,0
DA:537,0
DA:538,0
DA:539,0
DA:540,0
DA:541,0
DA:542,0
DA:543,0
DA:544,7
DA:545,0
DA:546,0
DA:547,0
DA:548,0
DA:549,0
DA:550,0
DA:551,0
DA:552,7
DA:553,0
DA:554,0
DA:555,0
DA:556,7
DA:557,0
DA:558,0
DA:559,0
DA:560,0
DA:561,0
DA:562,0
DA:563,0
DA:564,0
DA:565,0
DA:566,0
DA:567,7
DA:568,7
DA:569,0
DA:570,0
DA:571,0
DA:572,0
DA:573,0
DA:574,0
DA:575,7
DA:576,0
DA:577,0
DA:578,0
DA:579,0
DA:581,0
DA:582,0
DA:583,0
DA:585,0
DA:586,0
DA:587,0
DA:588,0
DA:589,0
DA:590,0
DA:591,0
DA:592,0
DA:593,0
DA:594,0
DA:595,0
DA:596,0
DA:597,0
DA:598,0
DA:599,0
DA:600,0
DA:601,7
DA:602,0
DA:603,0
DA:604,0
DA:605,0
DA:606,0
DA:607,0
DA:608,0
DA:609,0
DA:610,0
DA:611,0
DA:612,0
DA:613,7
DA:614,0
DA:615,0
DA:616,0
DA:617,0
DA:618,0
DA:619,0
DA:620,7
DA:621,0
DA:622,0
DA:623,0
DA:624,0
DA:625,0
DA:626,0
DA:627,7
DA:628,7
DA:629,7
DA:630,7
DA:631,7
DA:632,0
DA:633,0
DA:634,0
DA:635,0
DA:636,0
DA:638,0
DA:639,0
DA:640,0
DA:641,0
DA:642,0
DA:643,0
DA:644,0
DA:646,0
DA:647,0
DA:648,0
DA:649,0
DA:650,0
DA:651,0
DA:652,7
DA:653,0
DA:654,0
DA:655,0
DA:656,0
DA:657,0
DA:659,0
DA:660,0
DA:661,0
DA:662,0
DA:663,0
DA:664,0
DA:665,0
DA:666,7
DA:667,0
DA:668,0
DA:669,0
DA:670,0
DA:671,7
DA:672,0
DA:673,0
DA:674,0
DA:675,0
DA:676,7
DA:677,0
DA:678,0
DA:679,0
DA:680,0
DA:681,7
DA:684,7
DA:687,7
DA:688,7
DA:689,7
DA:690,7
DA:691,7
DA:692,7
DA:693,1
DA:694,1
DA:695,7
DA:696,7
DA:697,7
DA:698,7
DA:699,7
DA:700,7
DA:701,7
DA:702,7
DA:703,7
DA:704,7
DA:705,7
DA:706,0
DA:707,0
DA:708,0
DA:709,0
DA:710,7
DA:711,7
DA:712,7
DA:715,0
DA:716,0
DA:717,0
DA:718,0
DA:721,3
DA:722,3
DA:723,3
DA:724,3
DA:725,4
DA:726,3
DA:727,3
DA:728,3
DA:729,2
DA:730,3
DA:731,1
DA:732,3
DA:735,0
DA:736,0
DA:737,0
DA:738,0
DA:740,0
DA:741,0
DA:742,0
DA:743,0
DA:745,0
DA:746,0
DA:748,0
DA:750,0
DA:751,0
DA:752,0
DA:754,0
DA:755,0
DA:757,0
DA:758,0
DA:759,0
DA:760,0
DA:761,0
DA:762,0
DA:763,0
DA:764,0
DA:765,0
DA:768,0
DA:769,0
DA:770,0
DA:771,0
DA:773,0
DA:774,0
DA:775,0
DA:776,0
DA:777,0
DA:783,0
DA:785,0
DA:791,0
DA:792,0
DA:795,0
DA:796,0
DA:797,0
DA:798,0
DA:799,0
DA:800,0
DA:801,0
DA:803,0
DA:807,0
DA:808,0
DA:810,0
DA:811,0
DA:813,0
DA:814,0
DA:815,0
DA:816,0
DA:818,0
DA:819,0
DA:820,0
DA:821,0
DA:822,0
DA:823,0
DA:824,0
DA:825,0
DA:826,0
DA:827,0
DA:828,0
DA:830,0
DA:831,0
DA:832,0
DA:833,0
DA:835,0
DA:836,0
DA:837,0
DA:838,0
DA:839,0
DA:840,0
DA:841,0
DA:843,0
DA:844,0
DA:845,0
DA:846,0
DA:847,0
DA:848,0
DA:849,0
DA:850,0
DA:851,0
DA:852,0
DA:853,0
DA:854,0
DA:855,0
DA:856,0
DA:857,0
DA:860,0
DA:861,0
DA:862,0
DA:863,0
DA:864,0
DA:865,0
DA:866,0
DA:868,0
DA:869,0
DA:873,0
DA:874,0
DA:875,0
DA:876,0
DA:878,0
DA:879,0
DA:880,0
DA:881,0
DA:882,0
DA:883,0
DA:885,0
DA:886,0
DA:889,0
DA:890,0
DA:892,0
DA:893,0
DA:894,0
DA:895,0
DA:896,0
DA:898,0
DA:899,0
DA:900,0
DA:901,0
DA:902,0
DA:903,0
DA:904,0
DA:905,0
DA:906,0
DA:907,0
DA:908,0
DA:909,0
DA:911,0
DA:913,0
DA:914,0
DA:915,0
DA:918,0
DA:919,0
DA:920,0
DA:921,0
DA:922,0
DA:923,0
DA:924,0
DA:925,0
DA:926,0
DA:927,0
DA:928,0
DA:929,0
DA:930,0
DA:931,0
DA:932,0
DA:933,0
DA:934,0
DA:935,0
DA:936,0
DA:937,0
DA:938,0
DA:939,0
DA:940,0
DA:941,0
DA:942,0
DA:943,0
DA:944,0
DA:945,0
DA:946,0
DA:947,0
DA:950,5
DA:951,5
DA:952,5
DA:953,5
DA:954,5
DA:955,1
DA:956,5
DA:957,5
DA:958,1
DA:961,1
DA:962,1
DA:963,5
DA:964,1
DA:965,1
DA:966,1
DA:968,1
DA:969,1
DA:971,1
DA:972,1
DA:973,1
DA:975,0
DA:976,0
DA:977,0
DA:978,0
DA:979,0
DA:980,0
DA:981,0
DA:982,0
DA:983,0
DA:984,1
DA:985,0
DA:986,0
DA:987,4
DA:988,5
DA:991,2
DA:992,2
DA:995,2
DA:996,2
DA:997,2
DA:998,2
DA:999,2
DA:1001,2
DA:1002,2
DA:1003,2
DA:1004,2
DA:1005,2
DA:1006,2
DA:1009,2
DA:1010,2
DA:1014,2
DA:1016,2
DA:1018,2
DA:1019,2
DA:1020,2
DA:1021,2
DA:1023,2
DA:1024,2
DA:1025,2
DA:1026,0
DA:1027,0
DA:1028,0
DA:1029,0
DA:1032,2
DA:1033,2
DA:1034,2
DA:1035,2
DA:1036,2
DA:1038,2
DA:1039,2
DA:1040,0
DA:1042,2
DA:1043,0
DA:1044,2
DA:1045,2
DA:1046,2
DA:1048,2
DA:1050,2
DA:1051,2
DA:1052,2
DA:1053,2
DA:1054,2
DA:1055,2
DA:1056,2
DA:1059,3
DA:1060,3
DA:1061,3
DA:1062,3
DA:1063,3
DA:1064,0
DA:1065,0
DA:1066,0
DA:1067,0
DA:1069,3
DA:1070,0
DA:1071,0
DA:1072,0
DA:1073,0
DA:1077,3
DA:1078,3
DA:1079,3
DA:1080,0
DA:1081,3
DA:1083,3
DA:1085,3
DA:1086,1
DA:1087,1
DA:1088,1
DA:1089,1
DA:1090,2
DA:1093,2
DA:1094,2
DA:1095,2
DA:1096,2
DA:1099,2
DA:1100,0
DA:1101,0
DA:1102,0
DA:1103,0
DA:1104,2
DA:1106,2
DA:1107,2
DA:1108,2
DA:1109,2
DA:1110,2
DA:1112,0
DA:1114,0
DA:1115,0
DA:1117,0
DA:1118,0
DA:1119,0
DA:1120,0
DA:1121,0
DA:1122,0
DA:1123,0
DA:1125,0
DA:1126,3
DA:1129,0
DA:1130,0
DA:1131,0
DA:1132,0
DA:1133,0
DA:1134,0
DA:1135,0
DA:1136,0
DA:1137,0
DA:1138,0
DA:1139,0
DA:1140,0
DA:1141,0
DA:1142,0
DA:1143,0
DA:1144,0
DA:1145,0
DA:1146,0
DA:1147,0
DA:1148,0
DA:1149,0
DA:1150,0
DA:1151,0
DA:1152,0
DA:1153,0
DA:1154,0
DA:1155,0
DA:1158,0
DA:1159,0
DA:1160,0
DA:1161,0
DA:1163,0
DA:1165,0
DA:1166,0
DA:1167,0
DA:1170,0
DA:1171,0
DA:1172,0
DA:1175,0
DA:1176,0
DA:1179,37
DA:1180,37
DA:1181,37
DA:1182,37
DA:1185,0
DA:1186,0
DA:1187,0
DA:1188,0
DA:1189,0
DA:1190,0
DA:1193,37
DA:1194,37
DA:1195,37
DA:1196,37
DA:1199,0
DA:1200,0
DA:1201,0
DA:1202,0
DA:1205,4
DA:1206,4
DA:1207,4
DA:1208,4
DA:1211,0
DA:1213,0
DA:1214,0
DA:1215,0
DA:1216,0
DA:1217,0
DA:1218,0
DA:1219,0
DA:1220,0
DA:1221,0
DA:1223,0
DA:1224,0
DA:1225,0
DA:1226,0
DA:1227,0
DA:1228,0
DA:1229,0
DA:1232,0
DA:1233,0
DA:1234,0
DA:1236,0
DA:1237,0
DA:1239,0
DA:1240,0
DA:1241,0
DA:1243,0
DA:1244,0
DA:1247,2
DA:1248,2
DA:1249,2
DA:1251,2
DA:1252,2
DA:1253,2
DA:1254,2
DA:1255,2
DA:1256,2
DA:1257,2
DA:1258,2
DA:1259,2
DA:1260,2
DA:1261,2
DA:1263,2
DA:1264,2
DA:1265,2
DA:1266,2
DA:1267,2
DA:1268,2
DA:1270,2
DA:1271,2
DA:1272,2
DA:1275,29
DA:1276,29
DA:1277,29
DA:1278,29
DA:1279,29
DA:1280,29
DA:1281,29
DA:1282,15
DA:1283,29
DA:1286,13
DA:1287,13
DA:1288,13
DA:1289,13
DA:1290,13
DA:1292,13
DA:1293,13
DA:1294,13
DA:1295,13
DA:1296,13
DA:1298,13
DA:1299,13
DA:1300,13
DA:1301,13
DA:1302,13
DA:1303,13
DA:1306,0
DA:1307,0
DA:1312,0
DA:1314,0
DA:1315,0
DA:1316,0
DA:1317,0
DA:1318,0
DA:1319,0
DA:1320,0
DA:1321,0
DA:1322,0
DA:1323,0
DA:1324,0
DA:1326,0
DA:1327,0
DA:1329,0
DA:1330,0
DA:1331,0
DA:1333,0
DA:1334,0
DA:1335,0
DA:1336,0
DA:1337,0
DA:1340,46
DA:1341,46
DA:1342,46
DA:1343,46
DA:1344,46
DA:1346,46
DA:1347,18
DA:1348,46
DA:1350,46
DA:1351,0
DA:1352,0
DA:1353,0
DA:1354,0
DA:1355,0
DA:1356,0
DA:1357,0
DA:1358,0
DA:1359,0
DA:1360,0
DA:1361,0
DA:1362,0
DA:1363,0
DA:1364,0
DA:1365,0
DA:1366,0
DA:1367,0
DA:1368,0
DA:1369,0
DA:1370,0
DA:1372,46
DA:1373,46
DA:1374,14
DA:1375,14
DA:1376,14
DA:1377,14
DA:1378,46
DA:1379,24
DA:1380,46
DA:1381,31
DA:1382,46
BRDA:43,0,0,-
BRDA:43,0,1,-
BRDA:45,0,0,-
BRDA:45,0,1,-
BRDA:47,0,0,-
BRDA:47,0,1,-
BRDA:49,0,0,-
BRDA:49,0,1,-
BRDA:51,0,0,-
BRDA:51,0,1,-
BRDA:53,0,0,-
BRDA:53,0,1,-
BRDA:77,0,0,25
BRDA:77,0,1,0
BRDA:77,1,2,-
BRDA:77,1,3,-
BRDA:85,0,0,1
BRDA:85,0,1,0
BRDA:86,0,0,-
BRDA:86,0,1,-
BRDA:87,0,0,-
BRDA:87,0,1,-
BRDA:88,0,0,-
BRDA:88,0,1,-
BRDA:89,0,0,-
BRDA:89,0,1,-
BRDA:90,0,0,-
BRDA:90,0,1,-
BRDA:91,0,0,-
BRDA:91,0,1,-
BRDA:109,0,0,1
BRDA:109,0,1,0
BRDA:112,0,0,1
BRDA:112,0,1,0
BRDA:171,0,0,1
BRDA:171,0,1,33
BRDA:199,0,0,27
BRDA:199,0,1,7
BRDA:214,0,0,0
BRDA:214,0,1,34
BRDA:217,0,0,9
BRDA:217,0,1,25
BRDA:218,0,0,34
BRDA:218,0,1,0
BRDA:227,0,0,-
BRDA:227,0,1,-
BRDA:227,1,2,-
BRDA:227,1,3,-
BRDA:229,0,0,-
BRDA:229,0,1,-
BRDA:236,0,0,9
BRDA:236,0,1,25
BRDA:246,0,0,7
BRDA:246,0,1,18
BRDA:248,0,0,25
BRDA:248,0,1,0
BRDA:249,0,0,1
BRDA:249,0,1,24
BRDA:249,1,2,1
BRDA:249,1,3,0
BRDA:250,0,0,25
BRDA:250,0,1,0
BRDA:253,0,0,7
BRDA:253,0,1,18
BRDA:253,1,2,0
BRDA:253,1,3,18
BRDA:258,0,0,0
BRDA:258,0,1,18
BRDA:258,1,2,-
BRDA:258,1,3,-
BRDA:264,0,0,4
BRDA:264,0,1,14
BRDA:267,0,0,0
BRDA:267,0,1,14
BRDA:273,0,0,0
BRDA:273,0,1,14
BRDA:273,1,2,0
BRDA:273,1,3,14
BRDA:284,0,0,14
BRDA:284,0,1,0
BRDA:286,0,0,0
BRDA:286,0,1,14
BRDA:286,1,2,0
BRDA:286,1,3,14
BRDA:295,0,0,7
BRDA:295,0,1,7
BRDA:298,0,0,7
BRDA:298,0,1,0
BRDA:361,0,0,4
BRDA:361,0,1,14
BRDA:363,0,0,0
BRDA:363,0,1,4
BRDA:402,0,0,0
BRDA:402,0,1,1
BRDA:416,0,0,1
BRDA:416,0,1,0
BRDA:417,0,0,-
BRDA:417,0,1,-
BRDA:419,0,0,1
BRDA:419,0,1,0
BRDA:422,0,0,1
BRDA:422,0,1,0
BRDA:424,0,0,1
BRDA:424,0,1,0
BRDA:435,0,0,-
BRDA:435,0,1,-
BRDA:442,0,0,-
BRDA:442,0,1,-
BRDA:449,0,0,1
BRDA:449,0,1,0
BRDA:497,0,0,7
BRDA:497,0,1,7
BRDA:518,0,0,7
BRDA:518,0,1,0
BRDA:525,0,0,-
BRDA:525,0,1,-
BRDA:528,0,0,-
BRDA:528,0,1,-
BRDA:535,0,0,-
BRDA:535,0,1,-
BRDA:538,0,0,-
BRDA:538,0,1,-
BRDA:553,0,0,-
BRDA:553,0,1,-
BRDA:561,0,0,-
BRDA:561,0,1,-
BRDA:576,0,0,-
BRDA:576,0,1,-
BRDA:578,0,0,-
BRDA:578,0,1,-
BRDA:603,0,0,-
BRDA:603,0,1,-
BRDA:614,0,0,-
BRDA:614,0,1,-
BRDA:621,0,0,-
BRDA:621,0,1,-
BRDA:635,0,0,-
BRDA:635,0,1,-
BRDA:638,0,0,-
BRDA:638,0,1,-
BRDA:653,0,0,-
BRDA:653,0,1,-
BRDA:693,0,0,1
BRDA:693,0,1,0
BRDA:693,1,2,0
BRDA:693,1,3,1
BRDA:695,0,0,7
BRDA:695,0,1,0
BRDA:716,0,0,-
BRDA:716,0,1,-
BRDA:725,0,0,3
BRDA:725,0,1,1
BRDA:725,1,2,3
BRDA:725,1,3,1
BRDA:725,2,4,3
BRDA:725,2,5,0
BRDA:728,0,0,3
BRDA:728,0,1,0
BRDA:728,1,2,2
BRDA:728,1,3,1
BRDA:728,2,4,3
BRDA:728,2,5,0
BRDA:728,3,6,2
BRDA:728,3,7,1
BRDA:737,0,0,-
BRDA:737,0,1,-
BRDA:745,0,0,-
BRDA:745,0,1,-
BRDA:745,1,2,-
BRDA:745,1,3,-
BRDA:745,2,4,-
BRDA:745,2,5,-
BRDA:754,0,0,-
BRDA:754,0,1,-
BRDA:757,0,0,-
BRDA:757,0,1,-
BRDA:757,1,2,-
BRDA:757,1,3,-
BRDA:757,2,4,-
BRDA:757,2,5,-
BRDA:773,0,0,-
BRDA:773,0,1,-
BRDA:791,0,0,-
BRDA:791,0,1,-
BRDA:791,1,2,-
BRDA:791,1,3,-
BRDA:791,2,4,-
BRDA:791,2,5,-
BRDA:796,0,0,-
BRDA:796,0,1,-
BRDA:797,0,0,-
BRDA:797,0,1,-
BRDA:798,0,0,-
BRDA:798,0,1,-
BRDA:807,0,0,-
BRDA:807,0,1,-
BRDA:810,0,0,-
BRDA:810,0,1,-
BRDA:815,0,0,-
BRDA:815,0,1,-
BRDA:815,1,2,-
BRDA:815,1,3,-
BRDA:816,0,0,-
BRDA:816,0,1,-
BRDA:816,1,2,-
BRDA:816,1,3,-
BRDA:818,0,0,-
BRDA:818,0,1,-
BRDA:820,0,0,-
BRDA:820,0,1,-
BRDA:822,0,0,-
BRDA:822,0,1,-
BRDA:830,0,0,-
BRDA:830,0,1,-
BRDA:832,0,0,-
BRDA:832,0,1,-
BRDA:838,0,0,-
BRDA:838,0,1,-
BRDA:840,0,0,-
BRDA:840,0,1,-
BRDA:860,0,0,-
BRDA:860,0,1,-
BRDA:868,0,0,-
BRDA:868,0,1,-
BRDA:873,0,0,-
BRDA:873,0,1,-
BRDA:873,1,2,-
BRDA:873,1,3,-
BRDA:874,0,0,-
BRDA:874,0,1,-
BRDA:875,0,0,-
BRDA:875,0,1,-
BRDA:875,1,2,-
BRDA:875,1,3,-
BRDA:875,2,4,-
BRDA:875,2,5,-
BRDA:885,0,0,-
BRDA:885,0,1,-
BRDA:889,0,0,-
BRDA:889,0,1,-
BRDA:895,0,0,-
BRDA:895,0,1,-
BRDA:902,0,0,-
BRDA:902,0,1,-
BRDA:911,0,0,-
BRDA:911,0,1,-
BRDA:918,0,0,-
BRDA:918,0,1,-
BRDA:921,0,0,-
BRDA:921,0,1,-
BRDA:922,0,0,-
BRDA:922,0,1,-
BRDA:922,1,2,-
BRDA:922,1,3,-
BRDA:923,0,0,-
BRDA:923,0,1,-
BRDA:924,0,0,-
BRDA:924,0,1,-
BRDA:932,0,0,-
BRDA:932,0,1,-
BRDA:933,0,0,-
BRDA:933,0,1,-
BRDA:934,0,0,-
BRDA:934,0,1,-
BRDA:935,0,0,-
BRDA:935,0,1,-
BRDA:937,0,0,-
BRDA:937,0,1,-
BRDA:938,0,0,-
BRDA:938,0,1,-
BRDA:954,0,0,1
BRDA:954,0,1,4
BRDA:957,0,0,1
BRDA:957,0,1,4
BRDA:963,0,0,1
BRDA:963,0,1,4
BRDA:965,0,0,1
BRDA:965,0,1,0
BRDA:968,0,0,1
BRDA:968,0,1,0
BRDA:995,0,0,2
BRDA:995,0,1,0
BRDA:1001,0,0,2
BRDA:1001,0,1,0
BRDA:1019,0,0,2
BRDA:1019,0,1,0
BRDA:1025,0,0,0
BRDA:1025,0,1,2
BRDA:1032,0,0,2
BRDA:1032,0,1,0
BRDA:1032,1,2,2
BRDA:1032,1,3,0
BRDA:1032,2,4,2
BRDA:1032,2,5,0
BRDA:1039,0,0,0
BRDA:1039,0,1,2
BRDA:1042,0,0,0
BRDA:1042,0,1,2
BRDA:1042,1,2,-
BRDA:1042,1,3,-
BRDA:1061,0,0,3
BRDA:1061,0,1,0
BRDA:1063,0,0,0
BRDA:1063,0,1,3
BRDA:1069,0,0,0
BRDA:1069,0,1,3
BRDA:1079,0,0,0
BRDA:1079,0,1,3
BRDA:1079,1,2,0
BRDA:1079,1,3,3
BRDA:1085,0,0,1
BRDA:1085,0,1,2
BRDA:1094,0,0,2
BRDA:1094,0,1,0
BRDA:1099,0,0,0
BRDA:1099,0,1,2
BRDA:1106,0,0,2
BRDA:1106,0,1,0
BRDA:1114,0,0,-
BRDA:1114,0,1,-
BRDA:1114,1,2,-
BRDA:1114,1,3,-
BRDA:1114,2,4,-
BRDA:1114,2,5,-
BRDA:1117,0,0,-
BRDA:1117,0,1,-
BRDA:1131,0,0,-
BRDA:1131,0,1,-
BRDA:1131,1,2,-
BRDA:1131,1,3,-
BRDA:1142,0,0,-
BRDA:1142,0,1,-
BRDA:1148,0,0,-
BRDA:1148,0,1,-
BRDA:1160,0,0,-
BRDA:1160,0,1,-
BRDA:1166,0,0,-
BRDA:1166,0,1,-
BRDA:1170,0,0,-
BRDA:1170,0,1,-
BRDA:1194,0,0,37
BRDA:1194,0,1,0
BRDA:1200,0,0,-
BRDA:1200,0,1,-
BRDA:1206,0,0,4
BRDA:1206,0,1,0
BRDA:1216,0,0,-
BRDA:1216,0,1,-
BRDA:1216,1,2,-
BRDA:1216,1,3,-
BRDA:1216,2,4,-
BRDA:1216,2,5,-
BRDA:1223,0,0,-
BRDA:1223,0,1,-
BRDA:1233,0,0,-
BRDA:1233,0,1,-
BRDA:1240,0,0,-
BRDA:1240,0,1,-
BRDA:1252,0,0,2
BRDA:1252,0,1,0
BRDA:1252,1,2,1
BRDA:1252,1,3,1
BRDA:1263,0,0,2
BRDA:1263,0,1,0
BRDA:1270,0,0,2
BRDA:1270,0,1,0
BRDA:1281,0,0,15
BRDA:1281,0,1,14
BRDA:1300,0,0,13
BRDA:1300,0,1,0
BRDA:1301,0,0,13
BRDA:1301,0,1,0
BRDA:1317,0,0,-
BRDA:1317,0,1,-
BRDA:1320,0,0,-
BRDA:1320,0,1,-
BRDA:1320,1,2,-
BRDA:1320,1,3,-
BRDA:1320,2,4,-
BRDA:1320,2,5,-
BRDA:1323,0,0,-
BRDA:1323,0,1,-
BRDA:1323,1,2,-
BRDA:1323,1,3,-
BRDA:1323,2,4,-
BRDA:1323,2,5,-
BRDA:1326,0,0,-
BRDA:1326,0,1,-
BRDA:1327,0,0,-
BRDA:1327,0,1,-
BRDA:1330,0,0,-
BRDA:1330,0,1,-
BRDA:1334,0,0,-
BRDA:1334,0,1,-
BRDA:1346,0,0,18
BRDA:1346,0,1,28
BRDA:1350,0,0,14
BRDA:1350,0,1,32
BRDA:1350,1,2,0
BRDA:1350,1,3,14
BRDA:1354,0,0,-
BRDA:1354,0,1,-
BRDA:1360,0,0,-
BRDA:1360,0,1,-
BRDA:1360,1,2,-
BRDA:1360,1,3,-
BRDA:1373,0,0,14
BRDA:1373,0,1,32
BRDA:1378,0,0,24
BRDA:1378,0,1,22
BRDA:1380,0,0,31
BRDA:1380,0,1,15
BRF:412
BRH:111
LF:1407
LH:817
end_of_record
SF:/Users/runner/work/Draxul/Draxul/app/app.h
FN:74,_ZNK6draxul3App10init_errorEv
FN:69,_ZNK6draxul3App22last_render_test_errorEv
FNDA:13,_ZNK6draxul3App10init_errorEv
FNDA:0,_ZNK6draxul3App22last_render_test_errorEv
FNF:2
FNH:1
DA:69,0
DA:70,0
DA:71,0
DA:74,13
DA:75,13
DA:76,13
BRF:0
BRH:0
LF:6
LH:3
end_of_record
SF:/Users/runner/work/Draxul/Draxul/app/chrome_host.cpp
FN:14,_ZN6draxul10ChromeHostC2ENS0_4DepsE
FN:19,_ZN6draxul10ChromeHost10initializeERKNS_11HostContextERNS_14IHostCallbacksE
FN:27,_ZN6draxul10ChromeHost8shutdownEv
FN:38,_ZNK6draxul10ChromeHost10is_runningEv
FN:43,_ZN6draxul10ChromeHost12set_viewportERKNS_12HostViewportE
FN:48,_ZN6draxul10ChromeHost24create_initial_workspaceERNS_14IHostCallbacksEii
FN:67,_ZN6draxul10ChromeHost13add_workspaceERNS_14IHostCallbacksEiiNSt3__18optionalINS_8HostKindEEE
FN:88,_ZN6draxul10ChromeHost15close_workspaceEiRNS_14IHostCallbacksE
FN:109,_ZN6draxul10ChromeHost18activate_workspaceEi
FN:139,_ZN6draxul10ChromeHost14next_workspaceEv
FN:154,_ZN6draxul10ChromeHost14prev_workspaceEv
FN:169,_ZN6draxul10ChromeHost27activate_workspace_by_indexEi
FN:177,_ZN6draxul10ChromeHost19active_host_managerEv
FN:189,_ZNK6draxul10ChromeHost19active_host_managerEv
FN:200,_ZNK6draxul10ChromeHost11active_treeEv
FN:205,_ZNK6draxul10ChromeHost14tab_bar_heightEv
FN:215,_ZN6draxul10ChromeHost23recompute_all_viewportsEiiii
FN:221,_ZNK6draxul10ChromeHost19active_workspace_idEv
FN:226,_ZNK6draxul10ChromeHost22make_host_manager_depsEv
FN:263,_ZNK6draxul10ChromeHost12hit_test_tabEii
FN:285,_ZN6draxul10ChromeHost4drawERNS_13IFrameContextE
FN:515,_ZN6draxul10ChromeHost15update_tab_gridENSt3__14spanIKNS0_9TabLayoutELm18446744073709551615EEE
FN:592,_ZN6draxul10ChromeHost20flush_atlas_if_dirtyEv
FN:93,chrome_host.cpp:_ZZN6draxul10ChromeHost15close_workspaceEiRNS_14IHostCallbacksEENK3$_0clINSt3__110unique_ptrINS_9WorkspaceENS5_14default_deleteIS7_EEEEEEDaRKT_
FN:257,chrome_host.cpp:_ZN6draxul12_GLOBAL__N_19tab_labelEmRKNSt3__112basic_stringIcNS1_11char_traitsIcEENS1_9allocatorIcEEEE
FN:378,chrome_host.cpp:_ZZN6draxul10ChromeHost4drawERNS_13IFrameContextEENK3$_0clERKNS_9SplitTree11DividerRectE
FN:403,chrome_host.cpp:_ZZN6draxul10ChromeHost4drawERNS_13IFrameContextEENK3$_1clEP10NVGcontextii
FNDA:14,_ZN6draxul10ChromeHostC2ENS0_4DepsE
FNDA:14,_ZN6draxul10ChromeHost10initializeERKNS_11HostContextERNS_14IHostCallbacksE
FNDA:18,_ZN6draxul10ChromeHost8shutdownEv
FNDA:2,_ZNK6draxul10ChromeHost10is_runningEv
FNDA:14,_ZN6draxul10ChromeHost12set_viewportERKNS_12HostViewportE
FNDA:14,_ZN6draxul10ChromeHost24create_initial_workspaceERNS_14IHostCallbacksEii
FNDA:0,_ZN6draxul10ChromeHost13add_workspaceERNS_14IHostCallbacksEiiNSt3__18optionalINS_8HostKindEEE
FNDA:0,_ZN6draxul10ChromeHost15close_workspaceEiRNS_14IHostCallbacksE
FNDA:0,_ZN6draxul10ChromeHost18activate_workspaceEi
FNDA:0,_ZN6draxul10ChromeHost14next_workspaceEv
FNDA:0,_ZN6draxul10ChromeHost14prev_workspaceEv
FNDA:0,_ZN6draxul10ChromeHost27activate_workspace_by_indexEi
FNDA:65,_ZN6draxul10ChromeHost19active_host_managerEv
FNDA:2,_ZNK6draxul10ChromeHost19active_host_managerEv
FNDA:2,_ZNK6draxul10ChromeHost11active_treeEv
FNDA:1,_ZNK6draxul10ChromeHost14tab_bar_heightEv
FNDA:0,_ZN6draxul10ChromeHost23recompute_all_viewportsEiiii
FNDA:0,_ZNK6draxul10ChromeHost19active_workspace_idEv
FNDA:14,_ZNK6draxul10ChromeHost22make_host_manager_depsEv
FNDA:0,_ZNK6draxul10ChromeHost12hit_test_tabEii
FNDA:2,_ZN6draxul10ChromeHost4drawERNS_13IFrameContextE
FNDA:0,_ZN6draxul10ChromeHost15update_tab_gridENSt3__14spanIKNS0_9TabLayoutELm18446744073709551615EEE
FNDA:0,_ZN6draxul10ChromeHost20flush_atlas_if_dirtyEv
FNDA:0,chrome_host.cpp:_ZZN6draxul10ChromeHost15close_workspaceEiRNS_14IHostCallbacksEENK3$_0clINSt3__110unique_ptrINS_9WorkspaceENS5_14default_deleteIS7_EEEEEEDaRKT_
FNDA:0,chrome_host.cpp:_ZN6draxul12_GLOBAL__N_19tab_labelEmRKNSt3__112basic_stringIcNS1_11char_traitsIcEENS1_9allocatorIcEEEE
FNDA:0,chrome_host.cpp:_ZZN6draxul10ChromeHost4drawERNS_13IFrameContextEENK3$_0clERKNS_9SplitTree11DividerRectE
FNDA:0,chrome_host.cpp:_ZZN6draxul10ChromeHost4drawERNS_13IFrameContextEENK3$_1clEP10NVGcontextii
FNF:27
FNH:12
DA:14,14
DA:15,14
DA:16,14
DA:19,14
DA:20,14
DA:21,14
DA:22,14
DA:23,14
DA:24,14
DA:27,18
DA:28,18
DA:29,7
DA:30,18
DA:31,18
DA:32,18
DA:33,18
DA:34,18
DA:35,18
DA:38,2
DA:39,2
DA:40,2
DA:43,14
DA:44,14
DA:45,14
DA:48,14
DA:49,14
DA:50,14
DA:51,7
DA:52,7
DA:53,7
DA:54,7
DA:55,7
DA:56,7
DA:57,7
DA:58,0
DA:59,0
DA:60,7
DA:61,7
DA:62,7
DA:63,14
DA:67,0
DA:68,0
DA:70,0
DA:71,0
DA:72,0
DA:73,0
DA:74,0
DA:75,0
DA:76,0
DA:77,0
DA:78,0
DA:79,0
DA:80,0
DA:81,0
DA:82,0
DA:83,0
DA:84,0
DA:85,0
DA:88,0
DA:89,0
DA:90,0
DA:92,0
DA:93,0
DA:94,0
DA:95,0
DA:97,0
DA:99,0
DA:100,0
DA:102,0
DA:103,0
DA:105,0
DA:106,0
DA:109,0
DA:110,0
DA:111,0
DA:114,0
DA:115,0
DA:116,0
DA:117,0
DA:118,0
DA:119,0
DA:120,0
DA:121,0
DA:122,0
DA:124,0
DA:127,0
DA:128,0
DA:129,0
DA:130,0
DA:131,0
DA:132,0
DA:133,0
DA:134,0
DA:135,0
DA:136,0
DA:139,0
DA:140,0
DA:141,0
DA:142,0
DA:143,0
DA:144,0
DA:145,0
DA:146,0
DA:147,0
DA:148,0
DA:149,0
DA:150,0
DA:151,0
DA:154,0
DA:155,0
DA:156,0
DA:157,0
DA:158,0
DA:159,0
DA:160,0
DA:161,0
DA:162,0
DA:163,0
DA:164,0
DA:165,0
DA:166,0
DA:169,0
DA:170,0
DA:171,0
DA:172,0
DA:173,0
DA:174,0
DA:177,65
DA:178,65
DA:179,65
DA:180,65
DA:181,65
DA:182,65
DA:184,0
DA:185,0
DA:186,65
DA:189,2
DA:190,2
DA:191,2
DA:192,2
DA:193,2
DA:194,2
DA:195,0
DA:196,0
DA:197,2
DA:200,2
DA:201,2
DA:202,2
DA:205,1
DA:206,1
DA:207,1
DA:208,0
DA:209,0
DA:210,0
DA:211,0
DA:212,0
DA:215,0
DA:216,0
DA:217,0
DA:218,0
DA:221,0
DA:222,0
DA:223,0
DA:226,14
DA:227,14
DA:228,14
DA:229,14
DA:230,14
DA:231,14
DA:232,14
DA:233,14
DA:234,14
DA:235,14
DA:236,14
DA:237,14
DA:238,14
DA:239,14
DA:257,0
DA:258,0
DA:259,0
DA:263,0
DA:264,0
DA:265,0
DA:266,0
DA:267,0
DA:268,0
DA:270,0
DA:271,0
DA:272,0
DA:273,0
DA:274,0
DA:275,0
DA:276,0
DA:277,0
DA:278,0
DA:279,0
DA:280,0
DA:281,0
DA:282,0
DA:285,2
DA:286,2
DA:287,0
DA:289,2
DA:290,2
DA:292,2
DA:293,2
DA:298,0
DA:299,0
DA:300,0
DA:301,0
DA:302,0
DA:304,0
DA:305,0
DA:306,0
DA:307,0
DA:308,0
DA:309,0
DA:310,0
DA:311,0
DA:312,0
DA:313,0
DA:314,0
DA:315,0
DA:316,0
DA:317,0
DA:318,0
DA:320,0
DA:321,0
DA:322,0
DA:323,0
DA:324,0
DA:325,0
DA:326,0
DA:327,0
DA:329,0
DA:330,0
DA:331,0
DA:332,0
DA:335,0
DA:336,0
DA:337,0
DA:338,0
DA:339,0
DA:340,0
DA:341,0
DA:342,0
DA:343,0
DA:344,0
DA:345,0
DA:346,0
DA:347,0
DA:348,0
DA:349,0
DA:351,0
DA:352,0
DA:355,0
DA:356,0
DA:357,0
DA:358,0
DA:359,0
DA:360,0
DA:363,0
DA:364,0
DA:365,0
DA:366,0
DA:367,0
DA:368,0
DA:369,0
DA:370,0
DA:371,0
DA:372,0
DA:373,0
DA:375,0
DA:376,0
DA:377,0
DA:378,0
DA:379,0
DA:380,0
DA:381,0
DA:383,0
DA:384,0
DA:385,0
DA:386,0
DA:387,0
DA:388,0
DA:389,0
DA:390,0
DA:391,0
DA:392,0
DA:393,0
DA:394,0
DA:395,0
DA:396,0
DA:397,0
DA:400,0
DA:401,0
DA:402,0
DA:403,0
DA:405,0
DA:406,0
DA:408,0
DA:409,0
DA:410,0
DA:411,0
DA:413,0
DA:414,0
DA:415,0
DA:418,0
DA:419,0
DA:420,0
DA:421,0
DA:424,0
DA:425,0
DA:426,0
DA:428,0
DA:430,0
DA:431,0
DA:432,0
DA:433,0
DA:434,0
DA:435,0
DA:436,0
DA:437,0
DA:440,0
DA:441,0
DA:442,0
DA:443,0
DA:444,0
DA:445,0
DA:446,0
DA:447,0
DA:448,0
DA:449,0
DA:450,0
DA:451,0
DA:452,0
DA:453,0
DA:454,0
DA:455,0
DA:456,0
DA:457,0
DA:458,0
DA:461,0
DA:462,0
DA:463,0
DA:464,0
DA:465,0
DA:467,0
DA:468,0
DA:470,0
DA:471,0
DA:472,0
DA:473,0
DA:474,0
DA:475,0
DA:476,0
DA:477,0
DA:478,0
DA:479,0
DA:480,0
DA:481,0
DA:482,0
DA:484,0
DA:485,0
DA:487,0
DA:488,0
DA:489,0
DA:490,0
DA:492,0
DA:493,0
DA:494,0
DA:495,0
DA:496,0
DA:497,0
DA:500,0
DA:501,0
DA:502,0
DA:503,0
DA:506,0
DA:507,0
DA:508,0
DA:509,0
DA:510,0
DA:511,0
DA:512,0
DA:515,0
DA:516,0
DA:517,0
DA:519,0
DA:520,0
DA:521,0
DA:523,0
DA:524,0
DA:525,0
DA:526,0
DA:528,0
DA:529,0
DA:531,0
DA:532,0
DA:533,0
DA:534,0
DA:535,0
DA:537,0
DA:538,0
DA:539,0
DA:540,0
DA:541,0
DA:542,0
DA:543,0
DA:547,0
DA:548,0
DA:550,0
DA:551,0
DA:552,0
DA:553,0
DA:554,0
DA:555,0
DA:556,0
DA:557,0
DA:558,0
DA:562,0
DA:563,0
DA:564,0
DA:565,0
DA:567,0
DA:569,0
DA:570,0
DA:571,0
DA:572,0
DA:573,0
DA:576,0
DA:578,0
DA:579,0
DA:581,0
DA:582,0
DA:583,0
DA:584,0
DA:585,0
DA:587,0
DA:588,0
DA:589,0
DA:592,0
DA:593,0
DA:594,0
DA:595,0
DA:596,0
DA:598,0
DA:599,0
DA:600,0
DA:602,0
DA:603,0
DA:604,0
DA:605,0
DA:606,0
DA:607,0
DA:608,0
DA:609,0
DA:610,0
DA:611,0
DA:612,0
DA:613,0
DA:614,0
DA:615,0
DA:616,0
BRDA:28,0,0,7
BRDA:28,0,1,18
BRDA:50,0,0,7
BRDA:50,0,1,7
BRDA:56,0,0,7
BRDA:56,0,1,0
BRDA:71,0,0,-
BRDA:71,0,1,-
BRDA:77,0,0,-
BRDA:77,0,1,-
BRDA:89,0,0,-
BRDA:89,0,1,-
BRDA:94,0,0,-
BRDA:94,0,1,-
BRDA:102,0,0,-
BRDA:102,0,1,-
BRDA:110,0,0,-
BRDA:110,0,1,-
BRDA:114,0,0,-
BRDA:114,0,1,-
BRDA:116,0,0,-
BRDA:116,0,1,-
BRDA:118,0,0,-
BRDA:118,0,1,-
BRDA:127,0,0,-
BRDA:127,0,1,-
BRDA:129,0,0,-
BRDA:129,0,1,-
BRDA:131,0,0,-
BRDA:131,0,1,-
BRDA:140,0,0,-
BRDA:140,0,1,-
BRDA:142,0,0,-
BRDA:142,0,1,-
BRDA:144,0,0,-
BRDA:144,0,1,-
BRDA:155,0,0,-
BRDA:155,0,1,-
BRDA:157,0,0,-
BRDA:157,0,1,-
BRDA:159,0,0,-
BRDA:159,0,1,-
BRDA:161,0,0,-
BRDA:161,0,1,-
BRDA:171,0,0,-
BRDA:171,0,1,-
BRDA:171,1,2,-
BRDA:171,1,3,-
BRDA:178,0,0,65
BRDA:178,0,1,0
BRDA:180,0,0,65
BRDA:180,0,1,0
BRDA:190,0,0,2
BRDA:190,0,1,0
BRDA:192,0,0,2
BRDA:192,0,1,0
BRDA:206,0,0,1
BRDA:206,0,1,0
BRDA:208,0,0,-
BRDA:208,0,1,-
BRDA:216,0,0,-
BRDA:216,0,1,-
BRDA:264,0,0,-
BRDA:264,0,1,-
BRDA:264,1,2,-
BRDA:264,1,3,-
BRDA:267,0,0,-
BRDA:267,0,1,-
BRDA:267,1,2,-
BRDA:267,1,3,-
BRDA:267,2,4,-
BRDA:267,2,5,-
BRDA:267,3,6,-
BRDA:267,3,7,-
BRDA:271,0,0,-
BRDA:271,0,1,-
BRDA:277,0,0,-
BRDA:277,0,1,-
BRDA:277,1,2,-
BRDA:277,1,3,-
BRDA:286,0,0,0
BRDA:286,0,1,2
BRDA:292,0,0,2
BRDA:292,0,1,0
BRDA:292,1,2,2
BRDA:292,1,3,0
BRDA:304,0,0,-
BRDA:304,0,1,-
BRDA:304,1,2,-
BRDA:304,1,3,-
BRDA:309,0,0,-
BRDA:309,0,1,-
BRDA:309,1,2,-
BRDA:309,1,3,-
BRDA:313,0,0,-
BRDA:313,0,1,-
BRDA:342,0,0,-
BRDA:342,0,1,-
BRDA:342,1,2,-
BRDA:342,1,3,-
BRDA:347,0,0,-
BRDA:347,0,1,-
BRDA:375,0,0,-
BRDA:375,0,1,-
BRDA:384,0,0,-
BRDA:384,0,1,-
BRDA:387,0,0,-
BRDA:387,0,1,-
BRDA:387,1,2,-
BRDA:387,1,3,-
BRDA:400,0,0,-
BRDA:400,0,1,-
BRDA:405,0,0,-
BRDA:405,0,1,-
BRDA:413,0,0,-
BRDA:413,0,1,-
BRDA:424,0,0,-
BRDA:424,0,1,-
BRDA:440,0,0,-
BRDA:440,0,1,-
BRDA:443,0,0,-
BRDA:443,0,1,-
BRDA:461,0,0,-
BRDA:461,0,1,-
BRDA:472,0,0,-
BRDA:472,0,1,-
BRDA:474,0,0,-
BRDA:474,0,1,-
BRDA:475,0,0,-
BRDA:475,0,1,-
BRDA:477,0,0,-
BRDA:477,0,1,-
BRDA:478,0,0,-
BRDA:478,0,1,-
BRDA:481,0,0,-
BRDA:481,0,1,-
BRDA:482,0,0,-
BRDA:482,0,1,-
BRDA:506,0,0,-
BRDA:506,0,1,-
BRDA:506,1,2,-
BRDA:506,1,3,-
BRDA:509,0,0,-
BRDA:509,0,1,-
BRDA:516,0,0,-
BRDA:516,0,1,-
BRDA:516,1,2,-
BRDA:516,1,3,-
BRDA:520,0,0,-
BRDA:520,0,1,-
BRDA:520,1,2,-
BRDA:520,1,3,-
BRDA:528,0,0,-
BRDA:528,0,1,-
BRDA:531,0,0,-
BRDA:531,0,1,-
BRDA:550,0,0,-
BRDA:550,0,1,-
BRDA:563,0,0,-
BRDA:563,0,1,-
BRDA:569,0,0,-
BRDA:569,0,1,-
BRDA:572,0,0,-
BRDA:572,0,1,-
BRDA:572,1,2,-
BRDA:572,1,3,-
BRDA:576,0,0,-
BRDA:576,0,1,-
BRDA:576,1,2,-
BRDA:576,1,3,-
BRDA:593,0,0,-
BRDA:593,0,1,-
BRDA:593,1,2,-
BRDA:593,1,3,-
BRDA:595,0,0,-
BRDA:595,0,1,-
BRDA:599,0,0,-
BRDA:599,0,1,-
BRDA:599,1,2,-
BRDA:599,1,3,-
BRDA:607,0,0,-
BRDA:607,0,1,-
BRF:182
BRH:13
LF:546
LH:78
end_of_record
SF:/Users/runner/work/Draxul/Draxul/app/chrome_host.h
FN:124,_ZNK6draxul10ChromeHost17last_create_errorEv
FN:119,_ZNK6draxul10ChromeHost15workspace_countEv
FN:47,_ZNK6draxul10ChromeHost10init_errorEv
FN:52,_ZN6draxul10ChromeHost4pumpEv
FN:55,_ZNK6draxul10ChromeHost13next_deadlineEv
FN:60,_ZN6draxul10ChromeHost15dispatch_actionENSt3__117basic_string_viewIcNS1_11char_traitsIcEEEE
FN:63,_ZN6draxul10ChromeHost13request_closeEv
FN:65,_ZNK6draxul10ChromeHost18default_backgroundEv
FN:69,_ZNK6draxul10ChromeHost13runtime_stateEv
FN:73,_ZNK6draxul10ChromeHost11debug_stateEv
FNDA:7,_ZNK6draxul10ChromeHost17last_create_errorEv
FNDA:1,_ZNK6draxul10ChromeHost15workspace_countEv
FNDA:0,_ZNK6draxul10ChromeHost10init_errorEv
FNDA:0,_ZN6draxul10ChromeHost4pumpEv
FNDA:0,_ZNK6draxul10ChromeHost13next_deadlineEv
FNDA:0,_ZN6draxul10ChromeHost15dispatch_actionENSt3__117basic_string_viewIcNS1_11char_traitsIcEEEE
FNDA:0,_ZN6draxul10ChromeHost13request_closeEv
FNDA:0,_ZNK6draxul10ChromeHost18default_backgroundEv
FNDA:0,_ZNK6draxul10ChromeHost13runtime_stateEv
FNDA:0,_ZNK6draxul10ChromeHost11debug_stateEv
FNF:10
FNH:2
DA:47,0
DA:48,0
DA:49,0
DA:52,0
DA:55,0
DA:56,0
DA:57,0
DA:60,0
DA:61,0
DA:62,0
DA:63,0
DA:65,0
DA:66,0
DA:67,0
DA:69,0
DA:70,0
DA:71,0
DA:73,0
DA:74,0
DA:75,0
DA:119,1
DA:120,1
DA:121,1
DA:124,7
DA:125,7
DA:126,7
BRF:0
BRH:0
LF:26
LH:6
end_of_record
SF:/Users/runner/work/Draxul/Draxul/app/command_palette.cpp
FN:14,_ZN6draxul14CommandPaletteC2Ev
FN:17,_ZN6draxul14CommandPaletteC2ENS0_4DepsE
FN:22,_ZN6draxul14CommandPalette4openEv
FN:43,_ZN6draxul14CommandPalette5closeEv
FN:54,_ZNK6draxul14CommandPalette7is_openEv
FN:59,_ZN6draxul14CommandPalette6on_keyERKNS_8KeyEventE
FN:124,_ZN6draxul14CommandPalette13on_text_inputERKNS_14TextInputEventE
FN:136,_ZNK6draxul14CommandPalette11split_queryEv
FN:145,_ZN6draxul14CommandPalette8refilterEv
FN:178,_ZN6draxul14CommandPalette16execute_selectedEv
FN:194,_ZN6draxul14CommandPalette14move_selectionEi
FN:203,_ZNK6draxul14CommandPalette19shortcut_for_actionENSt3__117basic_string_viewIcNS1_11char_traitsIcEEEE
FN:222,_ZN6draxul14CommandPalette10view_stateEiif
FN:165,command_palette.cpp:_ZZN6draxul14CommandPalette8refilterEvENK3$_0clERKNS0_13FilteredEntryES4_
FNDA:12,_ZN6draxul14CommandPaletteC2Ev
FNDA:8,_ZN6draxul14CommandPaletteC2ENS0_4DepsE
FNDA:4,_ZN6draxul14CommandPalette4openEv
FNDA:3,_ZN6draxul14CommandPalette5closeEv
FNDA:9,_ZNK6draxul14CommandPalette7is_openEv
FNDA:3,_ZN6draxul14CommandPalette6on_keyERKNS_8KeyEventE
FNDA:0,_ZN6draxul14CommandPalette13on_text_inputERKNS_14TextInputEventE
FNDA:4,_ZNK6draxul14CommandPalette11split_queryEv
FNDA:4,_ZN6draxul14CommandPalette8refilterEv
FNDA:0,_ZN6draxul14CommandPalette16execute_selectedEv
FNDA:0,_ZN6draxul14CommandPalette14move_selectionEi
FNDA:100,_ZNK6draxul14CommandPalette19shortcut_for_actionENSt3__117basic_string_viewIcNS1_11char_traitsIcEEEE
FNDA:1,_ZN6draxul14CommandPalette10view_stateEiif
FNDA:0,command_palette.cpp:_ZZN6draxul14CommandPalette8refilterEvENK3$_0clERKNS0_13FilteredEntryES4_
FNF:14
FNH:10
DA:14,12
DA:17,8
DA:18,8
DA:19,8
DA:22,4
DA:23,4
DA:24,0
DA:25,4
DA:26,4
DA:27,4
DA:30,4
DA:31,4
DA:32,104
DA:33,104
DA:34,100
DA:35,104
DA:36,4
DA:38,4
DA:39,1
DA:40,4
DA:43,3
DA:44,3
DA:45,0
DA:46,3
DA:47,3
DA:48,1
DA:49,3
DA:50,1
DA:51,3
DA:54,9
DA:55,9
DA:56,9
DA:59,3
DA:60,3
DA:61,1
DA:63,2
DA:64,0
DA:66,2
DA:67,2
DA:69,2
DA:70,1
DA:71,1
DA:72,1
DA:73,1
DA:74,1
DA:75,0
DA:76,0
DA:77,0
DA:78,0
DA:79,1
DA:80,0
DA:81,0
DA:82,0
DA:83,0
DA:84,1
DA:85,0
DA:86,0
DA:87,0
DA:88,0
DA:89,1
DA:90,0
DA:91,0
DA:92,0
DA:93,0
DA:94,0
DA:95,0
DA:96,0
DA:97,0
DA:98,0
DA:99,0
DA:101,1
DA:102,0
DA:103,0
DA:104,0
DA:105,0
DA:106,0
DA:107,0
DA:108,0
DA:109,0
DA:110,0
DA:111,0
DA:113,1
DA:114,0
DA:115,0
DA:116,0
DA:117,0
DA:120,1
DA:121,1
DA:124,0
DA:125,0
DA:126,0
DA:128,0
DA:129,0
DA:130,0
DA:131,0
DA:132,0
DA:133,0
DA:136,4
DA:137,4
DA:138,4
DA:139,4
DA:140,0
DA:141,0
DA:142,4
DA:145,4
DA:146,4
DA:147,4
DA:149,4
DA:150,100
DA:151,100
DA:152,100
DA:153,100
DA:154,100
DA:155,0
DA:156,0
DA:157,0
DA:158,0
DA:159,0
DA:160,0
DA:161,100
DA:163,4
DA:164,0
DA:165,0
DA:166,0
DA:167,0
DA:168,0
DA:169,0
DA:170,0
DA:171,0
DA:172,0
DA:174,4
DA:175,4
DA:178,0
DA:179,0
DA:180,0
DA:181,0
DA:182,0
DA:183,0
DA:184,0
DA:185,0
DA:186,0
DA:187,0
DA:188,0
DA:189,0
DA:190,0
DA:191,0
DA:194,0
DA:195,0
DA:196,0
DA:197,0
DA:198,0
DA:199,0
DA:200,0
DA:203,100
DA:204,100
DA:205,100
DA:206,0
DA:207,0
DA:208,0
DA:209,0
DA:210,0
DA:211,0
DA:212,0
DA:213,0
DA:214,0
DA:215,0
DA:216,0
DA:217,0
DA:218,0
DA:219,0
DA:222,1
DA:224,1
DA:225,1
DA:226,1
DA:227,25
DA:228,25
DA:229,25
DA:230,25
DA:231,25
DA:232,25
DA:233,25
DA:235,1
DA:236,1
DA:237,1
DA:238,1
DA:239,1
DA:240,1
DA:241,1
DA:242,1
DA:243,1
BRDA:23,0,0,0
BRDA:23,0,1,4
BRDA:31,0,0,104
BRDA:31,0,1,4
BRDA:33,0,0,100
BRDA:33,0,1,4
BRDA:38,0,0,1
BRDA:38,0,1,3
BRDA:44,0,0,0
BRDA:44,0,1,3
BRDA:47,0,0,1
BRDA:47,0,1,2
BRDA:49,0,0,1
BRDA:49,0,1,2
BRDA:60,0,0,1
BRDA:60,0,1,2
BRDA:63,0,0,0
BRDA:63,0,1,2
BRDA:69,0,0,1
BRDA:69,0,1,1
BRDA:74,0,0,0
BRDA:74,0,1,1
BRDA:74,1,2,0
BRDA:74,1,3,1
BRDA:79,0,0,0
BRDA:79,0,1,1
BRDA:79,1,2,-
BRDA:79,1,3,-
BRDA:79,2,4,0
BRDA:79,2,5,1
BRDA:84,0,0,0
BRDA:84,0,1,1
BRDA:84,1,2,-
BRDA:84,1,3,-
BRDA:84,2,4,0
BRDA:84,2,5,1
BRDA:89,0,0,0
BRDA:89,0,1,1
BRDA:91,0,0,-
BRDA:91,0,1,-
BRDA:95,0,0,-
BRDA:95,0,1,-
BRDA:101,0,0,0
BRDA:101,0,1,1
BRDA:103,0,0,-
BRDA:103,0,1,-
BRDA:103,1,2,-
BRDA:103,1,3,-
BRDA:107,0,0,-
BRDA:107,0,1,-
BRDA:113,0,0,0
BRDA:113,0,1,1
BRDA:113,1,2,-
BRDA:113,1,3,-
BRDA:113,2,4,-
BRDA:113,2,5,-
BRDA:125,0,0,-
BRDA:125,0,1,-
BRDA:130,0,0,-
BRDA:130,0,1,-
BRDA:138,0,0,4
BRDA:138,0,1,0
BRDA:149,0,0,100
BRDA:149,0,1,4
BRDA:151,0,0,100
BRDA:151,0,1,0
BRDA:158,0,0,-
BRDA:158,0,1,-
BRDA:163,0,0,0
BRDA:163,0,1,4
BRDA:166,0,0,-
BRDA:166,0,1,-
BRDA:168,0,0,-
BRDA:168,0,1,-
BRDA:179,0,0,-
BRDA:179,0,1,-
BRDA:179,1,2,-
BRDA:179,1,3,-
BRDA:184,0,0,-
BRDA:184,0,1,-
BRDA:195,0,0,-
BRDA:195,0,1,-
BRDA:198,0,0,-
BRDA:198,0,1,-
BRDA:204,0,0,100
BRDA:204,0,1,0
BRDA:206,0,0,-
BRDA:206,0,1,-
BRDA:208,0,0,-
BRDA:208,0,1,-
BRDA:210,0,0,-
BRDA:210,0,1,-
BRDA:226,0,0,25
BRDA:226,0,1,1
BRF:94
BRH:34
LF:197
LH:90
end_of_record
SF:/Users/runner/work/Draxul/Draxul/app/command_palette_host.cpp
FN:14,_ZN6draxul18CommandPaletteHostC2ENS0_4DepsE
FN:19,_ZN6draxul18CommandPaletteHost10initializeERKNS_11HostContextERNS_14IHostCallbacksE
FN:50,_ZN6draxul18CommandPaletteHost8shutdownEv
FN:57,_ZNK6draxul18CommandPaletteHost10is_runningEv
FN:62,_ZNK6draxul18CommandPaletteHost10init_errorEv
FN:67,_ZN6draxul18CommandPaletteHost12set_viewportERKNS_12HostViewportE
FN:77,_ZN6draxul18CommandPaletteHost4pumpEv
FN:85,_ZN6draxul18CommandPaletteHost20refresh_open_paletteEv
FN:104,_ZN6draxul18CommandPaletteHost4drawERNS_13IFrameContextE
FN:110,_ZNK6draxul18CommandPaletteHost23palette_pane_descriptorEv
FN:118,_ZNK6draxul18CommandPaletteHost13next_deadlineEv
FN:123,_ZN6draxul18CommandPaletteHost6on_keyERKNS_8KeyEventE
FN:128,_ZN6draxul18CommandPaletteHost13on_text_inputERKNS_14TextInputEventE
FN:133,_ZN6draxul18CommandPaletteHost15dispatch_actionENSt3__117basic_string_viewIcNS1_11char_traitsIcEEEE
FN:155,_ZN6draxul18CommandPaletteHost13request_closeEv
FN:162,_ZNK6draxul18CommandPaletteHost18default_backgroundEv
FN:167,_ZNK6draxul18CommandPaletteHost13runtime_stateEv
FN:172,_ZNK6draxul18CommandPaletteHost11debug_stateEv
FN:177,_ZNK6draxul18CommandPaletteHost9is_activeEv
FN:182,_ZN6draxul18CommandPaletteHost20flush_atlas_if_dirtyEv
FN:37,command_palette_host.cpp:_ZZN6draxul18CommandPaletteHost10initializeERKNS_11HostContextERNS_14IHostCallbacksEENK3$_0clEv
FN:41,command_palette_host.cpp:_ZZN6draxul18CommandPaletteHost10initializeERKNS_11HostContextERNS_14IHostCallbacksEENK3$_1clEv
FNDA:8,_ZN6draxul18CommandPaletteHostC2ENS0_4DepsE
FNDA:8,_ZN6draxul18CommandPaletteHost10initializeERKNS_11HostContextERNS_14IHostCallbacksE
FNDA:1,_ZN6draxul18CommandPaletteHost8shutdownEv
FNDA:0,_ZNK6draxul18CommandPaletteHost10is_runningEv
FNDA:0,_ZNK6draxul18CommandPaletteHost10init_errorEv
FNDA:8,_ZN6draxul18CommandPaletteHost12set_viewportERKNS_12HostViewportE
FNDA:2,_ZN6draxul18CommandPaletteHost4pumpEv
FNDA:1,_ZN6draxul18CommandPaletteHost20refresh_open_paletteEv
FNDA:2,_ZN6draxul18CommandPaletteHost4drawERNS_13IFrameContextE
FNDA:1,_ZNK6draxul18CommandPaletteHost23palette_pane_descriptorEv
FNDA:0,_ZNK6draxul18CommandPaletteHost13next_deadlineEv
FNDA:0,_ZN6draxul18CommandPaletteHost6on_keyERKNS_8KeyEventE
FNDA:0,_ZN6draxul18CommandPaletteHost13on_text_inputERKNS_14TextInputEventE
FNDA:1,_ZN6draxul18CommandPaletteHost15dispatch_actionENSt3__117basic_string_viewIcNS1_11char_traitsIcEEEE
FNDA:0,_ZN6draxul18CommandPaletteHost13request_closeEv
FNDA:0,_ZNK6draxul18CommandPaletteHost18default_backgroundEv
FNDA:0,_ZNK6draxul18CommandPaletteHost13runtime_stateEv
FNDA:0,_ZNK6draxul18CommandPaletteHost11debug_stateEv
FNDA:2,_ZNK6draxul18CommandPaletteHost9is_activeEv
FNDA:1,_ZN6draxul18CommandPaletteHost20flush_atlas_if_dirtyEv
FNDA:2,command_palette_host.cpp:_ZZN6draxul18CommandPaletteHost10initializeERKNS_11HostContextERNS_14IHostCallbacksEENK3$_0clEv
FNDA:1,command_palette_host.cpp:_ZZN6draxul18CommandPaletteHost10initializeERKNS_11HostContextERNS_14IHostCallbacksEENK3$_1clEv
FNF:22
FNH:13
DA:14,8
DA:15,8
DA:16,8
DA:19,8
DA:20,8
DA:21,8
DA:22,8
DA:24,8
DA:25,0
DA:28,8
DA:34,8
DA:35,8
DA:36,8
DA:37,8
DA:38,2
DA:39,2
DA:40,2
DA:41,8
DA:42,1
DA:43,1
DA:44,8
DA:46,8
DA:47,8
DA:50,1
DA:51,1
DA:52,1
DA:53,0
DA:54,1
DA:57,0
DA:58,0
DA:59,0
DA:62,0
DA:63,0
DA:64,0
DA:67,8
DA:68,8
DA:69,8
DA:70,8
DA:71,8
DA:72,8
DA:73,0
DA:74,8
DA:77,2
DA:78,2
DA:79,2
DA:81,0
DA:82,0
DA:85,1
DA:86,1
DA:87,0
DA:89,1
DA:90,1
DA:91,1
DA:92,1
DA:93,1
DA:95,1
DA:96,1
DA:97,1
DA:98,1
DA:100,1
DA:101,1
DA:104,2
DA:105,2
DA:106,0
DA:107,2
DA:110,1
DA:111,1
DA:112,1
DA:113,1
DA:114,1
DA:115,1
DA:118,0
DA:119,0
DA:120,0
DA:123,0
DA:124,0
DA:125,0
DA:128,0
DA:129,0
DA:130,0
DA:133,1
DA:134,1
DA:135,1
DA:136,1
DA:137,0
DA:138,0
DA:139,0
DA:140,1
DA:141,1
DA:142,1
DA:143,1
DA:144,1
DA:145,1
DA:146,1
DA:147,1
DA:148,1
DA:149,1
DA:150,1
DA:151,0
DA:152,1
DA:155,0
DA:156,0
DA:157,0
DA:158,0
DA:159,0
DA:162,0
DA:163,0
DA:164,0
DA:167,0
DA:168,0
DA:169,0
DA:172,0
DA:173,0
DA:174,0
DA:177,2
DA:178,2
DA:179,2
DA:182,1
DA:183,1
DA:184,0
DA:186,1
DA:187,1
DA:188,0
DA:190,1
DA:191,1
DA:192,1
DA:193,1
DA:194,1
DA:195,21
DA:196,20
DA:197,20
DA:198,20
DA:199,20
DA:200,20
DA:201,1
DA:202,1
DA:203,1
DA:207,1
DA:208,1
DA:209,1
BRDA:24,0,0,0
BRDA:24,0,1,8
BRDA:38,0,0,2
BRDA:38,0,1,0
BRDA:52,0,0,0
BRDA:52,0,1,1
BRDA:72,0,0,0
BRDA:72,0,1,8
BRDA:78,0,0,2
BRDA:78,0,1,0
BRDA:78,1,2,-
BRDA:78,1,3,-
BRDA:78,2,4,-
BRDA:78,2,5,-
BRDA:78,3,6,-
BRDA:78,3,7,-
BRDA:86,0,0,0
BRDA:86,0,1,1
BRDA:86,1,2,0
BRDA:86,1,3,1
BRDA:86,2,4,0
BRDA:86,2,5,1
BRDA:86,3,6,0
BRDA:86,3,7,1
BRDA:90,0,0,1
BRDA:90,0,1,0
BRDA:91,0,0,1
BRDA:91,0,1,0
BRDA:95,0,0,0
BRDA:95,0,1,1
BRDA:105,0,0,0
BRDA:105,0,1,2
BRDA:105,1,2,-
BRDA:105,1,3,-
BRDA:134,0,0,1
BRDA:134,0,1,0
BRDA:136,0,0,0
BRDA:136,0,1,1
BRDA:147,0,0,1
BRDA:147,0,1,0
BRDA:157,0,0,-
BRDA:157,0,1,-
BRDA:183,0,0,0
BRDA:183,0,1,1
BRDA:187,0,0,0
BRDA:187,0,1,1
BRDA:187,1,2,0
BRDA:187,1,3,1
BRDA:195,0,0,20
BRDA:195,0,1,1
BRDA:207,0,0,1
BRDA:207,0,1,0
BRDA:207,1,2,1
BRDA:207,1,3,0
BRF:54
BRH:23
LF:147
LH:105
end_of_record
SF:/Users/runner/work/Draxul/Draxul/app/diagnostics_panel_host.cpp
FN:9,_ZN6draxul20DiagnosticsPanelHost10initializeERKNS_11HostContextERNS_14IHostCallbacksE
FN:15,_ZN6draxul20DiagnosticsPanelHost8shutdownEv
FN:23,_ZNK6draxul20DiagnosticsPanelHost10is_runningEv
FN:28,_ZNK6draxul20DiagnosticsPanelHost10init_errorEv
FN:33,_ZN6draxul20DiagnosticsPanelHost12set_viewportERKNS_12HostViewportE
FN:38,_ZN6draxul20DiagnosticsPanelHost4pumpEv
FN:42,_ZN6draxul20DiagnosticsPanelHost4drawERNS_13IFrameContextE
FN:60,_ZNK6draxul20DiagnosticsPanelHost13next_deadlineEv
FN:65,_ZN6draxul20DiagnosticsPanelHost6on_keyERKNS_8KeyEventE
FN:70,_ZN6draxul20DiagnosticsPanelHost13on_text_inputERKNS_14TextInputEventE
FN:75,_ZN6draxul20DiagnosticsPanelHost15on_mouse_buttonERKNS_16MouseButtonEventE
FN:80,_ZN6draxul20DiagnosticsPanelHost13on_mouse_moveERKNS_14MouseMoveEventE
FN:85,_ZN6draxul20DiagnosticsPanelHost14on_mouse_wheelERKNS_15MouseWheelEventE
FN:90,_ZN6draxul20DiagnosticsPanelHost15dispatch_actionENSt3__117basic_string_viewIcNS1_11char_traitsIcEEEE
FN:101,_ZN6draxul20DiagnosticsPanelHost13request_closeEv
FN:106,_ZNK6draxul20DiagnosticsPanelHost18default_backgroundEv
FN:111,_ZNK6draxul20DiagnosticsPanelHost13runtime_stateEv
FN:116,_ZNK6draxul20DiagnosticsPanelHost11debug_stateEv
FN:121,_ZN6draxul20DiagnosticsPanelHost17attach_imgui_hostERNS_10IImGuiHostE
FN:126,_ZN6draxul20DiagnosticsPanelHost14set_imgui_fontERKNSt3__112basic_stringIcNS1_11char_traitsIcEENS1_9allocatorIcEEEEf
FN:131,_ZN6draxul20DiagnosticsPanelHost11set_visibleEb
FN:143,_ZNK6draxul20DiagnosticsPanelHost7visibleEv
FN:148,_ZN6draxul20DiagnosticsPanelHost18set_window_metricsEiiiiif
FN:153,_ZNK6draxul20DiagnosticsPanelHost6layoutEv
FN:158,_ZN6draxul20DiagnosticsPanelHost23update_diagnostic_stateERKNS_20DiagnosticPanelStateE
FNDA:14,_ZN6draxul20DiagnosticsPanelHost10initializeERKNS_11HostContextERNS_14IHostCallbacksE
FNDA:14,_ZN6draxul20DiagnosticsPanelHost8shutdownEv
FNDA:0,_ZNK6draxul20DiagnosticsPanelHost10is_runningEv
FNDA:0,_ZNK6draxul20DiagnosticsPanelHost10init_errorEv
FNDA:0,_ZN6draxul20DiagnosticsPanelHost12set_viewportERKNS_12HostViewportE
FNDA:0,_ZN6draxul20DiagnosticsPanelHost4pumpEv
FNDA:2,_ZN6draxul20DiagnosticsPanelHost4drawERNS_13IFrameContextE
FNDA:0,_ZNK6draxul20DiagnosticsPanelHost13next_deadlineEv
FNDA:0,_ZN6draxul20DiagnosticsPanelHost6on_keyERKNS_8KeyEventE
FNDA:0,_ZN6draxul20DiagnosticsPanelHost13on_text_inputERKNS_14TextInputEventE
FNDA:0,_ZN6draxul20DiagnosticsPanelHost15on_mouse_buttonERKNS_16MouseButtonEventE
FNDA:0,_ZN6draxul20DiagnosticsPanelHost13on_mouse_moveERKNS_14MouseMoveEventE
FNDA:0,_ZN6draxul20DiagnosticsPanelHost14on_mouse_wheelERKNS_15MouseWheelEventE
FNDA:0,_ZN6draxul20DiagnosticsPanelHost15dispatch_actionENSt3__117basic_string_viewIcNS1_11char_traitsIcEEEE
FNDA:0,_ZN6draxul20DiagnosticsPanelHost13request_closeEv
FNDA:0,_ZNK6draxul20DiagnosticsPanelHost18default_backgroundEv
FNDA:0,_ZNK6draxul20DiagnosticsPanelHost13runtime_stateEv
FNDA:0,_ZNK6draxul20DiagnosticsPanelHost11debug_stateEv
FNDA:14,_ZN6draxul20DiagnosticsPanelHost17attach_imgui_hostERNS_10IImGuiHostE
FNDA:15,_ZN6draxul20DiagnosticsPanelHost14set_imgui_fontERKNSt3__112basic_stringIcNS1_11char_traitsIcEENS1_9allocatorIcEEEEf
FNDA:14,_ZN6draxul20DiagnosticsPanelHost11set_visibleEb
FNDA:2,_ZNK6draxul20DiagnosticsPanelHost7visibleEv
FNDA:15,_ZN6draxul20DiagnosticsPanelHost18set_window_metricsEiiiiif
FNDA:28,_ZNK6draxul20DiagnosticsPanelHost6layoutEv
FNDA:2,_ZN6draxul20DiagnosticsPanelHost23update_diagnostic_stateERKNS_20DiagnosticPanelStateE
FNF:25
FNH:10
DA:9,14
DA:10,14
DA:11,14
DA:12,14
DA:15,14
DA:16,14
DA:17,14
DA:18,14
DA:19,14
DA:20,14
DA:23,0
DA:24,0
DA:25,0
DA:28,0
DA:29,0
DA:30,0
DA:33,0
DA:34,0
DA:35,0
DA:38,0
DA:39,0
DA:42,2
DA:43,2
DA:44,1
DA:46,1
DA:47,1
DA:48,1
DA:49,1
DA:50,0
DA:52,1
DA:53,1
DA:54,1
DA:55,1
DA:56,1
DA:57,1
DA:60,0
DA:61,0
DA:62,0
DA:65,0
DA:66,0
DA:67,0
DA:70,0
DA:71,0
DA:72,0
DA:75,0
DA:76,0
DA:77,0
DA:80,0
DA:81,0
DA:82,0
DA:85,0
DA:86,0
DA:87,0
DA:90,0
DA:91,0
DA:92,0
DA:94,0
DA:95,0
DA:96,0
DA:97,0
DA:98,0
DA:101,0
DA:102,0
DA:103,0
DA:106,0
DA:107,0
DA:108,0
DA:111,0
DA:112,0
DA:113,0
DA:116,0
DA:117,0
DA:118,0
DA:121,14
DA:122,14
DA:123,14
DA:126,15
DA:127,15
DA:128,15
DA:131,14
DA:132,14
DA:133,14
DA:134,13
DA:135,13
DA:136,13
DA:137,13
DA:138,14
DA:139,14
DA:140,14
DA:143,2
DA:144,2
DA:145,2
DA:148,15
DA:149,15
DA:150,15
DA:153,28
DA:154,28
DA:155,28
DA:158,2
DA:159,2
DA:160,2
BRDA:43,0,0,1
BRDA:43,0,1,1
BRDA:43,1,2,0
BRDA:43,1,3,1
BRDA:49,0,0,0
BRDA:49,0,1,1
BRDA:55,0,0,1
BRDA:55,0,1,0
BRDA:55,1,2,1
BRDA:55,1,3,0
BRDA:91,0,0,-
BRDA:91,0,1,-
BRDA:95,0,0,-
BRDA:95,0,1,-
BRDA:133,0,0,13
BRDA:133,0,1,1
BRDA:138,0,0,14
BRDA:138,0,1,0
BRF:18
BRH:9
LF:101
LH:51
end_of_record
SF:/Users/runner/work/Draxul/Draxul/app/diagnostics_panel_host.h
FN:39,_ZN6draxul20DiagnosticsPanelHost5panelEv
FN:43,_ZNK6draxul20DiagnosticsPanelHost5panelEv
FN:53,_ZNK6draxul20DiagnosticsPanelHost16last_render_timeEv
FNDA:14,_ZN6draxul20DiagnosticsPanelHost5panelEv
FNDA:0,_ZNK6draxul20DiagnosticsPanelHost5panelEv
FNDA:0,_ZNK6draxul20DiagnosticsPanelHost16last_render_timeEv
FNF:3
FNH:1
DA:39,14
DA:40,14
DA:41,14
DA:43,0
DA:44,0
DA:45,0
DA:53,0
DA:54,0
DA:55,0
BRF:0
BRH:0
LF:9
LH:3
end_of_record
SF:/Users/runner/work/Draxul/Draxul/app/frame_timer.h
FN:11,_ZN6draxul10FrameTimer6recordEd
FN:20,_ZNK6draxul10FrameTimer7last_msEv
FN:25,_ZNK6draxul10FrameTimer10average_msEv
FNDA:118,_ZN6draxul10FrameTimer6recordEd
FNDA:6,_ZNK6draxul10FrameTimer7last_msEv
FNDA:8,_ZNK6draxul10FrameTimer10average_msEv
FNF:3
FNH:3
DA:11,118
DA:12,118
DA:13,118
DA:14,118
DA:15,118
DA:16,70
DA:17,118
DA:20,6
DA:21,6
DA:22,6
DA:25,8
DA:26,8
DA:27,3
DA:28,5
DA:29,105
DA:30,100
DA:31,5
DA:32,8
BRDA:15,0,0,70
BRDA:15,0,1,48
BRDA:26,0,0,3
BRDA:26,0,1,5
BRDA:29,0,0,100
BRDA:29,0,1,5
BRF:6
BRH:6
LF:18
LH:18
end_of_record
SF:/Users/runner/work/Draxul/Draxul/app/fuzzy_match.cpp
FN:69,_ZN6draxul11fuzzy_matchENSt3__117basic_string_viewIcNS0_11char_traitsIcEEEES4_
FN:44,fuzzy_match.cpp:_ZN6draxul12_GLOBAL__N_114position_bonusEmNSt3__117basic_string_viewIcNS1_11char_traitsIcEEEE
FN:31,fuzzy_match.cpp:_ZN6draxul12_GLOBAL__N_18classifyEc
FNDA:13,_ZN6draxul11fuzzy_matchENSt3__117basic_string_viewIcNS0_11char_traitsIcEEEES4_
FNDA:24,fuzzy_match.cpp:_ZN6draxul12_GLOBAL__N_114position_bonusEmNSt3__117basic_string_viewIcNS1_11char_traitsIcEEEE
FNDA:38,fuzzy_match.cpp:_ZN6draxul12_GLOBAL__N_18classifyEc
FNF:3
FNH:3
DA:31,38
DA:32,38
DA:33,36
DA:34,2
DA:35,0
DA:36,2
DA:37,0
DA:38,2
DA:39,2
DA:40,0
DA:41,2
DA:44,24
DA:45,24
DA:46,5
DA:48,19
DA:49,19
DA:52,19
DA:53,2
DA:56,17
DA:57,0
DA:58,17
DA:59,0
DA:60,17
DA:61,0
DA:63,17
DA:64,17
DA:69,13
DA:70,13
DA:72,13
DA:73,1
DA:74,1
DA:75,1
DA:76,1
DA:77,1
DA:79,12
DA:80,1
DA:83,11
DA:84,11
DA:85,11
DA:86,35
DA:87,25
DA:88,25
DA:89,25
DA:90,47
DA:91,46
DA:92,46
DA:93,24
DA:94,24
DA:95,24
DA:96,24
DA:97,24
DA:98,24
DA:99,22
DA:100,22
DA:101,25
DA:102,1
DA:103,25
DA:106,10
DA:107,34
DA:108,24
DA:109,24
DA:112,24
DA:115,24
DA:116,11
DA:119,24
DA:120,10
DA:122,24
DA:125,24
DA:126,14
DA:127,14
DA:128,14
DA:129,3
DA:130,14
DA:131,10
DA:132,5
DA:134,5
DA:135,5
DA:136,24
DA:138,10
DA:139,10
DA:140,10
DA:141,10
DA:142,11
BRDA:32,0,0,36
BRDA:32,0,1,2
BRDA:32,1,2,36
BRDA:32,1,3,0
BRDA:34,0,0,2
BRDA:34,0,1,0
BRDA:34,1,2,0
BRDA:34,1,3,2
BRDA:36,0,0,2
BRDA:36,0,1,0
BRDA:36,1,2,0
BRDA:36,1,3,2
BRDA:38,0,0,2
BRDA:38,0,1,0
BRDA:38,1,2,-
BRDA:38,1,3,-
BRDA:38,2,4,-
BRDA:38,2,5,-
BRDA:38,3,6,-
BRDA:38,3,7,-
BRDA:38,4,8,-
BRDA:38,4,9,-
BRDA:38,5,10,-
BRDA:38,5,11,-
BRDA:38,6,12,-
BRDA:38,6,13,-
BRDA:45,0,0,5
BRDA:45,0,1,19
BRDA:52,0,0,2
BRDA:52,0,1,17
BRDA:56,0,0,17
BRDA:56,0,1,0
BRDA:56,1,2,0
BRDA:56,1,3,17
BRDA:58,0,0,17
BRDA:58,0,1,0
BRDA:58,1,2,-
BRDA:58,1,3,-
BRDA:58,2,4,0
BRDA:58,2,5,17
BRDA:60,0,0,0
BRDA:60,0,1,17
BRDA:60,1,2,-
BRDA:60,1,3,-
BRDA:60,2,4,-
BRDA:60,2,5,-
BRDA:72,0,0,1
BRDA:72,0,1,12
BRDA:79,0,0,1
BRDA:79,0,1,11
BRDA:86,0,0,25
BRDA:86,0,1,10
BRDA:90,0,0,46
BRDA:90,0,1,1
BRDA:92,0,0,24
BRDA:92,0,1,22
BRDA:101,0,0,1
BRDA:101,0,1,24
BRDA:107,0,0,24
BRDA:107,0,1,10
BRDA:115,0,0,14
BRDA:115,0,1,10
BRDA:115,1,2,11
BRDA:115,1,3,3
BRDA:119,0,0,10
BRDA:119,0,1,14
BRDA:125,0,0,14
BRDA:125,0,1,10
BRDA:128,0,0,3
BRDA:128,0,1,11
BRDA:131,0,0,5
BRDA:131,0,1,5
BRF:72
BRH:43
LF:83
LH:77
end_of_record
SF:/Users/runner/work/Draxul/Draxul/app/gui_action_handler.cpp
FN:17,_ZN6draxul16GuiActionHandlerC2ENS0_4DepsE
FN:22,_ZN6draxul16GuiActionHandler10action_mapEv
FN:57,_ZN6draxul16GuiActionHandler7executeENSt3__117basic_string_viewIcNS1_11char_traitsIcEEEES5_
FN:84,_ZN6draxul16GuiActionHandler12action_namesEv
FN:95,_ZN6draxul16GuiActionHandler13font_increaseEv
FN:101,_ZN6draxul16GuiActionHandler13font_decreaseEv
FN:107,_ZN6draxul16GuiActionHandler10font_resetEv
FN:113,_ZNK6draxul16GuiActionHandler4copyEv
FN:121,_ZNK6draxul16GuiActionHandler5pasteEv
FN:129,_ZNK6draxul16GuiActionHandler18toggle_diagnosticsEv
FN:137,_ZNK6draxul16GuiActionHandler16open_file_dialogEv
FN:144,_ZNK6draxul16GuiActionHandler14split_verticalENSt3__117basic_string_viewIcNS1_11char_traitsIcEEEE
FN:151,_ZNK6draxul16GuiActionHandler16split_horizontalENSt3__117basic_string_viewIcNS1_11char_traitsIcEEEE
FN:158,_ZNK6draxul16GuiActionHandler18toggle_megacity_uiEv
FN:166,_ZNK6draxul16GuiActionHandler11toggle_zoomEv
FN:173,_ZNK6draxul16GuiActionHandler10close_paneEv
FN:180,_ZNK6draxul16GuiActionHandler12restart_hostEv
FN:187,_ZNK6draxul16GuiActionHandler9swap_paneEv
FN:194,_ZNK6draxul16GuiActionHandler10focus_leftEv
FN:201,_ZNK6draxul16GuiActionHandler11focus_rightEv
FN:208,_ZNK6draxul16GuiActionHandler8focus_upEv
FN:215,_ZNK6draxul16GuiActionHandler10focus_downEv
FN:222,_ZNK6draxul16GuiActionHandler7new_tabENSt3__117basic_string_viewIcNS1_11char_traitsIcEEEE
FN:228,_ZNK6draxul16GuiActionHandler9close_tabEv
FN:234,_ZNK6draxul16GuiActionHandler8next_tabEv
FN:240,_ZNK6draxul16GuiActionHandler8prev_tabEv
FN:246,_ZNK6draxul16GuiActionHandler12activate_tabENSt3__117basic_string_viewIcNS1_11char_traitsIcEEEE
FN:262,_ZN6draxul16GuiActionHandler16change_font_sizeEf
FN:25,gui_action_handler.cpp:_ZZN6draxul16GuiActionHandler10action_mapEvENK3$_0clIS0_NSt3__117basic_string_viewIcNS3_11char_traitsIcEEEEEEDaRT_T0_
FN:26,gui_action_handler.cpp:_ZZN6draxul16GuiActionHandler10action_mapEvENK3$_1clIS0_NSt3__117basic_string_viewIcNS3_11char_traitsIcEEEEEEDaRT_T0_
FN:27,gui_action_handler.cpp:_ZZN6draxul16GuiActionHandler10action_mapEvENK3$_2clIS0_NSt3__117basic_string_viewIcNS3_11char_traitsIcEEEEEEDaRT_T0_
FN:28,gui_action_handler.cpp:_ZZN6draxul16GuiActionHandler10action_mapEvENK3$_3clIS0_NSt3__117basic_string_viewIcNS3_11char_traitsIcEEEEEEDaRT_T0_
FN:29,gui_action_handler.cpp:_ZZN6draxul16GuiActionHandler10action_mapEvENK3$_4clIS0_NSt3__117basic_string_viewIcNS3_11char_traitsIcEEEEEEDaRT_T0_
FN:30,gui_action_handler.cpp:_ZZN6draxul16GuiActionHandler10action_mapEvENK3$_5clIS0_NSt3__117basic_string_viewIcNS3_11char_traitsIcEEEEEEDaRT_T0_
FN:31,gui_action_handler.cpp:_ZZN6draxul16GuiActionHandler10action_mapEvENK3$_6clIS0_NSt3__117basic_string_viewIcNS3_11char_traitsIcEEEEEEDaRT_T0_
FN:32,gui_action_handler.cpp:_ZZN6draxul16GuiActionHandler10action_mapEvENK3$_7clIS0_NSt3__117basic_string_viewIcNS3_11char_traitsIcEEEEEEDaRT_T0_
FN:33,gui_action_handler.cpp:_ZZN6draxul16GuiActionHandler10action_mapEvENK3$_8clIS0_NSt3__117basic_string_viewIcNS3_11char_traitsIcEEEEEEDaRT_T0_
FN:34,gui_action_handler.cpp:_ZZN6draxul16GuiActionHandler10action_mapEvENK3$_9clIS0_NSt3__117basic_string_viewIcNS3_11char_traitsIcEEEEEEDaRT_T0_
FN:35,gui_action_handler.cpp:_ZZN6draxul16GuiActionHandler10action_mapEvENK4$_10clIS0_NSt3__117basic_string_viewIcNS3_11char_traitsIcEEEEEEDaRT_T0_
FN:36,gui_action_handler.cpp:_ZZN6draxul16GuiActionHandler10action_mapEvENK4$_11clIS0_NSt3__117basic_string_viewIcNS3_11char_traitsIcEEEEEEDaRT_T0_
FN:37,gui_action_handler.cpp:_ZZN6draxul16GuiActionHandler10action_mapEvENK4$_12clIS0_NSt3__117basic_string_viewIcNS3_11char_traitsIcEEEEEEDaRT_T0_
FN:38,gui_action_handler.cpp:_ZZN6draxul16GuiActionHandler10action_mapEvENK4$_13clIS0_NSt3__117basic_string_viewIcNS3_11char_traitsIcEEEEEEDaRT_T0_
FN:39,gui_action_handler.cpp:_ZZN6draxul16GuiActionHandler10action_mapEvENK4$_14clIS0_NSt3__117basic_string_viewIcNS3_11char_traitsIcEEEEEEDaRT_T0_
FN:40,gui_action_handler.cpp:_ZZN6draxul16GuiActionHandler10action_mapEvENK4$_15clIS0_NSt3__117basic_string_viewIcNS3_11char_traitsIcEEEEEEDaRT_T0_
FN:41,gui_action_handler.cpp:_ZZN6draxul16GuiActionHandler10action_mapEvENK4$_16clIS0_NSt3__117basic_string_viewIcNS3_11char_traitsIcEEEEEEDaRT_T0_
FN:42,gui_action_handler.cpp:_ZZN6draxul16GuiActionHandler10action_mapEvENK4$_17clIS0_NSt3__117basic_string_viewIcNS3_11char_traitsIcEEEEEEDaRT_T0_
FN:43,gui_action_handler.cpp:_ZZN6draxul16GuiActionHandler10action_mapEvENK4$_18clIS0_NSt3__117basic_string_viewIcNS3_11char_traitsIcEEEEEEDaRT_T0_
FN:44,gui_action_handler.cpp:_ZZN6draxul16GuiActionHandler10action_mapEvENK4$_19clIS0_NSt3__117basic_string_viewIcNS3_11char_traitsIcEEEEEEDaRT_T0_
FN:45,gui_action_handler.cpp:_ZZN6draxul16GuiActionHandler10action_mapEvENK4$_20clIS0_NSt3__117basic_string_viewIcNS3_11char_traitsIcEEEEEEDaRT_T0_
FN:46,gui_action_handler.cpp:_ZZN6draxul16GuiActionHandler10action_mapEvENK4$_21clIS0_NSt3__117basic_string_viewIcNS3_11char_traitsIcEEEEEEDaRT_T0_
FN:47,gui_action_handler.cpp:_ZZN6draxul16GuiActionHandler10action_mapEvENK4$_22clIS0_NSt3__117basic_string_viewIcNS3_11char_traitsIcEEEEEEDaRT_T0_
FN:48,gui_action_handler.cpp:_ZZN6draxul16GuiActionHandler10action_mapEvENK4$_23clIS0_NSt3__117basic_string_viewIcNS3_11char_traitsIcEEEEEEDaRT_T0_
FN:49,gui_action_handler.cpp:_ZZN6draxul16GuiActionHandler10action_mapEvENK4$_24clIS0_NSt3__117basic_string_viewIcNS3_11char_traitsIcEEEEEEDaRT_T0_
FN:50,gui_action_handler.cpp:_ZZN6draxul16GuiActionHandler10action_mapEvENK4$_25clIS0_NSt3__117basic_string_viewIcNS3_11char_traitsIcEEEEEEDaRT_T0_
FNDA:59,_ZN6draxul16GuiActionHandlerC2ENS0_4DepsE
FNDA:17,_ZN6draxul16GuiActionHandler10action_mapEv
FNDA:12,_ZN6draxul16GuiActionHandler7executeENSt3__117basic_string_viewIcNS1_11char_traitsIcEEEES5_
FNDA:5,_ZN6draxul16GuiActionHandler12action_namesEv
FNDA:5,_ZN6draxul16GuiActionHandler13font_increaseEv
FNDA:1,_ZN6draxul16GuiActionHandler13font_decreaseEv
FNDA:1,_ZN6draxul16GuiActionHandler10font_resetEv
FNDA:0,_ZNK6draxul16GuiActionHandler4copyEv
FNDA:0,_ZNK6draxul16GuiActionHandler5pasteEv
FNDA:1,_ZNK6draxul16GuiActionHandler18toggle_diagnosticsEv
FNDA:2,_ZNK6draxul16GuiActionHandler16open_file_dialogEv
FNDA:0,_ZNK6draxul16GuiActionHandler14split_verticalENSt3__117basic_string_viewIcNS1_11char_traitsIcEEEE
FNDA:0,_ZNK6draxul16GuiActionHandler16split_horizontalENSt3__117basic_string_viewIcNS1_11char_traitsIcEEEE
FNDA:0,_ZNK6draxul16GuiActionHandler18toggle_megacity_uiEv
FNDA:0,_ZNK6draxul16GuiActionHandler11toggle_zoomEv
FNDA:0,_ZNK6draxul16GuiActionHandler10close_paneEv
FNDA:0,_ZNK6draxul16GuiActionHandler12restart_hostEv
FNDA:0,_ZNK6draxul16GuiActionHandler9swap_paneEv
FNDA:0,_ZNK6draxul16GuiActionHandler10focus_leftEv
FNDA:0,_ZNK6draxul16GuiActionHandler11focus_rightEv
FNDA:0,_ZNK6draxul16GuiActionHandler8focus_upEv
FNDA:0,_ZNK6draxul16GuiActionHandler10focus_downEv
FNDA:0,_ZNK6draxul16GuiActionHandler7new_tabENSt3__117basic_string_viewIcNS1_11char_traitsIcEEEE
FNDA:0,_ZNK6draxul16GuiActionHandler9close_tabEv
FNDA:0,_ZNK6draxul16GuiActionHandler8next_tabEv
FNDA:0,_ZNK6draxul16GuiActionHandler8prev_tabEv
FNDA:0,_ZNK6draxul16GuiActionHandler12activate_tabENSt3__117basic_string_viewIcNS1_11char_traitsIcEEEE
FNDA:7,_ZN6draxul16GuiActionHandler16change_font_sizeEf
FNDA:1,gui_action_handler.cpp:_ZZN6draxul16GuiActionHandler10action_mapEvENK3$_0clIS0_NSt3__117basic_string_viewIcNS3_11char_traitsIcEEEEEEDaRT_T0_
FNDA:0,gui_action_handler.cpp:_ZZN6draxul16GuiActionHandler10action_mapEvENK3$_1clIS0_NSt3__117basic_string_viewIcNS3_11char_traitsIcEEEEEEDaRT_T0_
FNDA:0,gui_action_handler.cpp:_ZZN6draxul16GuiActionHandler10action_mapEvENK3$_2clIS0_NSt3__117basic_string_viewIcNS3_11char_traitsIcEEEEEEDaRT_T0_
FNDA:5,gui_action_handler.cpp:_ZZN6draxul16GuiActionHandler10action_mapEvENK3$_3clIS0_NSt3__117basic_string_viewIcNS3_11char_traitsIcEEEEEEDaRT_T0_
FNDA:1,gui_action_handler.cpp:_ZZN6draxul16GuiActionHandler10action_mapEvENK3$_4clIS0_NSt3__117basic_string_viewIcNS3_11char_traitsIcEEEEEEDaRT_T0_
FNDA:1,gui_action_handler.cpp:_ZZN6draxul16GuiActionHandler10action_mapEvENK3$_5clIS0_NSt3__117basic_string_viewIcNS3_11char_traitsIcEEEEEEDaRT_T0_
FNDA:2,gui_action_handler.cpp:_ZZN6draxul16GuiActionHandler10action_mapEvENK3$_6clIS0_NSt3__117basic_string_viewIcNS3_11char_traitsIcEEEEEEDaRT_T0_
FNDA:0,gui_action_handler.cpp:_ZZN6draxul16GuiActionHandler10action_mapEvENK3$_7clIS0_NSt3__117basic_string_viewIcNS3_11char_traitsIcEEEEEEDaRT_T0_
FNDA:0,gui_action_handler.cpp:_ZZN6draxul16GuiActionHandler10action_mapEvENK3$_8clIS0_NSt3__117basic_string_viewIcNS3_11char_traitsIcEEEEEEDaRT_T0_
FNDA:0,gui_action_handler.cpp:_ZZN6draxul16GuiActionHandler10action_mapEvENK3$_9clIS0_NSt3__117basic_string_viewIcNS3_11char_traitsIcEEEEEEDaRT_T0_
FNDA:0,gui_action_handler.cpp:_ZZN6draxul16GuiActionHandler10action_mapEvENK4$_10clIS0_NSt3__117basic_string_viewIcNS3_11char_traitsIcEEEEEEDaRT_T0_
FNDA:0,gui_action_handler.cpp:_ZZN6draxul16GuiActionHandler10action_mapEvENK4$_11clIS0_NSt3__117basic_string_viewIcNS3_11char_traitsIcEEEEEEDaRT_T0_
FNDA:2,gui_action_handler.cpp:_ZZN6draxul16GuiActionHandler10action_mapEvENK4$_12clIS0_NSt3__117basic_string_viewIcNS3_11char_traitsIcEEEEEEDaRT_T0_
FNDA:0,gui_action_handler.cpp:_ZZN6draxul16GuiActionHandler10action_mapEvENK4$_13clIS0_NSt3__117basic_string_viewIcNS3_11char_traitsIcEEEEEEDaRT_T0_
FNDA:0,gui_action_handler.cpp:_ZZN6draxul16GuiActionHandler10action_mapEvENK4$_14clIS0_NSt3__117basic_string_viewIcNS3_11char_traitsIcEEEEEEDaRT_T0_
FNDA:0,gui_action_handler.cpp:_ZZN6draxul16GuiActionHandler10action_mapEvENK4$_15clIS0_NSt3__117basic_string_viewIcNS3_11char_traitsIcEEEEEEDaRT_T0_
FNDA:0,gui_action_handler.cpp:_ZZN6draxul16GuiActionHandler10action_mapEvENK4$_16clIS0_NSt3__117basic_string_viewIcNS3_11char_traitsIcEEEEEEDaRT_T0_
FNDA:0,gui_action_handler.cpp:_ZZN6draxul16GuiActionHandler10action_mapEvENK4$_17clIS0_NSt3__117basic_string_viewIcNS3_11char_traitsIcEEEEEEDaRT_T0_
FNDA:0,gui_action_handler.cpp:_ZZN6draxul16GuiActionHandler10action_mapEvENK4$_18clIS0_NSt3__117basic_string_viewIcNS3_11char_traitsIcEEEEEEDaRT_T0_
FNDA:0,gui_action_handler.cpp:_ZZN6draxul16GuiActionHandler10action_mapEvENK4$_19clIS0_NSt3__117basic_string_viewIcNS3_11char_traitsIcEEEEEEDaRT_T0_
FNDA:0,gui_action_handler.cpp:_ZZN6draxul16GuiActionHandler10action_mapEvENK4$_20clIS0_NSt3__117basic_string_viewIcNS3_11char_traitsIcEEEEEEDaRT_T0_
FNDA:0,gui_action_handler.cpp:_ZZN6draxul16GuiActionHandler10action_mapEvENK4$_21clIS0_NSt3__117basic_string_viewIcNS3_11char_traitsIcEEEEEEDaRT_T0_
FNDA:0,gui_action_handler.cpp:_ZZN6draxul16GuiActionHandler10action_mapEvENK4$_22clIS0_NSt3__117basic_string_viewIcNS3_11char_traitsIcEEEEEEDaRT_T0_
FNDA:0,gui_action_handler.cpp:_ZZN6draxul16GuiActionHandler10action_mapEvENK4$_23clIS0_NSt3__117basic_string_viewIcNS3_11char_traitsIcEEEEEEDaRT_T0_
FNDA:0,gui_action_handler.cpp:_ZZN6draxul16GuiActionHandler10action_mapEvENK4$_24clIS0_NSt3__117basic_string_viewIcNS3_11char_traitsIcEEEEEEDaRT_T0_
FNDA:0,gui_action_handler.cpp:_ZZN6draxul16GuiActionHandler10action_mapEvENK4$_25clIS0_NSt3__117basic_string_viewIcNS3_11char_traitsIcEEEEEEDaRT_T0_
FNF:54
FNH:16
DA:17,59
DA:18,59
DA:19,59
DA:22,17
DA:24,17
DA:25,17
DA:26,17
DA:27,17
DA:28,17
DA:29,17
DA:30,17
DA:31,17
DA:32,17
DA:33,17
DA:34,17
DA:35,17
DA:36,17
DA:37,17
DA:38,17
DA:39,17
DA:40,17
DA:41,17
DA:42,17
DA:43,17
DA:44,17
DA:45,17
DA:46,17
DA:47,17
DA:48,17
DA:49,17
DA:50,17
DA:51,17
DA:53,17
DA:54,17
DA:57,12
DA:58,12
DA:59,12
DA:62,12
DA:63,12
DA:64,12
DA:65,12
DA:66,12
DA:67,0
DA:68,0
DA:69,0
DA:70,0
DA:71,12
DA:73,12
DA:74,12
DA:75,12
DA:76,12
DA:77,12
DA:78,0
DA:79,0
DA:80,0
DA:81,12
DA:84,5
DA:85,5
DA:86,5
DA:87,5
DA:88,5
DA:89,130
DA:90,5
DA:91,5
DA:92,5
DA:95,5
DA:96,5
DA:97,5
DA:98,5
DA:101,1
DA:102,1
DA:103,1
DA:104,1
DA:107,1
DA:108,1
DA:109,1
DA:110,1
DA:113,0
DA:114,0
DA:115,0
DA:116,0
DA:117,0
DA:118,0
DA:121,0
DA:122,0
DA:123,0
DA:124,0
DA:125,0
DA:126,0
DA:129,1
DA:130,1
DA:131,1
DA:132,1
DA:133,0
DA:134,1
DA:137,2
DA:138,2
DA:139,2
DA:140,1
DA:141,2
DA:144,0
DA:145,0
DA:146,0
DA:147,0
DA:148,0
DA:151,0
DA:152,0
DA:153,0
DA:154,0
DA:155,0
DA:158,0
DA:159,0
DA:160,0
DA:161,0
DA:162,0
DA:163,0
DA:166,0
DA:167,0
DA:168,0
DA:169,0
DA:170,0
DA:173,0
DA:174,0
DA:175,0
DA:176,0
DA:177,0
DA:180,0
DA:181,0
DA:182,0
DA:183,0
DA:184,0
DA:187,0
DA:188,0
DA:189,0
DA:190,0
DA:191,0
DA:194,0
DA:195,0
DA:196,0
DA:197,0
DA:198,0
DA:201,0
DA:202,0
DA:203,0
DA:204,0
DA:205,0
DA:208,0
DA:209,0
DA:210,0
DA:211,0
DA:212,0
DA:215,0
DA:216,0
DA:217,0
DA:218,0
DA:219,0
DA:222,0
DA:223,0
DA:224,0
DA:225,0
DA:228,0
DA:229,0
DA:230,0
DA:231,0
DA:234,0
DA:235,0
DA:236,0
DA:237,0
DA:240,0
DA:241,0
DA:242,0
DA:243,0
DA:246,0
DA:247,0
DA:248,0
DA:249,0
DA:250,0
DA:251,0
DA:252,0
DA:253,0
DA:254,0
DA:255,0
DA:256,0
DA:257,0
DA:258,0
DA:259,0
DA:262,7
DA:263,7
DA:264,7
DA:265,7
DA:266,1
DA:267,6
DA:268,0
DA:270,6
DA:271,0
DA:273,6
DA:274,0
DA:276,6
DA:277,6
DA:278,6
DA:279,6
DA:280,5
DA:281,6
DA:282,6
BRDA:35,0,0,-
BRDA:35,0,1,-
BRDA:36,0,0,-
BRDA:36,0,1,-
BRDA:37,0,0,2
BRDA:37,0,1,0
BRDA:64,0,0,12
BRDA:64,0,1,0
BRDA:66,0,0,0
BRDA:66,0,1,12
BRDA:73,0,0,12
BRDA:73,0,1,0
BRDA:88,0,0,130
BRDA:88,0,1,5
BRDA:115,0,0,-
BRDA:115,0,1,-
BRDA:116,0,0,-
BRDA:116,0,1,-
BRDA:123,0,0,-
BRDA:123,0,1,-
BRDA:124,0,0,-
BRDA:124,0,1,-
BRDA:132,0,0,0
BRDA:132,0,1,1
BRDA:139,0,0,1
BRDA:139,0,1,1
BRDA:146,0,0,-
BRDA:146,0,1,-
BRDA:153,0,0,-
BRDA:153,0,1,-
BRDA:160,0,0,-
BRDA:160,0,1,-
BRDA:161,0,0,-
BRDA:161,0,1,-
BRDA:168,0,0,-
BRDA:168,0,1,-
BRDA:175,0,0,-
BRDA:175,0,1,-
BRDA:182,0,0,-
BRDA:182,0,1,-
BRDA:189,0,0,-
BRDA:189,0,1,-
BRDA:196,0,0,-
BRDA:196,0,1,-
BRDA:203,0,0,-
BRDA:203,0,1,-
BRDA:210,0,0,-
BRDA:210,0,1,-
BRDA:217,0,0,-
BRDA:217,0,1,-
BRDA:223,0,0,-
BRDA:223,0,1,-
BRDA:229,0,0,-
BRDA:229,0,1,-
BRDA:235,0,0,-
BRDA:235,0,1,-
BRDA:241,0,0,-
BRDA:241,0,1,-
BRDA:247,0,0,-
BRDA:247,0,1,-
BRDA:247,1,2,-
BRDA:247,1,3,-
BRDA:250,0,0,-
BRDA:250,0,1,-
BRDA:252,0,0,-
BRDA:252,0,1,-
BRDA:252,1,2,-
BRDA:252,1,3,-
BRDA:257,0,0,-
BRDA:257,0,1,-
BRDA:265,0,0,1
BRDA:265,0,1,6
BRDA:267,0,0,0
BRDA:267,0,1,6
BRDA:270,0,0,0
BRDA:270,0,1,6
BRDA:273,0,0,0
BRDA:273,0,1,6
BRDA:276,0,0,6
BRDA:276,0,1,0
BRDA:279,0,0,5
BRDA:279,0,1,1
BRF:82
BRH:17
LF:230
LH:101
end_of_record
SF:/Users/runner/work/Draxul/Draxul/app/host_manager.cpp
FN:54,_ZN6draxul11HostManagerC2ENS0_4DepsE
FN:59,_ZN6draxul11HostManager32platform_default_split_host_kindEv
FN:64,_ZN6draxul11HostManager19split_host_kind_forENS_8HostKindE
FN:72,_ZN6draxul11HostManager6createERNS_14IHostCallbacksEiiNSt3__18optionalINS_8HostKindEEE
FN:96,_ZN6draxul11HostManager13split_focusedENS_14SplitDirectionERNS_14IHostCallbacksE
FN:144,_ZN6draxul11HostManager13split_focusedENS_14SplitDirectionENS_8HostKindERNS_14IHostCallbacksE
FN:151,_ZN6draxul11HostManager13split_focusedENS_14SplitDirectionENS_17HostLaunchOptionsERNS_14IHostCallbacksE
FN:181,_ZN6draxul11HostManager10close_leafEi
FN:212,_ZN6draxul11HostManager13close_focusedEv
FN:217,_ZN6draxul11HostManager15restart_focusedERNS_14IHostCallbacksE
FN:250,_ZN6draxul11HostManager22swap_focused_with_nextEv
FN:274,_ZN6draxul11HostManager19recompute_viewportsEii
FN:279,_ZN6draxul11HostManager19recompute_viewportsEiiii
FN:291,_ZN6draxul11HostManager11toggle_zoomEii
FN:319,_ZN6draxul11HostManager8shutdownEv
FN:334,_ZNK6draxul11HostManager12focused_hostEv
FN:339,_ZN6draxul11HostManager11set_focusedEi
FN:344,_ZN6draxul11HostManager15focus_directionENS_14FocusDirectionE
FN:359,_ZN6draxul11HostManager12update_focusEi
FN:374,_ZNK6draxul11HostManager8host_forEi
FN:380,_ZN6draxul11HostManager13host_at_pointEii
FN:394,_ZN6draxul11HostManager20create_host_for_leafEiRNS_14IHostCallbacksENS_17HostLaunchOptionsEb
FN:476,_ZN6draxul11HostManager20update_all_viewportsEv
FN:43,host_manager.cpp:_ZN6draxul12_GLOBAL__N_137platform_default_split_host_kind_implEv
FN:26,host_manager.cpp:_ZN6draxul12_GLOBAL__N_122is_terminal_shell_hostENS_8HostKindE
FN:495,host_manager.cpp:_ZZN6draxul11HostManager20update_all_viewportsEvENK3$_0clEiRKNS_14PaneDescriptorE
FNDA:16,_ZN6draxul11HostManagerC2ENS0_4DepsE
FNDA:1,_ZN6draxul11HostManager32platform_default_split_host_kindEv
FNDA:7,_ZN6draxul11HostManager19split_host_kind_forENS_8HostKindE
FNDA:16,_ZN6draxul11HostManager6createERNS_14IHostCallbacksEiiNSt3__18optionalINS_8HostKindEEE
FNDA:1,_ZN6draxul11HostManager13split_focusedENS_14SplitDirectionERNS_14IHostCallbacksE
FNDA:0,_ZN6draxul11HostManager13split_focusedENS_14SplitDirectionENS_8HostKindERNS_14IHostCallbacksE
FNDA:0,_ZN6draxul11HostManager13split_focusedENS_14SplitDirectionENS_17HostLaunchOptionsERNS_14IHostCallbacksE
FNDA:1,_ZN6draxul11HostManager10close_leafEi
FNDA:0,_ZN6draxul11HostManager13close_focusedEv
FNDA:0,_ZN6draxul11HostManager15restart_focusedERNS_14IHostCallbacksE
FNDA:0,_ZN6draxul11HostManager22swap_focused_with_nextEv
FNDA:0,_ZN6draxul11HostManager19recompute_viewportsEii
FNDA:1,_ZN6draxul11HostManager19recompute_viewportsEiiii
FNDA:0,_ZN6draxul11HostManager11toggle_zoomEii
FNDA:8,_ZN6draxul11HostManager8shutdownEv
FNDA:56,_ZNK6draxul11HostManager12focused_hostEv
FNDA:0,_ZN6draxul11HostManager11set_focusedEi
FNDA:0,_ZN6draxul11HostManager15focus_directionENS_14FocusDirectionE
FNDA:1,_ZN6draxul11HostManager12update_focusEi
FNDA:58,_ZNK6draxul11HostManager8host_forEi
FNDA:0,_ZN6draxul11HostManager13host_at_pointEii
FNDA:17,_ZN6draxul11HostManager20create_host_for_leafEiRNS_14IHostCallbacksENS_17HostLaunchOptionsEb
FNDA:3,_ZN6draxul11HostManager20update_all_viewportsEv
FNDA:4,host_manager.cpp:_ZN6draxul12_GLOBAL__N_137platform_default_split_host_kind_implEv
FNDA:8,host_manager.cpp:_ZN6draxul12_GLOBAL__N_122is_terminal_shell_hostENS_8HostKindE
FNDA:4,host_manager.cpp:_ZZN6draxul11HostManager20update_all_viewportsEvENK3$_0clEiRKNS_14PaneDescriptorE
FNF:26
FNH:16
DA:26,8
DA:27,8
DA:28,8
DA:29,8
DA:30,1
DA:31,2
DA:32,3
DA:33,4
DA:34,4
DA:35,3
DA:36,4
DA:37,4
DA:38,8
DA:39,0
DA:40,8
DA:43,4
DA:47,4
DA:48,4
DA:49,4
DA:54,16
DA:55,16
DA:56,16
DA:59,1
DA:60,1
DA:61,1
DA:64,7
DA:65,7
DA:66,4
DA:67,3
DA:68,7
DA:72,16
DA:73,16
DA:74,16
DA:75,16
DA:76,16
DA:78,16
DA:80,16
DA:81,16
DA:82,16
DA:83,16
DA:84,16
DA:85,16
DA:86,16
DA:87,16
DA:88,0
DA:89,16
DA:90,0
DA:92,16
DA:93,16
DA:96,1
DA:97,1
DA:98,1
DA:99,1
DA:100,0
DA:102,1
DA:103,1
DA:104,0
DA:106,1
DA:109,1
DA:110,1
DA:111,1
DA:112,1
DA:113,0
DA:114,1
DA:115,0
DA:116,1
DA:117,1
DA:118,1
DA:119,1
DA:120,0
DA:121,0
DA:122,0
DA:123,0
DA:124,0
DA:125,1
DA:127,1
DA:128,0
DA:130,0
DA:131,0
DA:132,0
DA:135,1
DA:138,1
DA:140,1
DA:141,1
DA:144,0
DA:145,0
DA:146,0
DA:147,0
DA:148,0
DA:151,0
DA:152,0
DA:153,0
DA:154,0
DA:155,0
DA:157,0
DA:158,0
DA:159,0
DA:161,0
DA:162,0
DA:163,0
DA:164,0
DA:165,0
DA:166,0
DA:167,0
DA:169,0
DA:170,0
DA:171,0
DA:172,0
DA:173,0
DA:175,0
DA:176,0
DA:177,0
DA:178,0
DA:181,1
DA:182,1
DA:183,1
DA:184,0
DA:186,1
DA:187,1
DA:188,0
DA:191,1
DA:192,0
DA:193,0
DA:194,0
DA:195,0
DA:198,1
DA:199,1
DA:200,1
DA:201,1
DA:204,1
DA:205,0
DA:207,1
DA:208,1
DA:209,1
DA:212,0
DA:213,0
DA:214,0
DA:217,0
DA:218,0
DA:219,0
DA:220,0
DA:221,0
DA:223,0
DA:224,0
DA:225,0
DA:228,0
DA:229,0
DA:230,0
DA:231,0
DA:232,0
DA:233,0
DA:234,0
DA:237,0
DA:238,0
DA:239,0
DA:242,0
DA:243,0
DA:245,0
DA:246,0
DA:247,0
DA:250,0
DA:251,0
DA:252,0
DA:253,0
DA:254,0
DA:256,0
DA:257,0
DA:258,0
DA:266,0
DA:267,0
DA:269,0
DA:270,0
DA:271,0
DA:274,0
DA:275,0
DA:276,0
DA:279,1
DA:280,1
DA:281,1
DA:282,1
DA:283,0
DA:284,0
DA:285,0
DA:286,0
DA:287,1
DA:288,1
DA:291,0
DA:292,0
DA:293,0
DA:294,0
DA:296,0
DA:297,0
DA:299,0
DA:300,0
DA:301,0
DA:302,0
DA:303,0
DA:304,0
DA:306,0
DA:307,0
DA:308,0
DA:310,0
DA:311,0
DA:312,0
DA:313,0
DA:314,0
DA:315,0
DA:316,0
DA:319,8
DA:320,8
DA:321,8
DA:322,8
DA:323,8
DA:324,8
DA:325,8
DA:326,8
DA:327,8
DA:328,8
DA:329,8
DA:330,8
DA:331,8
DA:334,56
DA:335,56
DA:336,56
DA:339,0
DA:340,0
DA:341,0
DA:344,0
DA:345,0
DA:346,0
DA:347,0
DA:348,0
DA:350,0
DA:351,0
DA:352,0
DA:354,0
DA:355,0
DA:356,0
DA:359,1
DA:360,1
DA:361,1
DA:362,0
DA:364,1
DA:365,1
DA:367,1
DA:369,1
DA:370,1
DA:371,1
DA:374,58
DA:375,58
DA:376,58
DA:377,58
DA:380,0
DA:381,0
DA:382,0
DA:383,0
DA:384,0
DA:385,0
DA:386,0
DA:387,0
DA:389,0
DA:390,0
DA:394,17
DA:395,17
DA:396,17
DA:398,17
DA:399,12
DA:400,12
DA:401,12
DA:402,5
DA:403,1
DA:404,1
DA:405,1
DA:410,1
DA:411,4
DA:412,4
DA:414,17
DA:415,2
DA:416,2
DA:417,2
DA:418,2
DA:420,15
DA:421,15
DA:422,1
DA:423,1
DA:424,1
DA:425,1
DA:426,15
DA:428,15
DA:429,15
DA:431,15
DA:432,15
DA:435,15
DA:437,15
DA:438,15
DA:439,15
DA:440,15
DA:441,15
DA:442,15
DA:443,15
DA:444,15
DA:445,15
DA:446,15
DA:447,15
DA:448,15
DA:449,5
DA:450,5
DA:451,5
DA:452,0
DA:453,5
DA:454,5
DA:456,10
DA:457,10
DA:458,0
DA:459,0
DA:460,0
DA:461,0
DA:462,10
DA:464,10
DA:465,7
DA:467,10
DA:468,9
DA:470,10
DA:471,10
DA:472,10
DA:473,15
DA:476,3
DA:477,3
DA:478,3
DA:479,0
DA:481,3
DA:482,0
DA:487,0
DA:489,0
DA:490,0
DA:491,0
DA:492,0
DA:493,3
DA:494,3
DA:495,4
DA:496,4
DA:497,4
DA:498,4
DA:499,4
DA:500,3
DA:501,3
BRDA:28,0,0,0
BRDA:28,0,1,8
BRDA:30,0,0,1
BRDA:30,0,1,7
BRDA:31,0,0,1
BRDA:31,0,1,7
BRDA:32,0,0,1
BRDA:32,0,1,7
BRDA:33,0,0,1
BRDA:33,0,1,7
BRDA:35,0,0,3
BRDA:35,0,1,5
BRDA:36,0,0,1
BRDA:36,0,1,7
BRDA:65,0,0,4
BRDA:65,0,1,3
BRDA:87,0,0,0
BRDA:87,0,1,16
BRDA:89,0,0,0
BRDA:89,0,1,16
BRDA:99,0,0,0
BRDA:99,0,1,1
BRDA:103,0,0,0
BRDA:103,0,1,1
BRDA:109,0,0,1
BRDA:109,0,1,0
BRDA:112,0,0,0
BRDA:112,0,1,1
BRDA:114,0,0,0
BRDA:114,0,1,1
BRDA:116,0,0,1
BRDA:116,0,1,0
BRDA:119,0,0,0
BRDA:119,0,1,1
BRDA:119,1,2,-
BRDA:119,1,3,-
BRDA:127,0,0,0
BRDA:127,0,1,1
BRDA:154,0,0,-
BRDA:154,0,1,-
BRDA:158,0,0,-
BRDA:158,0,1,-
BRDA:162,0,0,-
BRDA:162,0,1,-
BRDA:164,0,0,-
BRDA:164,0,1,-
BRDA:166,0,0,-
BRDA:166,0,1,-
BRDA:166,1,2,-
BRDA:166,1,3,-
BRDA:169,0,0,-
BRDA:169,0,1,-
BRDA:183,0,0,0
BRDA:183,0,1,1
BRDA:187,0,0,0
BRDA:187,0,1,1
BRDA:191,0,0,0
BRDA:191,0,1,1
BRDA:191,1,2,-
BRDA:191,1,3,-
BRDA:191,2,4,-
BRDA:191,2,5,-
BRDA:198,0,0,1
BRDA:198,0,1,0
BRDA:204,0,0,0
BRDA:204,0,1,1
BRDA:220,0,0,-
BRDA:220,0,1,-
BRDA:224,0,0,-
BRDA:224,0,1,-
BRDA:229,0,0,-
BRDA:229,0,1,-
BRDA:237,0,0,-
BRDA:237,0,1,-
BRDA:242,0,0,-
BRDA:242,0,1,-
BRDA:253,0,0,-
BRDA:253,0,1,-
BRDA:257,0,0,-
BRDA:257,0,1,-
BRDA:266,0,0,-
BRDA:266,0,1,-
BRDA:282,0,0,0
BRDA:282,0,1,1
BRDA:293,0,0,-
BRDA:293,0,1,-
BRDA:296,0,0,-
BRDA:296,0,1,-
BRDA:307,0,0,-
BRDA:307,0,1,-
BRDA:321,0,0,8
BRDA:321,0,1,8
BRDA:323,0,0,8
BRDA:323,0,1,0
BRDA:347,0,0,-
BRDA:347,0,1,-
BRDA:351,0,0,-
BRDA:351,0,1,-
BRDA:361,0,0,0
BRDA:361,0,1,1
BRDA:364,0,0,1
BRDA:364,0,1,0
BRDA:369,0,0,1
BRDA:369,0,1,0
BRDA:376,0,0,58
BRDA:376,0,1,0
BRDA:383,0,0,-
BRDA:383,0,1,-
BRDA:398,0,0,17
BRDA:398,0,1,0
BRDA:398,1,2,12
BRDA:398,1,3,5
BRDA:402,0,0,1
BRDA:402,0,1,4
BRDA:414,0,0,2
BRDA:414,0,1,15
BRDA:421,0,0,1
BRDA:421,0,1,14
BRDA:423,0,0,1
BRDA:423,0,1,0
BRDA:424,0,0,1
BRDA:424,0,1,0
BRDA:424,1,2,1
BRDA:424,1,3,0
BRDA:429,0,0,15
BRDA:429,0,1,0
BRDA:432,0,0,15
BRDA:432,0,1,0
BRDA:448,0,0,5
BRDA:448,0,1,10
BRDA:451,0,0,0
BRDA:451,0,1,5
BRDA:457,0,0,10
BRDA:457,0,1,0
BRDA:457,1,2,0
BRDA:457,1,3,10
BRDA:459,0,0,-
BRDA:459,0,1,-
BRDA:464,0,0,7
BRDA:464,0,1,3
BRDA:467,0,0,9
BRDA:467,0,1,1
BRDA:478,0,0,0
BRDA:478,0,1,3
BRDA:481,0,0,0
BRDA:481,0,1,3
BRDA:490,0,0,-
BRDA:490,0,1,-
BRDA:490,1,2,-
BRDA:490,1,3,-
BRDA:490,2,4,-
BRDA:490,2,5,-
BRDA:497,0,0,4
BRDA:497,0,1,0
BRDA:497,1,2,4
BRDA:497,1,3,0
BRDA:497,2,4,4
BRDA:497,2,5,0
BRF:158
BRH:66
LF:351
LH:194
end_of_record
SF:/Users/runner/work/Draxul/Draxul/app/host_manager.h
FN:93,_ZNK6draxul11HostManager9is_zoomedEv
FN:99,_ZNK6draxul11HostManager11zoomed_leafEv
FN:108,_ZNK6draxul11HostManager4hostEv
FN:113,_ZNK6draxul11HostManager12focused_leafEv
FN:141,_ZNK6draxul11HostManager10host_countEv
FN:145,_ZNK6draxul11HostManager4treeEv
FN:150,_ZNK6draxul11HostManager5errorEv
FN:132,app.cpp:_ZNK6draxul11HostManager13for_each_hostIZNS_3App18apply_font_metricsEvE3$_0EEvOT_
FN:133,app.cpp:_ZZNK6draxul11HostManager13for_each_hostIZNS_3App18apply_font_metricsEvE3$_0EEvOT_ENKUliRKNS_14PaneDescriptorEE_clEiS8_
FN:132,app.cpp:_ZNK6draxul11HostManager13for_each_hostIZNS_3App13reload_configEvE3$_0EEvOT_
FN:133,app.cpp:_ZZNK6draxul11HostManager13for_each_hostIZNS_3App13reload_configEvE3$_0EEvOT_ENKUliRKNS_14PaneDescriptorEE_clEiS8_
FN:132,app.cpp:_ZNK6draxul11HostManager13for_each_hostIZNS_3App16close_dead_panesEvE3$_0EEvOT_
FN:133,app.cpp:_ZZNK6draxul11HostManager13for_each_hostIZNS_3App16close_dead_panesEvE3$_0EEvOT_ENKUliRKNS_14PaneDescriptorEE_clEiS8_
FN:132,app.cpp:_ZNK6draxul11HostManager13for_each_hostIZNS_3App12render_frameEvE3$_0EEvOT_
FN:133,app.cpp:_ZZNK6draxul11HostManager13for_each_hostIZNS_3App12render_frameEvE3$_0EEvOT_ENKUliRKNS_14PaneDescriptorEE_clEiS8_
FN:132,app.cpp:_ZNK6draxul11HostManager13for_each_hostIZNS_3App9pump_onceENSt3__18optionalINS3_6chrono10time_pointINS5_12steady_clockENS5_8durationIxNS3_5ratioILl1ELl1000000000EEEEEEEEEE3$_0EEvOT_
FN:133,app.cpp:_ZZNK6draxul11HostManager13for_each_hostIZNS_3App9pump_onceENSt3__18optionalINS3_6chrono10time_pointINS5_12steady_clockENS5_8durationIxNS3_5ratioILl1ELl1000000000EEEEEEEEEE3$_0EEvOT_ENKUliRKNS_14PaneDescriptorEE_clEiSJ_
FN:132,app.cpp:_ZNK6draxul11HostManager13for_each_hostIZNS_3App12request_quitEvE3$_0EEvOT_
FN:133,app.cpp:_ZZNK6draxul11HostManager13for_each_hostIZNS_3App12request_quitEvE3$_0EEvOT_ENKUliRKNS_14PaneDescriptorEE_clEiS8_
FN:132,app.cpp:_ZNK6draxul11HostManager13for_each_hostIZNS_3App21dispatch_to_nvim_hostENSt3__117basic_string_viewIcNS3_11char_traitsIcEEEEE3$_0EEvOT_
FN:133,app.cpp:_ZZNK6draxul11HostManager13for_each_hostIZNS_3App21dispatch_to_nvim_hostENSt3__117basic_string_viewIcNS3_11char_traitsIcEEEEE3$_0EEvOT_ENKUliRKNS_14PaneDescriptorEE_clEiSD_
FN:132,app.cpp:_ZNK6draxul11HostManager13for_each_hostIZNKS_3App15wait_timeout_msENSt3__18optionalINS3_6chrono10time_pointINS5_12steady_clockENS5_8durationIxNS3_5ratioILl1ELl1000000000EEEEEEEEEE3$_0EEvOT_
FN:133,app.cpp:_ZZNK6draxul11HostManager13for_each_hostIZNKS_3App15wait_timeout_msENSt3__18optionalINS3_6chrono10time_pointINS5_12steady_clockENS5_8durationIxNS3_5ratioILl1ELl1000000000EEEEEEEEEE3$_0EEvOT_ENKUliRKNS_14PaneDescriptorEE_clEiSJ_
FNDA:4,_ZNK6draxul11HostManager9is_zoomedEv
FNDA:0,_ZNK6draxul11HostManager11zoomed_leafEv
FNDA:49,_ZNK6draxul11HostManager4hostEv
FNDA:0,_ZNK6draxul11HostManager12focused_leafEv
FNDA:1,_ZNK6draxul11HostManager10host_countEv
FNDA:2,_ZNK6draxul11HostManager4treeEv
FNDA:7,_ZNK6draxul11HostManager5errorEv
FNDA:1,app.cpp:_ZNK6draxul11HostManager13for_each_hostIZNS_3App18apply_font_metricsEvE3$_0EEvOT_
FNDA:1,app.cpp:_ZZNK6draxul11HostManager13for_each_hostIZNS_3App18apply_font_metricsEvE3$_0EEvOT_ENKUliRKNS_14PaneDescriptorEE_clEiS8_
FNDA:1,app.cpp:_ZNK6draxul11HostManager13for_each_hostIZNS_3App13reload_configEvE3$_0EEvOT_
FNDA:1,app.cpp:_ZZNK6draxul11HostManager13for_each_hostIZNS_3App13reload_configEvE3$_0EEvOT_ENKUliRKNS_14PaneDescriptorEE_clEiS8_
FNDA:5,app.cpp:_ZNK6draxul11HostManager13for_each_hostIZNS_3App16close_dead_panesEvE3$_0EEvOT_
FNDA:5,app.cpp:_ZZNK6draxul11HostManager13for_each_hostIZNS_3App16close_dead_panesEvE3$_0EEvOT_ENKUliRKNS_14PaneDescriptorEE_clEiS8_
FNDA:2,app.cpp:_ZNK6draxul11HostManager13for_each_hostIZNS_3App12render_frameEvE3$_0EEvOT_
FNDA:2,app.cpp:_ZZNK6draxul11HostManager13for_each_hostIZNS_3App12render_frameEvE3$_0EEvOT_ENKUliRKNS_14PaneDescriptorEE_clEiS8_
FNDA:2,app.cpp:_ZNK6draxul11HostManager13for_each_hostIZNS_3App9pump_onceENSt3__18optionalINS3_6chrono10time_pointINS5_12steady_clockENS5_8durationIxNS3_5ratioILl1ELl1000000000EEEEEEEEEE3$_0EEvOT_
FNDA:2,app.cpp:_ZZNK6draxul11HostManager13for_each_hostIZNS_3App9pump_onceENSt3__18optionalINS3_6chrono10time_pointINS5_12steady_clockENS5_8durationIxNS3_5ratioILl1ELl1000000000EEEEEEEEEE3$_0EEvOT_ENKUliRKNS_14PaneDescriptorEE_clEiSJ_
FNDA:0,app.cpp:_ZNK6draxul11HostManager13for_each_hostIZNS_3App12request_quitEvE3$_0EEvOT_
FNDA:0,app.cpp:_ZZNK6draxul11HostManager13for_each_hostIZNS_3App12request_quitEvE3$_0EEvOT_ENKUliRKNS_14PaneDescriptorEE_clEiS8_
FNDA:0,app.cpp:_ZNK6draxul11HostManager13for_each_hostIZNS_3App21dispatch_to_nvim_hostENSt3__117basic_string_viewIcNS3_11char_traitsIcEEEEE3$_0EEvOT_
FNDA:0,app.cpp:_ZZNK6draxul11HostManager13for_each_hostIZNS_3App21dispatch_to_nvim_hostENSt3__117basic_string_viewIcNS3_11char_traitsIcEEEEE3$_0EEvOT_ENKUliRKNS_14PaneDescriptorEE_clEiSD_
FNDA:0,app.cpp:_ZNK6draxul11HostManager13for_each_hostIZNKS_3App15wait_timeout_msENSt3__18optionalINS3_6chrono10time_pointINS5_12steady_clockENS5_8durationIxNS3_5ratioILl1ELl1000000000EEEEEEEEEE3$_0EEvOT_
FNDA:0,app.cpp:_ZZNK6draxul11HostManager13for_each_hostIZNKS_3App15wait_timeout_msENSt3__18optionalINS3_6chrono10time_pointINS5_12steady_clockENS5_8durationIxNS3_5ratioILl1ELl1000000000EEEEEEEEEE3$_0EEvOT_ENKUliRKNS_14PaneDescriptorEE_clEiSJ_
FNF:9
FNH:7
DA:93,4
DA:94,4
DA:95,4
DA:99,0
DA:100,0
DA:101,0
DA:108,49
DA:109,49
DA:110,49
DA:113,0
DA:114,0
DA:115,0
DA:132,11
DA:133,11
DA:134,11
DA:135,11
DA:136,11
DA:137,11
DA:138,11
DA:141,1
DA:142,1
DA:143,1
DA:145,2
DA:146,2
DA:147,2
DA:150,7
DA:151,7
DA:152,7
BRDA:135,0,0,1
BRDA:135,0,1,0
BRDA:135,1,2,1
BRDA:135,1,3,0
BRDA:135,2,4,1
BRDA:135,2,5,0
BRDA:135,3,6,1
BRDA:135,3,7,0
BRDA:135,4,8,5
BRDA:135,4,9,0
BRDA:135,5,10,5
BRDA:135,5,11,0
BRDA:135,6,12,2
BRDA:135,6,13,0
BRDA:135,7,14,2
BRDA:135,7,15,0
BRDA:135,8,16,2
BRDA:135,8,17,0
BRDA:135,9,18,2
BRDA:135,9,19,0
BRDA:135,10,20,-
BRDA:135,10,21,-
BRDA:135,11,22,-
BRDA:135,11,23,-
BRDA:135,12,24,-
BRDA:135,12,25,-
BRDA:135,13,26,-
BRDA:135,13,27,-
BRDA:135,14,28,-
BRDA:135,14,29,-
BRDA:135,15,30,-
BRDA:135,15,31,-
BRDA:135,16,32,1
BRDA:135,16,33,0
BRDA:135,17,34,1
BRDA:135,17,35,0
BRDA:135,18,36,5
BRDA:135,18,37,0
BRDA:135,19,38,2
BRDA:135,19,39,0
BRDA:135,20,40,2
BRDA:135,20,41,0
BRDA:135,21,42,-
BRDA:135,21,43,-
BRDA:135,22,44,-
BRDA:135,22,45,-
BRDA:135,23,46,-
BRDA:135,23,47,-
BRF:6
BRH:3
LF:33
LH:27
end_of_record
SF:/Users/runner/work/Draxul/Draxul/app/input_dispatcher.cpp
FN:18,_ZN6draxul15InputDispatcherC2ENS0_4DepsE
FN:26,_ZN6draxul15InputDispatcher18host_for_mouse_posEii
FN:69,_ZN6draxul15InputDispatcher12on_key_eventERKNS_8KeyEventE
FN:146,_ZN6draxul15InputDispatcher21on_mouse_button_eventERKNS_16MouseButtonEventE
FN:183,_ZN6draxul15InputDispatcher19on_mouse_move_eventERKNS_14MouseMoveEventE
FN:206,_ZN6draxul15InputDispatcher20on_mouse_wheel_eventERKNS_15MouseWheelEventE
FN:248,_ZN6draxul15InputDispatcher8set_hostEPNS_5IHostE
FN:255,_ZN6draxul15InputDispatcher7connectERNS_7IWindowE
FN:308,_ZNK6draxul15InputDispatcher24gui_action_for_key_eventERKNS_8KeyEventE
FN:44,input_dispatcher.cpp:_ZN6draxulL20is_modifier_only_keyERKNS_8KeyEventE
FN:63,_ZN6draxul29request_imgui_frame_if_neededINS_15InputDispatcher4DepsEEEvRKT_
FN:257,input_dispatcher.cpp:_ZZN6draxul15InputDispatcher7connectERNS_7IWindowEENK3$_0clERKNS_8KeyEventE
FN:259,input_dispatcher.cpp:_ZZN6draxul15InputDispatcher7connectERNS_7IWindowEENK3$_1clERKNS_14TextInputEventE
FN:281,input_dispatcher.cpp:_ZZN6draxul15InputDispatcher7connectERNS_7IWindowEENK3$_2clERKNS_16TextEditingEventE
FN:287,input_dispatcher.cpp:_ZZN6draxul15InputDispatcher7connectERNS_7IWindowEENK3$_3clERKNS_16MouseButtonEventE
FN:288,input_dispatcher.cpp:_ZZN6draxul15InputDispatcher7connectERNS_7IWindowEENK3$_4clERKNS_14MouseMoveEventE
FN:289,input_dispatcher.cpp:_ZZN6draxul15InputDispatcher7connectERNS_7IWindowEENK3$_5clERKNS_15MouseWheelEventE
FN:291,input_dispatcher.cpp:_ZZN6draxul15InputDispatcher7connectERNS_7IWindowEENK3$_6clERKNS_17WindowResizeEventE
FN:296,input_dispatcher.cpp:_ZZN6draxul15InputDispatcher7connectERNS_7IWindowEENK3$_7clERKNS_17DisplayScaleEventE
FN:301,input_dispatcher.cpp:_ZZN6draxul15InputDispatcher7connectERNS_7IWindowEENK3$_8clENSt3__117basic_string_viewIcNS4_11char_traitsIcEEEE
FNDA:78,_ZN6draxul15InputDispatcherC2ENS0_4DepsE
FNDA:3,_ZN6draxul15InputDispatcher18host_for_mouse_posEii
FNDA:4,_ZN6draxul15InputDispatcher12on_key_eventERKNS_8KeyEventE
FNDA:2,_ZN6draxul15InputDispatcher21on_mouse_button_eventERKNS_16MouseButtonEventE
FNDA:0,_ZN6draxul15InputDispatcher19on_mouse_move_eventERKNS_14MouseMoveEventE
FNDA:1,_ZN6draxul15InputDispatcher20on_mouse_wheel_eventERKNS_15MouseWheelEventE
FNDA:5,_ZN6draxul15InputDispatcher8set_hostEPNS_5IHostE
FNDA:18,_ZN6draxul15InputDispatcher7connectERNS_7IWindowE
FNDA:13,_ZNK6draxul15InputDispatcher24gui_action_for_key_eventERKNS_8KeyEventE
FNDA:0,input_dispatcher.cpp:_ZN6draxulL20is_modifier_only_keyERKNS_8KeyEventE
FNDA:4,_ZN6draxul29request_imgui_frame_if_neededINS_15InputDispatcher4DepsEEEvRKT_
FNDA:4,input_dispatcher.cpp:_ZZN6draxul15InputDispatcher7connectERNS_7IWindowEENK3$_0clERKNS_8KeyEventE
FNDA:1,input_dispatcher.cpp:_ZZN6draxul15InputDispatcher7connectERNS_7IWindowEENK3$_1clERKNS_14TextInputEventE
FNDA:1,input_dispatcher.cpp:_ZZN6draxul15InputDispatcher7connectERNS_7IWindowEENK3$_2clERKNS_16TextEditingEventE
FNDA:2,input_dispatcher.cpp:_ZZN6draxul15InputDispatcher7connectERNS_7IWindowEENK3$_3clERKNS_16MouseButtonEventE
FNDA:0,input_dispatcher.cpp:_ZZN6draxul15InputDispatcher7connectERNS_7IWindowEENK3$_4clERKNS_14MouseMoveEventE
FNDA:1,input_dispatcher.cpp:_ZZN6draxul15InputDispatcher7connectERNS_7IWindowEENK3$_5clERKNS_15MouseWheelEventE
FNDA:0,input_dispatcher.cpp:_ZZN6draxul15InputDispatcher7connectERNS_7IWindowEENK3$_6clERKNS_17WindowResizeEventE
FNDA:1,input_dispatcher.cpp:_ZZN6draxul15InputDispatcher7connectERNS_7IWindowEENK3$_7clERKNS_17DisplayScaleEventE
FNDA:2,input_dispatcher.cpp:_ZZN6draxul15InputDispatcher7connectERNS_7IWindowEENK3$_8clENSt3__117basic_string_viewIcNS4_11char_traitsIcEEEE
FNF:20
FNH:16
DA:18,78
DA:19,78
DA:20,78
DA:26,3
DA:27,3
DA:28,3
DA:29,3
DA:30,0
DA:31,0
DA:32,0
DA:33,0
DA:34,0
DA:35,0
DA:36,0
DA:37,0
DA:38,0
DA:39,0
DA:40,3
DA:41,3
DA:44,0
DA:45,0
DA:46,0
DA:47,0
DA:48,0
DA:49,0
DA:50,0
DA:51,0
DA:52,0
DA:53,0
DA:54,0
DA:55,0
DA:56,0
DA:57,0
DA:58,0
DA:59,0
DA:63,4
DA:64,4
DA:65,0
DA:66,4
DA:69,4
DA:70,4
DA:73,4
DA:74,1
DA:75,1
DA:76,0
DA:77,0
DA:78,0
DA:79,0
DA:80,0
DA:81,0
DA:82,1
DA:84,4
DA:85,3
DA:86,3
DA:87,0
DA:90,0
DA:91,0
DA:92,0
DA:93,0
DA:94,0
DA:95,0
DA:97,0
DA:98,0
DA:99,0
DA:100,0
DA:101,0
DA:102,0
DA:103,0
DA:104,0
DA:105,0
DA:106,0
DA:107,0
DA:108,0
DA:109,0
DA:111,0
DA:112,3
DA:113,3
DA:115,3
DA:116,3
DA:117,3
DA:118,40
DA:119,40
DA:120,0
DA:121,0
DA:122,0
DA:123,0
DA:124,40
DA:125,3
DA:127,3
DA:128,3
DA:129,2
DA:130,3
DA:131,3
DA:132,1
DA:133,1
DA:138,1
DA:139,2
DA:140,2
DA:141,2
DA:142,2
DA:143,2
DA:146,2
DA:147,2
DA:150,2
DA:151,0
DA:152,0
DA:153,0
DA:154,0
DA:155,0
DA:156,0
DA:157,0
DA:158,0
DA:159,0
DA:161,2
DA:162,2
DA:163,2
DA:164,0
DA:165,2
DA:166,0
DA:167,2
DA:168,0
DA:169,0
DA:170,0
DA:171,2
DA:172,2
DA:175,2
DA:176,2
DA:177,2
DA:178,2
DA:179,2
DA:180,2
DA:183,0
DA:184,0
DA:185,0
DA:186,0
DA:187,0
DA:188,0
DA:189,0
DA:190,0
DA:191,0
DA:192,0
DA:193,0
DA:194,0
DA:195,0
DA:196,0
DA:197,0
DA:198,0
DA:199,0
DA:200,0
DA:201,0
DA:202,0
DA:203,0
DA:206,1
DA:207,1
DA:208,1
DA:209,1
DA:210,1
DA:211,0
DA:212,1
DA:213,0
DA:214,1
DA:215,0
DA:216,1
DA:217,0
DA:220,1
DA:221,1
DA:222,1
DA:224,1
DA:225,0
DA:226,0
DA:227,0
DA:228,0
DA:229,0
DA:230,0
DA:231,0
DA:232,0
DA:233,0
DA:234,0
DA:235,0
DA:236,0
DA:237,0
DA:238,0
DA:239,0
DA:240,1
DA:241,1
DA:242,1
DA:243,1
DA:244,1
DA:245,1
DA:248,5
DA:249,5
DA:250,1
DA:251,5
DA:252,5
DA:255,18
DA:256,18
DA:257,18
DA:259,18
DA:260,1
DA:261,0
DA:262,0
DA:263,0
DA:264,0
DA:266,1
DA:267,0
DA:268,0
DA:269,0
DA:270,0
DA:271,0
DA:272,0
DA:273,0
DA:274,0
DA:275,1
DA:276,1
DA:277,1
DA:278,1
DA:279,1
DA:281,18
DA:282,1
DA:283,1
DA:284,1
DA:285,1
DA:287,18
DA:288,18
DA:289,18
DA:291,18
DA:292,0
DA:293,0
DA:294,0
DA:296,18
DA:297,1
DA:298,1
DA:299,1
DA:301,18
DA:302,2
DA:303,2
DA:304,2
DA:305,18
DA:308,13
DA:309,13
DA:310,13
DA:311,1
DA:312,12
DA:313,59
DA:315,59
DA:316,22
DA:317,37
DA:318,6
DA:319,37
DA:320,6
DA:321,12
BRDA:28,0,0,0
BRDA:28,0,1,3
BRDA:29,0,0,0
BRDA:29,0,1,3
BRDA:34,0,0,-
BRDA:34,0,1,-
BRDA:47,0,0,-
BRDA:47,0,1,-
BRDA:48,0,0,-
BRDA:48,0,1,-
BRDA:49,0,0,-
BRDA:49,0,1,-
BRDA:50,0,0,-
BRDA:50,0,1,-
BRDA:51,0,0,-
BRDA:51,0,1,-
BRDA:52,0,0,-
BRDA:52,0,1,-
BRDA:53,0,0,-
BRDA:53,0,1,-
BRDA:54,0,0,-
BRDA:54,0,1,-
BRDA:56,0,0,-
BRDA:56,0,1,-
BRDA:64,0,0,0
BRDA:64,0,1,4
BRDA:64,1,2,-
BRDA:64,1,3,-
BRDA:73,0,0,1
BRDA:73,0,1,3
BRDA:75,0,0,0
BRDA:75,0,1,1
BRDA:84,0,0,3
BRDA:84,0,1,1
BRDA:86,0,0,0
BRDA:86,0,1,3
BRDA:90,0,0,-
BRDA:90,0,1,-
BRDA:98,0,0,-
BRDA:98,0,1,-
BRDA:98,1,2,-
BRDA:98,1,3,-
BRDA:100,0,0,-
BRDA:100,0,1,-
BRDA:102,0,0,-
BRDA:102,0,1,-
BRDA:102,1,2,-
BRDA:102,1,3,-
BRDA:115,0,0,3
BRDA:115,0,1,0
BRDA:117,0,0,40
BRDA:117,0,1,3
BRDA:119,0,0,0
BRDA:119,0,1,40
BRDA:128,0,0,2
BRDA:128,0,1,1
BRDA:128,1,2,2
BRDA:128,1,3,0
BRDA:128,2,4,2
BRDA:128,2,5,0
BRDA:141,0,0,2
BRDA:141,0,1,0
BRDA:141,1,2,2
BRDA:141,1,3,0
BRDA:150,0,0,2
BRDA:150,0,1,0
BRDA:150,1,2,0
BRDA:150,1,3,2
BRDA:150,2,4,-
BRDA:150,2,5,-
BRDA:154,0,0,-
BRDA:154,0,1,-
BRDA:163,0,0,0
BRDA:163,0,1,2
BRDA:163,1,2,-
BRDA:163,1,3,-
BRDA:165,0,0,0
BRDA:165,0,1,2
BRDA:167,0,0,0
BRDA:167,0,1,2
BRDA:171,0,0,2
BRDA:171,0,1,0
BRDA:187,0,0,-
BRDA:187,0,1,-
BRDA:187,1,2,-
BRDA:187,1,3,-
BRDA:189,0,0,-
BRDA:189,0,1,-
BRDA:191,0,0,-
BRDA:191,0,1,-
BRDA:195,0,0,-
BRDA:195,0,1,-
BRDA:210,0,0,0
BRDA:210,0,1,1
BRDA:210,1,2,-
BRDA:210,1,3,-
BRDA:212,0,0,0
BRDA:212,0,1,1
BRDA:214,0,0,0
BRDA:214,0,1,1
BRDA:216,0,0,0
BRDA:216,0,1,1
BRDA:224,0,0,0
BRDA:224,0,1,1
BRDA:224,1,2,-
BRDA:224,1,3,-
BRDA:228,0,0,-
BRDA:228,0,1,-
BRDA:230,0,0,-
BRDA:230,0,1,-
BRDA:237,0,0,-
BRDA:237,0,1,-
BRDA:249,0,0,5
BRDA:249,0,1,0
BRDA:249,1,2,1
BRDA:249,1,3,4
BRDA:260,0,0,0
BRDA:260,0,1,1
BRDA:266,0,0,0
BRDA:266,0,1,1
BRDA:268,0,0,-
BRDA:268,0,1,-
BRDA:277,0,0,1
BRDA:277,0,1,0
BRDA:277,1,2,1
BRDA:277,1,3,0
BRDA:283,0,0,1
BRDA:283,0,1,0
BRDA:292,0,0,-
BRDA:292,0,1,-
BRDA:297,0,0,1
BRDA:297,0,1,0
BRDA:302,0,0,2
BRDA:302,0,1,0
BRDA:310,0,0,1
BRDA:310,0,1,12
BRDA:312,0,0,59
BRDA:312,0,1,6
BRDA:315,0,0,22
BRDA:315,0,1,37
BRDA:317,0,0,6
BRDA:317,0,1,31
BRF:142
BRH:48
LF:292
LH:163
end_of_record
SF:/Users/runner/work/Draxul/Draxul/app/input_dispatcher.h
FN:73,_ZN6draxul15InputDispatcher15set_pixel_scaleENS_10PixelScaleE
FN:78,_ZN6draxul15InputDispatcher17set_scroll_configEbf
FN:90,_ZNK6draxul15InputDispatcher15scroll_fractionEv
FN:96,_ZNK6draxul15InputDispatcher16had_scroll_eventEv
FN:104,_ZN6draxul15InputDispatcher18clear_scroll_eventEv
FNDA:26,_ZN6draxul15InputDispatcher15set_pixel_scaleENS_10PixelScaleE
FNDA:1,_ZN6draxul15InputDispatcher17set_scroll_configEbf
FNDA:2,_ZNK6draxul15InputDispatcher15scroll_fractionEv
FNDA:0,_ZNK6draxul15InputDispatcher16had_scroll_eventEv
FNDA:2,_ZN6draxul15InputDispatcher18clear_scroll_eventEv
FNF:5
FNH:4
DA:73,26
DA:74,26
DA:75,26
DA:78,1
DA:79,1
DA:80,1
DA:81,1
DA:90,2
DA:91,2
DA:92,2
DA:96,0
DA:97,0
DA:98,0
DA:104,2
DA:105,2
DA:106,2
BRDA:91,0,0,0
BRDA:91,0,1,2
BRF:2
BRH:1
LF:16
LH:13
end_of_record
SF:/Users/runner/work/Draxul/Draxul/app/macos_menu.mm
FN:18,macos_menu.mm:-[DraxulMenuAction perform:]
FN:50,_ZN6draxul9MacOsMenu18default_menu_itemsEv
FN:79,_ZN6draxul9MacOsMenuC2ERNS_16GuiActionHandlerE
FN:133,macos_menu.mm:___ZN6draxul9MacOsMenuC2ERNS_16GuiActionHandlerE_block_invoke
FN:148,_ZN6draxul9MacOsMenuD2Ev
FN:36,_ZN6draxul9MacOsMenu4Impl9make_itemEP8NSStringS3_mU13block_pointerFvvE
FNDA:0,macos_menu.mm:-[DraxulMenuAction perform:]
FNDA:7,_ZN6draxul9MacOsMenu18default_menu_itemsEv
FNDA:7,_ZN6draxul9MacOsMenuC2ERNS_16GuiActionHandlerE
FNDA:0,macos_menu.mm:___ZN6draxul9MacOsMenuC2ERNS_16GuiActionHandlerE_block_invoke
FNDA:7,_ZN6draxul9MacOsMenuD2Ev
FNDA:70,_ZN6draxul9MacOsMenu4Impl9make_itemEP8NSStringS3_mU13block_pointerFvvE
FNF:6
FNH:4
DA:18,0
DA:19,0
DA:20,0
DA:36,70
DA:37,70
DA:38,70
DA:39,70
DA:40,70
DA:41,70
DA:42,70
DA:43,70
DA:44,70
DA:45,70
DA:46,70
DA:50,7
DA:51,7
DA:54,7
DA:55,7
DA:57,7
DA:59,7
DA:62,7
DA:63,7
DA:66,7
DA:67,7
DA:68,7
DA:69,7
DA:70,7
DA:71,7
DA:72,7
DA:73,7
DA:74,7
DA:75,7
DA:76,7
DA:79,7
DA:80,7
DA:81,7
DA:82,7
DA:84,7
DA:85,7
DA:86,7
DA:89,7
DA:90,7
DA:91,7
DA:92,7
DA:93,7
DA:94,7
DA:95,7
DA:96,7
DA:97,7
DA:98,7
DA:99,7
DA:102,7
DA:105,7
DA:106,7
DA:108,7
DA:109,84
DA:110,84
DA:111,84
DA:112,21
DA:113,21
DA:114,21
DA:115,21
DA:116,21
DA:118,84
DA:121,84
DA:122,14
DA:123,14
DA:124,14
DA:125,14
DA:127,70
DA:128,70
DA:129,70
DA:132,70
DA:133,70
DA:134,0
DA:135,0
DA:136,70
DA:139,7
DA:140,21
DA:141,21
DA:142,21
DA:143,21
DA:144,21
DA:145,7
DA:148,7
DA:149,7
DA:150,7
DA:151,7
DA:153,7
DA:154,7
DA:155,7
DA:157,7
BRDA:108,0,0,84
BRDA:108,0,1,7
BRDA:111,0,0,21
BRDA:111,0,1,63
BRDA:121,0,0,14
BRDA:121,0,1,70
BRDA:139,0,0,21
BRDA:139,0,1,7
BRDA:150,0,0,7
BRDA:150,0,1,0
BRDA:150,1,2,7
BRDA:150,1,3,0
BRF:12
BRH:10
LF:95
LH:89
end_of_record
SF:/Users/runner/work/Draxul/Draxul/app/split_tree.cpp
FN:62,_ZN6draxul9SplitTreeC2Ev
FN:63,_ZN6draxul9SplitTreeD2Ev
FN:64,_ZN6draxul9SplitTreeC2EOS0_
FN:65,_ZN6draxul9SplitTreeaSEOS0_
FN:71,_ZN6draxul9SplitTree5resetEii
FN:84,_ZN6draxul9SplitTree10split_leafEiNS_14SplitDirectionE
FN:113,_ZN6draxul9SplitTree10close_leafEi
FN:164,_ZN6draxul9SplitTree9recomputeEii
FN:169,_ZN6draxul9SplitTree9recomputeEiiii
FN:180,_ZNK6draxul9SplitTree8hit_testEii
FN:188,_ZN6draxul9SplitTree17set_divider_ratioEif
FN:207,_ZN6draxul9SplitTree11set_focusedEi
FN:214,_ZNK6draxul9SplitTree14descriptor_forEi
FN:223,_ZNK6draxul9SplitTree13for_each_leafERKNSt3__18functionIFviRKNS_14PaneDescriptorEEEE
FN:230,_ZNK6draxul9SplitTree10leaf_countEv
FN:239,_ZNK6draxul9SplitTree14find_leaf_nodeEi
FN:254,_ZN6draxul9SplitTree14find_leaf_nodeEi
FN:269,_ZNK6draxul9SplitTree17find_divider_nodeEi
FN:284,_ZN6draxul9SplitTree17find_divider_nodeEi
FN:299,_ZNK6draxul9SplitTree14find_parent_ofEPKNS0_4NodeE
FN:314,_ZN6draxul9SplitTree14find_parent_ofEPKNS0_4NodeE
FN:329,_ZN6draxul9SplitTree14recompute_nodeEPNS0_4NodeEiiiii
FN:369,_ZN6draxul9SplitTree13hit_test_nodeEPKNS0_4NodeEiii
FN:396,_ZN6draxul9SplitTree12visit_leavesEPKNS0_4NodeERKNSt3__18functionIFviRKNS_14PaneDescriptorEEEE
FN:409,_ZN6draxul9SplitTree12count_leavesEPKNS0_4NodeE
FN:418,_ZN6draxul9SplitTree10first_leafEPKNS0_4NodeE
FN:427,_ZN6draxul9SplitTree11swap_leavesEii
FN:448,_ZNK6draxul9SplitTree15next_leaf_afterEi
FN:465,_ZN6draxul9SplitTree9last_leafEPKNS0_4NodeE
FN:474,_ZNK6draxul9SplitTree13find_neighborEiNS_14FocusDirectionE
FN:517,_ZNK6draxul9SplitTree16for_each_dividerERKNSt3__18functionIFvRKNS0_11DividerRectEEEE
FN:42,_ZN6draxul9SplitTree4Node4leafEv
FN:38,_ZNK6draxul9SplitTree4Node7is_leafEv
FN:50,_ZN6draxul9SplitTree4Node5splitEv
FN:46,_ZNK6draxul9SplitTree4Node4leafEv
FN:54,_ZNK6draxul9SplitTree4Node5splitEv
FN:240,split_tree.cpp:_ZZNK6draxul9SplitTree14find_leaf_nodeEiENK3$_0clEPKNS0_4NodeE
FN:255,split_tree.cpp:_ZZN6draxul9SplitTree14find_leaf_nodeEiENK3$_0clEPNS0_4NodeE
FN:270,split_tree.cpp:_ZZNK6draxul9SplitTree17find_divider_nodeEiENK3$_0clEPKNS0_4NodeE
FN:285,split_tree.cpp:_ZZN6draxul9SplitTree17find_divider_nodeEiENK3$_0clEPNS0_4NodeE
FN:300,split_tree.cpp:_ZZNK6draxul9SplitTree14find_parent_ofEPKNS0_4NodeEENK3$_0clES3_
FN:315,split_tree.cpp:_ZZN6draxul9SplitTree14find_parent_ofEPKNS0_4NodeEENK3$_0clEPS1_
FN:454,split_tree.cpp:_ZZNK6draxul9SplitTree15next_leaf_afterEiENK3$_0clEiRKNS_14PaneDescriptorE
FN:518,split_tree.cpp:_ZZNK6draxul9SplitTree16for_each_dividerERKNSt3__18functionIFvRKNS0_11DividerRectEEEEENK3$_0clEPKNS0_4NodeE
FNDA:48,_ZN6draxul9SplitTreeC2Ev
FNDA:48,_ZN6draxul9SplitTreeD2Ev
FNDA:0,_ZN6draxul9SplitTreeC2EOS0_
FNDA:0,_ZN6draxul9SplitTreeaSEOS0_
FNDA:48,_ZN6draxul9SplitTree5resetEii
FNDA:141,_ZN6draxul9SplitTree10split_leafEiNS_14SplitDirectionE
FNDA:9,_ZN6draxul9SplitTree10close_leafEi
FNDA:4,_ZN6draxul9SplitTree9recomputeEii
FNDA:155,_ZN6draxul9SplitTree9recomputeEiiii
FNDA:11,_ZNK6draxul9SplitTree8hit_testEii
FNDA:4,_ZN6draxul9SplitTree17set_divider_ratioEif
FNDA:5,_ZN6draxul9SplitTree11set_focusedEi
FNDA:52,_ZNK6draxul9SplitTree14descriptor_forEi
FNDA:21,_ZNK6draxul9SplitTree13for_each_leafERKNSt3__18functionIFviRKNS_14PaneDescriptorEEEE
FNDA:29,_ZNK6draxul9SplitTree10leaf_countEv
FNDA:52,_ZNK6draxul9SplitTree14find_leaf_nodeEi
FNDA:153,_ZN6draxul9SplitTree14find_leaf_nodeEi
FNDA:0,_ZNK6draxul9SplitTree17find_divider_nodeEi
FNDA:4,_ZN6draxul9SplitTree17find_divider_nodeEi
FNDA:0,_ZNK6draxul9SplitTree14find_parent_ofEPKNS0_4NodeE
FNDA:8,_ZN6draxul9SplitTree14find_parent_ofEPKNS0_4NodeE
FNDA:10603,_ZN6draxul9SplitTree14recompute_nodeEPNS0_4NodeEiiiii
FNDA:25,_ZN6draxul9SplitTree13hit_test_nodeEPKNS0_4NodeEiii
FNDA:259,_ZN6draxul9SplitTree12visit_leavesEPKNS0_4NodeERKNSt3__18functionIFviRKNS_14PaneDescriptorEEEE
FNDA:279,_ZN6draxul9SplitTree12count_leavesEPKNS0_4NodeE
FNDA:3,_ZN6draxul9SplitTree10first_leafEPKNS0_4NodeE
FNDA:0,_ZN6draxul9SplitTree11swap_leavesEii
FNDA:0,_ZNK6draxul9SplitTree15next_leaf_afterEi
FNDA:0,_ZN6draxul9SplitTree9last_leafEPKNS0_4NodeE
FNDA:0,_ZNK6draxul9SplitTree13find_neighborEiNS_14FocusDirectionE
FNDA:0,_ZNK6draxul9SplitTree16for_each_dividerERKNSt3__18functionIFvRKNS0_11DividerRectEEEE
FNDA:5692,_ZN6draxul9SplitTree4Node4leafEv
FNDA:16460,_ZNK6draxul9SplitTree4Node7is_leafEv
FNDA:10232,_ZN6draxul9SplitTree4Node5splitEv
FNDA:418,_ZNK6draxul9SplitTree4Node4leafEv
FNDA:542,_ZNK6draxul9SplitTree4Node5splitEv
FNDA:108,split_tree.cpp:_ZZNK6draxul9SplitTree14find_leaf_nodeEiENK3$_0clEPKNS0_4NodeE
FNDA:5158,split_tree.cpp:_ZZN6draxul9SplitTree14find_leaf_nodeEiENK3$_0clEPNS0_4NodeE
FNDA:0,split_tree.cpp:_ZZNK6draxul9SplitTree17find_divider_nodeEiENK3$_0clEPKNS0_4NodeE
FNDA:4,split_tree.cpp:_ZZN6draxul9SplitTree17find_divider_nodeEiENK3$_0clEPNS0_4NodeE
FNDA:0,split_tree.cpp:_ZZNK6draxul9SplitTree14find_parent_ofEPKNS0_4NodeEENK3$_0clES3_
FNDA:10,split_tree.cpp:_ZZN6draxul9SplitTree14find_parent_ofEPKNS0_4NodeEENK3$_0clEPS1_
FNDA:0,split_tree.cpp:_ZZNK6draxul9SplitTree15next_leaf_afterEiENK3$_0clEiRKNS_14PaneDescriptorE
FNDA:0,split_tree.cpp:_ZZNK6draxul9SplitTree16for_each_dividerERKNSt3__18functionIFvRKNS0_11DividerRectEEEEENK3$_0clEPKNS0_4NodeE
FNF:44
FNH:31
DA:38,16460
DA:39,16460
DA:40,16460
DA:42,5692
DA:43,5692
DA:44,5692
DA:46,418
DA:47,418
DA:48,418
DA:50,10232
DA:51,10232
DA:52,10232
DA:54,542
DA:55,542
DA:56,542
DA:62,48
DA:63,48
DA:64,0
DA:65,0
DA:71,48
DA:72,48
DA:73,48
DA:74,48
DA:75,48
DA:76,48
DA:77,48
DA:78,48
DA:79,48
DA:80,48
DA:81,48
DA:84,141
DA:85,141
DA:86,141
DA:87,141
DA:88,1
DA:90,140
DA:91,140
DA:92,140
DA:94,140
DA:95,140
DA:97,140
DA:98,140
DA:100,140
DA:101,140
DA:102,140
DA:103,140
DA:104,140
DA:105,140
DA:106,140
DA:108,140
DA:109,140
DA:110,141
DA:113,9
DA:114,9
DA:115,9
DA:116,2
DA:118,7
DA:119,7
DA:120,0
DA:122,7
DA:123,7
DA:124,0
DA:126,7
DA:127,7
DA:130,7
DA:131,7
DA:132,3
DA:133,3
DA:134,3
DA:135,3
DA:138,7
DA:141,7
DA:142,6
DA:143,6
DA:144,6
DA:145,1
DA:146,1
DA:147,1
DA:148,1
DA:149,1
DA:150,1
DA:151,1
DA:152,0
DA:153,1
DA:154,1
DA:155,1
DA:156,1
DA:158,7
DA:159,7
DA:160,7
DA:161,7
DA:164,4
DA:165,4
DA:166,4
DA:169,155
DA:170,155
DA:171,155
DA:172,155
DA:173,155
DA:174,155
DA:175,155
DA:176,155
DA:177,155
DA:180,11
DA:181,11
DA:182,11
DA:183,0
DA:184,11
DA:185,11
DA:188,4
DA:189,4
DA:190,4
DA:191,0
DA:193,4
DA:194,1
DA:195,1
DA:196,1
DA:197,1
DA:198,1
DA:199,3
DA:200,0
DA:201,3
DA:202,3
DA:203,3
DA:204,3
DA:207,5
DA:208,5
DA:209,5
DA:210,5
DA:211,5
DA:214,52
DA:215,52
DA:216,52
DA:217,51
DA:218,1
DA:219,52
DA:223,21
DA:224,21
DA:225,21
DA:226,21
DA:227,21
DA:230,29
DA:231,29
DA:232,29
DA:233,29
DA:239,52
DA:240,108
DA:241,108
DA:242,0
DA:243,108
DA:244,71
DA:245,37
DA:246,37
DA:247,18
DA:248,19
DA:249,37
DA:250,52
DA:251,52
DA:254,153
DA:255,5158
DA:256,5158
DA:257,0
DA:258,5158
DA:259,173
DA:260,4985
DA:261,4985
DA:262,4965
DA:263,20
DA:264,4985
DA:265,153
DA:266,153
DA:269,0
DA:270,0
DA:271,0
DA:272,0
DA:273,0
DA:274,0
DA:275,0
DA:276,0
DA:277,0
DA:278,0
DA:279,0
DA:280,0
DA:281,0
DA:284,4
DA:285,4
DA:286,4
DA:287,1
DA:288,3
DA:289,3
DA:290,3
DA:291,0
DA:292,0
DA:293,0
DA:294,0
DA:295,4
DA:296,4
DA:299,0
DA:300,0
DA:301,0
DA:302,0
DA:303,0
DA:304,0
DA:305,0
DA:306,0
DA:307,0
DA:308,0
DA:309,0
DA:310,0
DA:311,0
DA:314,8
DA:315,10
DA:316,10
DA:317,1
DA:318,9
DA:319,9
DA:320,8
DA:321,1
DA:322,0
DA:323,1
DA:324,1
DA:325,8
DA:326,8
DA:329,10603
DA:330,10603
DA:331,0
DA:333,10603
DA:334,5379
DA:335,5379
DA:336,5379
DA:337,5379
DA:339,5224
DA:340,5224
DA:341,5210
DA:342,5210
DA:343,5210
DA:344,5210
DA:345,5210
DA:346,5210
DA:347,5210
DA:348,5210
DA:349,5210
DA:350,5210
DA:351,5210
DA:352,5210
DA:353,14
DA:354,14
DA:355,14
DA:356,14
DA:357,14
DA:358,14
DA:359,14
DA:360,14
DA:361,14
DA:362,14
DA:363,14
DA:364,14
DA:365,14
DA:366,5224
DA:369,25
DA:370,25
DA:371,0
DA:373,25
DA:374,8
DA:375,8
DA:376,8
DA:377,8
DA:378,5
DA:379,3
DA:380,8
DA:382,17
DA:384,17
DA:385,5
DA:388,12
DA:389,12
DA:390,10
DA:391,2
DA:392,12
DA:396,259
DA:397,259
DA:398,0
DA:399,259
DA:400,140
DA:401,140
DA:402,140
DA:403,140
DA:404,119
DA:405,119
DA:406,119
DA:409,279
DA:410,279
DA:411,0
DA:412,279
DA:413,154
DA:414,125
DA:415,279
DA:418,3
DA:419,3
DA:420,0
DA:421,3
DA:422,3
DA:423,0
DA:424,3
DA:427,0
DA:428,0
DA:429,0
DA:430,0
DA:431,0
DA:432,0
DA:433,0
DA:436,0
DA:439,0
DA:440,0
DA:441,0
DA:442,0
DA:444,0
DA:445,0
DA:448,0
DA:449,0
DA:450,0
DA:453,0
DA:454,0
DA:456,0
DA:457,0
DA:458,0
DA:459,0
DA:460,0
DA:461,0
DA:462,0
DA:465,0
DA:466,0
DA:467,0
DA:468,0
DA:469,0
DA:470,0
DA:471,0
DA:474,0
DA:475,0
DA:476,0
DA:477,0
DA:478,0
DA:482,0
DA:483,0
DA:484,0
DA:486,0
DA:491,0
DA:492,0
DA:493,0
DA:494,0
DA:495,0
DA:496,0
DA:497,0
DA:498,0
DA:499,0
DA:500,0
DA:503,0
DA:504,0
DA:505,0
DA:506,0
DA:507,0
DA:508,0
DA:509,0
DA:510,0
DA:511,0
DA:513,0
DA:514,0
DA:517,0
DA:518,0
DA:519,0
DA:520,0
DA:521,0
DA:522,0
DA:523,0
DA:524,0
DA:525,0
DA:526,0
DA:527,0
DA:528,0
DA:529,0
DA:530,0
DA:531,0
DA:532,0
DA:533,0
BRDA:87,0,0,1
BRDA:87,0,1,140
BRDA:115,0,0,2
BRDA:115,0,1,7
BRDA:119,0,0,0
BRDA:119,0,1,7
BRDA:123,0,0,0
BRDA:123,0,1,7
BRDA:123,1,2,0
BRDA:123,1,3,7
BRDA:131,0,0,3
BRDA:131,0,1,4
BRDA:133,0,0,0
BRDA:133,0,1,3
BRDA:138,0,0,1
BRDA:138,0,1,6
BRDA:141,0,0,6
BRDA:141,0,1,1
BRDA:148,0,0,1
BRDA:148,0,1,0
BRDA:148,1,2,1
BRDA:148,1,3,0
BRDA:151,0,0,0
BRDA:151,0,1,1
BRDA:175,0,0,155
BRDA:175,0,1,0
BRDA:182,0,0,0
BRDA:182,0,1,11
BRDA:190,0,0,0
BRDA:190,0,1,4
BRDA:193,0,0,1
BRDA:193,0,1,3
BRDA:199,0,0,0
BRDA:199,0,1,3
BRDA:209,0,0,5
BRDA:209,0,1,0
BRDA:216,0,0,51
BRDA:216,0,1,1
BRDA:225,0,0,21
BRDA:225,0,1,0
BRDA:232,0,0,29
BRDA:232,0,1,0
BRDA:241,0,0,0
BRDA:241,0,1,108
BRDA:243,0,0,71
BRDA:243,0,1,37
BRDA:244,0,0,51
BRDA:244,0,1,20
BRDA:246,0,0,18
BRDA:246,0,1,19
BRDA:256,0,0,0
BRDA:256,0,1,5158
BRDA:258,0,0,173
BRDA:258,0,1,4985
BRDA:259,0,0,152
BRDA:259,0,1,21
BRDA:261,0,0,4965
BRDA:261,0,1,20
BRDA:271,0,0,-
BRDA:271,0,1,-
BRDA:271,1,2,-
BRDA:271,1,3,-
BRDA:274,0,0,-
BRDA:274,0,1,-
BRDA:276,0,0,-
BRDA:276,0,1,-
BRDA:286,0,0,0
BRDA:286,0,1,4
BRDA:286,1,2,1
BRDA:286,1,3,3
BRDA:289,0,0,3
BRDA:289,0,1,0
BRDA:291,0,0,-
BRDA:291,0,1,-
BRDA:301,0,0,-
BRDA:301,0,1,-
BRDA:301,1,2,-
BRDA:301,1,3,-
BRDA:304,0,0,-
BRDA:304,0,1,-
BRDA:304,1,2,-
BRDA:304,1,3,-
BRDA:306,0,0,-
BRDA:306,0,1,-
BRDA:316,0,0,0
BRDA:316,0,1,10
BRDA:316,1,2,1
BRDA:316,1,3,9
BRDA:319,0,0,1
BRDA:319,0,1,8
BRDA:319,1,2,7
BRDA:319,1,3,1
BRDA:321,0,0,0
BRDA:321,0,1,1
BRDA:330,0,0,0
BRDA:330,0,1,10603
BRDA:333,0,0,5379
BRDA:333,0,1,5224
BRDA:340,0,0,5210
BRDA:340,0,1,14
BRDA:370,0,0,0
BRDA:370,0,1,25
BRDA:373,0,0,8
BRDA:373,0,1,17
BRDA:376,0,0,8
BRDA:376,0,1,0
BRDA:376,1,2,5
BRDA:376,1,3,3
BRDA:376,2,4,5
BRDA:376,2,5,0
BRDA:377,0,0,5
BRDA:377,0,1,0
BRDA:384,0,0,7
BRDA:384,0,1,10
BRDA:384,1,2,5
BRDA:384,1,3,2
BRDA:384,2,4,5
BRDA:384,2,5,0
BRDA:384,3,6,5
BRDA:384,3,7,0
BRDA:389,0,0,10
BRDA:389,0,1,2
BRDA:397,0,0,0
BRDA:397,0,1,259
BRDA:399,0,0,140
BRDA:399,0,1,119
BRDA:410,0,0,0
BRDA:410,0,1,279
BRDA:412,0,0,154
BRDA:412,0,1,125
BRDA:419,0,0,0
BRDA:419,0,1,3
BRDA:421,0,0,3
BRDA:421,0,1,0
BRDA:428,0,0,-
BRDA:428,0,1,-
BRDA:432,0,0,-
BRDA:432,0,1,-
BRDA:432,1,2,-
BRDA:432,1,3,-
BRDA:439,0,0,-
BRDA:439,0,1,-
BRDA:441,0,0,-
BRDA:441,0,1,-
BRDA:449,0,0,-
BRDA:449,0,1,-
BRDA:456,0,0,-
BRDA:456,0,1,-
BRDA:458,0,0,-
BRDA:458,0,1,-
BRDA:466,0,0,-
BRDA:466,0,1,-
BRDA:468,0,0,-
BRDA:468,0,1,-
BRDA:477,0,0,-
BRDA:477,0,1,-
BRDA:482,0,0,-
BRDA:482,0,1,-
BRDA:482,1,2,-
BRDA:482,1,3,-
BRDA:486,0,0,-
BRDA:486,0,1,-
BRDA:486,1,2,-
BRDA:486,1,3,-
BRDA:493,0,0,-
BRDA:493,0,1,-
BRDA:495,0,0,-
BRDA:495,0,1,-
BRDA:498,0,0,-
BRDA:498,0,1,-
BRDA:503,0,0,-
BRDA:503,0,1,-
BRDA:503,1,2,-
BRDA:503,1,3,-
BRDA:505,0,0,-
BRDA:505,0,1,-
BRDA:505,1,2,-
BRDA:505,1,3,-
BRDA:519,0,0,-
BRDA:519,0,1,-
BRDA:519,1,2,-
BRDA:519,1,3,-
BRF:182
BRH:83
LF:458
LH:296
end_of_record
SF:/Users/runner/work/Draxul/Draxul/app/split_tree.h
FN:94,_ZNK6draxul9SplitTree7focusedEv
FNDA:67,_ZNK6draxul9SplitTree7focusedEv
FNF:1
FNH:1
DA:94,67
DA:95,67
DA:96,67
BRF:0
BRH:0
LF:3
LH:3
end_of_record
SF:/Users/runner/work/Draxul/Draxul/app/workspace.h
FN:19,_ZN6draxul9WorkspaceC2EiNS_11HostManager4DepsE
FNDA:14,_ZN6draxul9WorkspaceC2EiNS_11HostManager4DepsE
FNF:1
FNH:1
DA:19,14
DA:20,14
DA:21,14
DA:22,14
BRF:0
BRH:0
LF:4
LH:4
end_of_record
SF:/Users/runner/work/Draxul/Draxul/libs/draxul-citydb/src/citydb.cpp
FN:862,_ZN6draxul12CityDatabaseC2Ev
FN:867,_ZN6draxul12CityDatabaseD2Ev
FN:872,_ZN6draxul12CityDatabaseC2EOS0_
FN:877,_ZN6draxul12CityDatabaseaSEOS0_
FN:888,_ZN6draxul12CityDatabase4openERKNSt3__14__fs10filesystem4pathE
FN:917,_ZN6draxul12CityDatabase5closeEv
FN:925,_ZNK6draxul12CityDatabase7is_openEv
FN:930,_ZNK6draxul12CityDatabase15schema_migratedEv
FN:935,_ZNK6draxul12CityDatabase4pathEv
FN:941,_ZNK6draxul12CityDatabase10last_errorEv
FN:947,_ZNK6draxul12CityDatabase5statsEv
FN:953,_ZN6draxul12CityDatabase18reconcile_snapshotERKNS_16CodebaseSnapshotE
FN:1287,_ZNK6draxul12CityDatabase12list_modulesEv
FN:1313,_ZNK6draxul12CityDatabase22list_classes_in_moduleENSt3__117basic_string_viewIcNS1_11char_traitsIcEEEE
FN:1361,_ZNK6draxul12CityDatabase33list_class_dependencies_in_moduleENSt3__117basic_string_viewIcNS1_11char_traitsIcEEEE
FN:1407,_ZNK6draxul12CityDatabase13module_recordENSt3__117basic_string_viewIcNS1_11char_traitsIcEEEE
FN:1442,_ZNK6draxul12CityDatabase15codebase_healthEv
FN:53,citydb.cpp:_ZN6draxul12_GLOBAL__N_18DbHandleC2Ev
FN:61,citydb.cpp:_ZN6draxul12_GLOBAL__N_18DbHandleD2Ev
FN:85,citydb.cpp:_ZN6draxul12_GLOBAL__N_18DbHandle4openERKNSt3__14__fs10filesystem4pathE
FN:36,citydb.cpp:_ZN6draxul12_GLOBAL__N_111SqliteErrorC2EiNSt3__112basic_stringIcNS2_11char_traitsIcEENS2_9allocatorIcEEEE
FN:316,citydb.cpp:_ZN6draxul12_GLOBAL__N_14execEP7sqlite3NSt3__117basic_string_viewIcNS3_11char_traitsIcEEEE
FN:113,citydb.cpp:_ZNK6draxul12_GLOBAL__N_18DbHandle3getEv
FN:813,citydb.cpp:_ZN6draxul12_GLOBAL__N_114migrate_schemaEP7sqlite3
FN:796,citydb.cpp:_ZN6draxul12_GLOBAL__N_116create_schema_v8EP7sqlite3
FN:789,citydb.cpp:_ZN6draxul12_GLOBAL__N_116create_schema_v7EP7sqlite3
FN:782,citydb.cpp:_ZN6draxul12_GLOBAL__N_116create_schema_v6EP7sqlite3
FN:741,citydb.cpp:_ZN6draxul12_GLOBAL__N_116create_schema_v5EP7sqlite3
FN:720,citydb.cpp:_ZN6draxul12_GLOBAL__N_116create_schema_v4EP7sqlite3
FN:646,citydb.cpp:_ZN6draxul12_GLOBAL__N_116create_schema_v2EP7sqlite3
FN:803,citydb.cpp:_ZN6draxul12_GLOBAL__N_130migrate_to_current_destructiveEP7sqlite3
FN:771,citydb.cpp:_ZN6draxul12_GLOBAL__N_115drop_all_tablesEP7sqlite3
FN:104,citydb.cpp:_ZN6draxul12_GLOBAL__N_18DbHandle5closeEv
FN:118,citydb.cpp:_ZNK6draxul12_GLOBAL__N_18DbHandlecvbEv
FN:535,citydb.cpp:_ZN6draxul12_GLOBAL__N_114make_symbol_idERKNSt3__112basic_stringIcNS1_11char_traitsIcEENS1_9allocatorIcEEEENS_10SymbolKindENS1_17basic_string_viewIcS4_EEj
FN:553,citydb.cpp:_ZN6draxul12_GLOBAL__N_129build_inheritance_descendantsERKNSt3__113unordered_mapINS1_12basic_stringIcNS1_11char_traitsIcEENS1_9allocatorIcEEEENS1_6vectorIS8_NS6_IS8_EEEENS1_4hashIS8_EENS1_8equal_toIS8_EENS6_INS1_4pairIKS8_SB_EEEEEESM_
FN:267,citydb.cpp:_ZN6draxul12_GLOBAL__N_111TransactionC2EP7sqlite3
FN:298,citydb.cpp:_ZN6draxul12_GLOBAL__N_111Transaction4execEPKc
FN:132,citydb.cpp:_ZN6draxul12_GLOBAL__N_19StatementC2EP7sqlite3NSt3__117basic_string_viewIcNS4_11char_traitsIcEEEE
FN:161,citydb.cpp:_ZN6draxul12_GLOBAL__N_19Statement7prepareEP7sqlite3NSt3__117basic_string_viewIcNS4_11char_traitsIcEEEE
FN:251,citydb.cpp:_ZN6draxul12_GLOBAL__N_19Statement5resetEv
FN:515,citydb.cpp:_ZN6draxul12_GLOBAL__N_120module_path_for_fileENSt3__117basic_string_viewIcNS1_11char_traitsIcEEEE
FN:239,citydb.cpp:_ZN6draxul12_GLOBAL__N_19Statement5reuseEv
FN:231,citydb.cpp:_ZN6draxul12_GLOBAL__N_19Statement10reset_stepEv
FN:223,citydb.cpp:_ZN6draxul12_GLOBAL__N_19Statement14clear_bindingsEv
FN:173,citydb.cpp:_ZN6draxul12_GLOBAL__N_19Statement9bind_textEiNSt3__117basic_string_viewIcNS2_11char_traitsIcEEEE
FN:182,citydb.cpp:_ZN6draxul12_GLOBAL__N_19Statement8bind_intEii
FN:190,citydb.cpp:_ZN6draxul12_GLOBAL__N_19Statement10bind_int64Eix
FN:215,citydb.cpp:_ZN6draxul12_GLOBAL__N_19Statement9step_doneEv
FN:611,citydb.cpp:_ZN6draxul12_GLOBAL__N_126resolve_dependency_targetsENSt3__117basic_string_viewIcNS1_11char_traitsIcEEEES5_RKNS1_13unordered_mapINS1_12basic_stringIcS4_NS1_9allocatorIcEEEENS1_6vectorISA_NS8_ISA_EEEENS1_4hashISA_EENS1_8equal_toISA_EENS8_INS1_4pairIKSA_SD_EEEEEESO_RKNS1_13unordered_setISA_SF_SH_SC_EE
FN:640,citydb.cpp:_ZZN6draxul12_GLOBAL__N_126resolve_dependency_targetsENSt3__117basic_string_viewIcNS1_11char_traitsIcEEEES5_RKNS1_13unordered_mapINS1_12basic_stringIcS4_NS1_9allocatorIcEEEENS1_6vectorISA_NS8_ISA_EEEENS1_4hashISA_EENS1_8equal_toISA_EENS8_INS1_4pairIKSA_SD_EEEEEESO_RKNS1_13unordered_setISA_SF_SH_SC_EEENK3$_0clERSJ_
FN:330,citydb.cpp:_ZN6draxul12_GLOBAL__N_116symbol_kind_nameENS_10SymbolKindE
FN:356,citydb.cpp:_ZN6draxul12_GLOBAL__N_114city_role_nameENS0_8CityRoleE
FN:385,citydb.cpp:_ZN6draxul12_GLOBAL__N_111entity_specENS0_8CityRoleEi
FN:405,citydb.cpp:_ZN6draxul12_GLOBAL__N_114json_int_arrayERKNSt3__16vectorIiNS1_9allocatorIiEEEE
FN:420,citydb.cpp:_ZN6draxul12_GLOBAL__N_117json_string_arrayERKNSt3__16vectorINS1_12basic_stringIcNS1_11char_traitsIcEENS1_9allocatorIcEEEENS6_IS8_EEEE
FN:198,citydb.cpp:_ZN6draxul12_GLOBAL__N_19Statement11bind_doubleEid
FN:542,citydb.cpp:_ZN6draxul12_GLOBAL__N_113make_field_idENSt3__117basic_string_viewIcNS1_11char_traitsIcEEEES5_m
FN:206,citydb.cpp:_ZN6draxul12_GLOBAL__N_19Statement4stepEv
FN:1201,citydb.cpp:_ZZN6draxul12CityDatabase18reconcile_snapshotERKNS_16CodebaseSnapshotEENK3$_0clEi
FN:245,citydb.cpp:_ZNK6draxul12_GLOBAL__N_19Statement3rawEv
FN:477,citydb.cpp:_ZN6draxul12_GLOBAL__N_120parse_json_int_arrayENSt3__117basic_string_viewIcNS1_11char_traitsIcEEEE
FN:137,citydb.cpp:_ZN6draxul12_GLOBAL__N_19StatementD2Ev
FN:288,citydb.cpp:_ZN6draxul12_GLOBAL__N_111Transaction6commitEv
FN:273,citydb.cpp:_ZN6draxul12_GLOBAL__N_111TransactionD2Ev
FN:1333,citydb.cpp:_ZZNK6draxul12CityDatabase22list_classes_in_moduleENSt3__117basic_string_viewIcNS1_11char_traitsIcEEEEENK3$_0clEi
FN:442,citydb.cpp:_ZN6draxul12_GLOBAL__N_123parse_json_string_arrayENSt3__117basic_string_viewIcNS1_11char_traitsIcEEEE
FN:1382,citydb.cpp:_ZZNK6draxul12CityDatabase33list_class_dependencies_in_moduleENSt3__117basic_string_viewIcNS1_11char_traitsIcEEEEENK3$_0clEi
FN:42,citydb.cpp:_ZNK6draxul12_GLOBAL__N_111SqliteError4codeEv
FN:56,citydb.cpp:_ZN6draxul12_GLOBAL__N_18DbHandleC2ERKNSt3__14__fs10filesystem4pathE
FN:70,citydb.cpp:_ZN6draxul12_GLOBAL__N_18DbHandleC2EOS1_
FN:74,citydb.cpp:_ZN6draxul12_GLOBAL__N_18DbHandleaSEOS1_
FN:146,citydb.cpp:_ZN6draxul12_GLOBAL__N_19StatementC2EOS1_
FN:150,citydb.cpp:_ZN6draxul12_GLOBAL__N_19StatementaSEOS1_
FN:702,citydb.cpp:_ZN6draxul12_GLOBAL__N_116create_schema_v3EP7sqlite3
FNDA:13,_ZN6draxul12CityDatabaseC2Ev
FNDA:13,_ZN6draxul12CityDatabaseD2Ev
FNDA:0,_ZN6draxul12CityDatabaseC2EOS0_
FNDA:0,_ZN6draxul12CityDatabaseaSEOS0_
FNDA:13,_ZN6draxul12CityDatabase4openERKNSt3__14__fs10filesystem4pathE
FNDA:10,_ZN6draxul12CityDatabase5closeEv
FNDA:17,_ZNK6draxul12CityDatabase7is_openEv
FNDA:8,_ZNK6draxul12CityDatabase15schema_migratedEv
FNDA:0,_ZNK6draxul12CityDatabase4pathEv
FNDA:2,_ZNK6draxul12CityDatabase10last_errorEv
FNDA:1,_ZNK6draxul12CityDatabase5statsEv
FNDA:5,_ZN6draxul12CityDatabase18reconcile_snapshotERKNS_16CodebaseSnapshotE
FNDA:11,_ZNK6draxul12CityDatabase12list_modulesEv
FNDA:3,_ZNK6draxul12CityDatabase22list_classes_in_moduleENSt3__117basic_string_viewIcNS1_11char_traitsIcEEEE
FNDA:5,_ZNK6draxul12CityDatabase33list_class_dependencies_in_moduleENSt3__117basic_string_viewIcNS1_11char_traitsIcEEEE
FNDA:3,_ZNK6draxul12CityDatabase13module_recordENSt3__117basic_string_viewIcNS1_11char_traitsIcEEEE
FNDA:3,_ZNK6draxul12CityDatabase15codebase_healthEv
FNDA:13,citydb.cpp:_ZN6draxul12_GLOBAL__N_18DbHandleC2Ev
FNDA:13,citydb.cpp:_ZN6draxul12_GLOBAL__N_18DbHandleD2Ev
FNDA:13,citydb.cpp:_ZN6draxul12_GLOBAL__N_18DbHandle4openERKNSt3__14__fs10filesystem4pathE
FNDA:0,citydb.cpp:_ZN6draxul12_GLOBAL__N_111SqliteErrorC2EiNSt3__112basic_stringIcNS2_11char_traitsIcEENS2_9allocatorIcEEEE
FNDA:113,citydb.cpp:_ZN6draxul12_GLOBAL__N_14execEP7sqlite3NSt3__117basic_string_viewIcNS3_11char_traitsIcEEEE
FNDA:150,citydb.cpp:_ZNK6draxul12_GLOBAL__N_18DbHandle3getEv
FNDA:13,citydb.cpp:_ZN6draxul12_GLOBAL__N_114migrate_schemaEP7sqlite3
FNDA:6,citydb.cpp:_ZN6draxul12_GLOBAL__N_116create_schema_v8EP7sqlite3
FNDA:6,citydb.cpp:_ZN6draxul12_GLOBAL__N_116create_schema_v7EP7sqlite3
FNDA:6,citydb.cpp:_ZN6draxul12_GLOBAL__N_116create_schema_v6EP7sqlite3
FNDA:6,citydb.cpp:_ZN6draxul12_GLOBAL__N_116create_schema_v5EP7sqlite3
FNDA:6,citydb.cpp:_ZN6draxul12_GLOBAL__N_116create_schema_v4EP7sqlite3
FNDA:6,citydb.cpp:_ZN6draxul12_GLOBAL__N_116create_schema_v2EP7sqlite3
FNDA:0,citydb.cpp:_ZN6draxul12_GLOBAL__N_130migrate_to_current_destructiveEP7sqlite3
FNDA:0,citydb.cpp:_ZN6draxul12_GLOBAL__N_115drop_all_tablesEP7sqlite3
FNDA:36,citydb.cpp:_ZN6draxul12_GLOBAL__N_18DbHandle5closeEv
FNDA:47,citydb.cpp:_ZNK6draxul12_GLOBAL__N_18DbHandlecvbEv
FNDA:26,citydb.cpp:_ZN6draxul12_GLOBAL__N_114make_symbol_idERKNSt3__112basic_stringIcNS1_11char_traitsIcEENS1_9allocatorIcEEEENS_10SymbolKindENS1_17basic_string_viewIcS4_EEj
FNDA:5,citydb.cpp:_ZN6draxul12_GLOBAL__N_129build_inheritance_descendantsERKNSt3__113unordered_mapINS1_12basic_stringIcNS1_11char_traitsIcEENS1_9allocatorIcEEEENS1_6vectorIS8_NS6_IS8_EEEENS1_4hashIS8_EENS1_8equal_toIS8_EENS6_INS1_4pairIKS8_SB_EEEEEESM_
FNDA:5,citydb.cpp:_ZN6draxul12_GLOBAL__N_111TransactionC2EP7sqlite3
FNDA:10,citydb.cpp:_ZN6draxul12_GLOBAL__N_111Transaction4execEPKc
FNDA:60,citydb.cpp:_ZN6draxul12_GLOBAL__N_19StatementC2EP7sqlite3NSt3__117basic_string_viewIcNS4_11char_traitsIcEEEE
FNDA:60,citydb.cpp:_ZN6draxul12_GLOBAL__N_19Statement7prepareEP7sqlite3NSt3__117basic_string_viewIcNS4_11char_traitsIcEEEE
FNDA:120,citydb.cpp:_ZN6draxul12_GLOBAL__N_19Statement5resetEv
FNDA:5,citydb.cpp:_ZN6draxul12_GLOBAL__N_120module_path_for_fileENSt3__117basic_string_viewIcNS1_11char_traitsIcEEEE
FNDA:58,citydb.cpp:_ZN6draxul12_GLOBAL__N_19Statement5reuseEv
FNDA:58,citydb.cpp:_ZN6draxul12_GLOBAL__N_19Statement10reset_stepEv
FNDA:58,citydb.cpp:_ZN6draxul12_GLOBAL__N_19Statement14clear_bindingsEv
FNDA:339,citydb.cpp:_ZN6draxul12_GLOBAL__N_19Statement9bind_textEiNSt3__117basic_string_viewIcNS2_11char_traitsIcEEEE
FNDA:141,citydb.cpp:_ZN6draxul12_GLOBAL__N_19Statement8bind_intEii
FNDA:5,citydb.cpp:_ZN6draxul12_GLOBAL__N_19Statement10bind_int64Eix
FNDA:58,citydb.cpp:_ZN6draxul12_GLOBAL__N_19Statement9step_doneEv
FNDA:14,citydb.cpp:_ZN6draxul12_GLOBAL__N_126resolve_dependency_targetsENSt3__117basic_string_viewIcNS1_11char_traitsIcEEEES5_RKNS1_13unordered_mapINS1_12basic_stringIcS4_NS1_9allocatorIcEEEENS1_6vectorISA_NS8_ISA_EEEENS1_4hashISA_EENS1_8equal_toISA_EENS8_INS1_4pairIKSA_SD_EEEEEESO_RKNS1_13unordered_setISA_SF_SH_SC_EE
FNDA:16,citydb.cpp:_ZZN6draxul12_GLOBAL__N_126resolve_dependency_targetsENSt3__117basic_string_viewIcNS1_11char_traitsIcEEEES5_RKNS1_13unordered_mapINS1_12basic_stringIcS4_NS1_9allocatorIcEEEENS1_6vectorISA_NS8_ISA_EEEENS1_4hashISA_EENS1_8equal_toISA_EENS8_INS1_4pairIKSA_SD_EEEEEESO_RKNS1_13unordered_setISA_SF_SH_SC_EEENK3$_0clERSJ_
FNDA:40,citydb.cpp:_ZN6draxul12_GLOBAL__N_116symbol_kind_nameENS_10SymbolKindE
FNDA:14,citydb.cpp:_ZN6draxul12_GLOBAL__N_114city_role_nameENS0_8CityRoleE
FNDA:13,citydb.cpp:_ZN6draxul12_GLOBAL__N_111entity_specENS0_8CityRoleEi
FNDA:13,citydb.cpp:_ZN6draxul12_GLOBAL__N_114json_int_arrayERKNSt3__16vectorIiNS1_9allocatorIiEEEE
FNDA:13,citydb.cpp:_ZN6draxul12_GLOBAL__N_117json_string_arrayERKNSt3__16vectorINS1_12basic_stringIcNS1_11char_traitsIcEENS1_9allocatorIcEEEENS6_IS8_EEEE
FNDA:64,citydb.cpp:_ZN6draxul12_GLOBAL__N_19Statement11bind_doubleEid
FNDA:13,citydb.cpp:_ZN6draxul12_GLOBAL__N_113make_field_idENSt3__117basic_string_viewIcNS1_11char_traitsIcEEEES5_m
FNDA:116,citydb.cpp:_ZN6draxul12_GLOBAL__N_19Statement4stepEv
FNDA:24,citydb.cpp:_ZZN6draxul12CityDatabase18reconcile_snapshotERKNS_16CodebaseSnapshotEENK3$_0clEi
FNDA:231,citydb.cpp:_ZNK6draxul12_GLOBAL__N_19Statement3rawEv
FNDA:17,citydb.cpp:_ZN6draxul12_GLOBAL__N_120parse_json_int_arrayENSt3__117basic_string_viewIcNS1_11char_traitsIcEEEE
FNDA:60,citydb.cpp:_ZN6draxul12_GLOBAL__N_19StatementD2Ev
FNDA:5,citydb.cpp:_ZN6draxul12_GLOBAL__N_111Transaction6commitEv
FNDA:5,citydb.cpp:_ZN6draxul12_GLOBAL__N_111TransactionD2Ev
FNDA:40,citydb.cpp:_ZZNK6draxul12CityDatabase22list_classes_in_moduleENSt3__117basic_string_viewIcNS1_11char_traitsIcEEEEENK3$_0clEi
FNDA:5,citydb.cpp:_ZN6draxul12_GLOBAL__N_123parse_json_string_arrayENSt3__117basic_string_viewIcNS1_11char_traitsIcEEEE
FNDA:64,citydb.cpp:_ZZNK6draxul12CityDatabase33list_class_dependencies_in_moduleENSt3__117basic_string_viewIcNS1_11char_traitsIcEEEEENK3$_0clEi
FNDA:0,citydb.cpp:_ZNK6draxul12_GLOBAL__N_111SqliteError4codeEv
FNDA:0,citydb.cpp:_ZN6draxul12_GLOBAL__N_18DbHandleC2ERKNSt3__14__fs10filesystem4pathE
FNDA:0,citydb.cpp:_ZN6draxul12_GLOBAL__N_18DbHandleC2EOS1_
FNDA:0,citydb.cpp:_ZN6draxul12_GLOBAL__N_18DbHandleaSEOS1_
FNDA:0,citydb.cpp:_ZN6draxul12_GLOBAL__N_19StatementC2EOS1_
FNDA:0,citydb.cpp:_ZN6draxul12_GLOBAL__N_19StatementaSEOS1_
FNDA:0,citydb.cpp:_ZN6draxul12_GLOBAL__N_116create_schema_v3EP7sqlite3
FNF:75
FNH:62
DA:36,0
DA:37,0
DA:38,0
DA:39,0
DA:42,0
DA:43,0
DA:44,0
DA:53,13
DA:56,0
DA:57,0
DA:58,0
DA:61,13
DA:62,13
DA:63,13
DA:70,0
DA:71,0
DA:74,0
DA:75,0
DA:76,0
DA:77,0
DA:78,0
DA:79,0
DA:80,0
DA:81,0
DA:82,0
DA:85,13
DA:86,13
DA:87,13
DA:89,13
DA:90,13
DA:91,13
DA:92,13
DA:93,0
DA:94,0
DA:95,0
DA:96,0
DA:97,0
DA:98,0
DA:100,13
DA:101,13
DA:104,36
DA:105,36
DA:106,36
DA:107,23
DA:108,13
DA:109,13
DA:110,13
DA:113,150
DA:114,150
DA:115,150
DA:118,47
DA:119,47
DA:120,47
DA:132,60
DA:133,60
DA:134,60
DA:137,60
DA:138,60
DA:139,60
DA:146,0
DA:147,0
DA:150,0
DA:151,0
DA:152,0
DA:153,0
DA:154,0
DA:155,0
DA:156,0
DA:157,0
DA:158,0
DA:161,60
DA:162,60
DA:163,60
DA:164,60
DA:165,60
DA:166,60
DA:167,60
DA:168,0
DA:169,60
DA:170,60
DA:173,339
DA:174,339
DA:175,339
DA:176,339
DA:177,339
DA:178,0
DA:179,339
DA:182,141
DA:183,141
DA:184,141
DA:185,141
DA:186,0
DA:187,141
DA:190,5
DA:191,5
DA:192,5
DA:193,5
DA:194,0
DA:195,5
DA:198,64
DA:199,64
DA:200,64
DA:201,64
DA:202,0
DA:203,64
DA:206,116
DA:207,116
DA:208,116
DA:209,116
DA:210,0
DA:211,116
DA:212,116
DA:215,58
DA:216,58
DA:217,58
DA:218,58
DA:219,0
DA:220,58
DA:223,58
DA:224,58
DA:225,58
DA:226,58
DA:227,0
DA:228,58
DA:231,58
DA:232,58
DA:233,58
DA:234,58
DA:235,0
DA:236,58
DA:239,58
DA:240,58
DA:241,58
DA:242,58
DA:245,231
DA:246,231
DA:247,231
DA:251,120
DA:252,120
DA:253,120
DA:254,60
DA:255,60
DA:256,60
DA:257,60
DA:258,120
DA:267,5
DA:268,5
DA:269,5
DA:270,5
DA:273,5
DA:274,5
DA:275,5
DA:276,0
DA:277,0
DA:278,0
DA:279,0
DA:280,0
DA:281,0
DA:282,0
DA:283,0
DA:284,0
DA:285,5
DA:288,5
DA:289,5
DA:290,5
DA:291,0
DA:292,5
DA:293,5
DA:294,5
DA:298,10
DA:299,10
DA:300,10
DA:301,10
DA:302,10
DA:303,0
DA:304,0
DA:305,0
DA:306,0
DA:307,0
DA:308,0
DA:309,10
DA:316,113
DA:317,113
DA:318,113
DA:319,113
DA:320,113
DA:321,0
DA:322,0
DA:323,0
DA:324,0
DA:325,0
DA:326,0
DA:327,113
DA:330,40
DA:331,40
DA:332,40
DA:333,4
DA:334,4
DA:335,30
DA:336,30
DA:337,6
DA:338,6
DA:339,0
DA:340,0
DA:341,40
DA:342,0
DA:343,40
DA:356,14
DA:357,14
DA:358,14
DA:359,8
DA:360,8
DA:361,2
DA:362,2
DA:363,2
DA:364,2
DA:365,1
DA:366,1
DA:367,1
DA:368,1
DA:369,0
DA:370,0
DA:371,14
DA:372,0
DA:373,14
DA:385,13
DA:386,13
DA:387,13
DA:388,13
DA:389,8
DA:390,8
DA:391,2
DA:392,2
DA:393,2
DA:394,2
DA:395,1
DA:396,1
DA:397,0
DA:398,0
DA:399,0
DA:400,13
DA:401,0
DA:402,13
DA:405,13
DA:406,13
DA:407,13
DA:408,13
DA:409,14
DA:410,1
DA:411,1
DA:412,0
DA:413,1
DA:414,1
DA:415,13
DA:416,13
DA:417,13
DA:420,13
DA:421,13
DA:422,13
DA:423,13
DA:424,14
DA:425,1
DA:426,1
DA:427,0
DA:428,1
DA:429,1
DA:430,4
DA:431,4
DA:432,0
DA:433,4
DA:434,4
DA:435,1
DA:436,1
DA:437,13
DA:438,13
DA:439,13
DA:442,5
DA:443,5
DA:444,5
DA:445,5
DA:446,5
DA:447,5
DA:448,5
DA:449,16
DA:450,16
DA:451,0
DA:452,0
DA:453,0
DA:454,0
DA:455,16
DA:456,0
DA:457,0
DA:458,0
DA:459,16
DA:460,2
DA:461,2
DA:462,1
DA:463,1
DA:464,1
DA:465,1
DA:466,2
DA:467,2
DA:468,14
DA:469,4
DA:470,4
DA:471,4
DA:472,16
DA:473,5
DA:474,5
DA:477,17
DA:478,17
DA:479,17
DA:480,17
DA:481,17
DA:482,17
DA:483,17
DA:484,36
DA:485,36
DA:486,0
DA:487,0
DA:488,0
DA:489,0
DA:490,0
DA:491,36
DA:492,2
DA:493,2
DA:494,2
DA:495,2
DA:496,2
DA:497,2
DA:498,2
DA:499,2
DA:500,2
DA:501,34
DA:502,2
DA:503,2
DA:504,2
DA:505,2
DA:506,2
DA:507,2
DA:508,36
DA:509,17
DA:510,0
DA:511,17
DA:512,17
DA:515,5
DA:516,5
DA:517,5
DA:519,5
DA:520,5
DA:521,0
DA:522,5
DA:523,5
DA:524,5
DA:525,0
DA:527,0
DA:528,0
DA:530,5
DA:531,5
DA:535,26
DA:536,26
DA:537,26
DA:538,26
DA:542,13
DA:543,13
DA:544,13
DA:553,5
DA:554,5
DA:557,5
DA:558,5
DA:559,1
DA:560,1
DA:561,1
DA:562,1
DA:563,1
DA:564,0
DA:565,1
DA:566,1
DA:567,0
DA:568,1
DA:569,1
DA:570,1
DA:573,5
DA:574,5
DA:575,1
DA:576,1
DA:577,1
DA:578,1
DA:579,1
DA:580,1
DA:581,2
DA:582,1
DA:583,1
DA:584,1
DA:585,1
DA:586,0
DA:587,1
DA:588,1
DA:589,1
DA:590,0
DA:591,0
DA:592,1
DA:593,1
DA:594,1
DA:596,5
DA:597,5
DA:611,14
DA:612,14
DA:613,14
DA:614,14
DA:615,0
DA:617,14
DA:618,14
DA:619,14
DA:623,14
DA:624,4
DA:625,4
DA:626,4
DA:627,2
DA:628,2
DA:629,2
DA:630,4
DA:631,10
DA:632,10
DA:633,10
DA:634,10
DA:636,14
DA:637,14
DA:638,14
DA:639,14
DA:640,16
DA:641,14
DA:642,14
DA:643,14
DA:646,6
DA:647,6
DA:648,6
DA:649,6
DA:650,6
DA:651,6
DA:652,6
DA:653,6
DA:654,6
DA:655,6
DA:656,6
DA:657,6
DA:658,6
DA:659,6
DA:660,6
DA:661,6
DA:662,6
DA:663,6
DA:664,6
DA:665,6
DA:666,6
DA:667,6
DA:668,6
DA:669,6
DA:670,6
DA:671,6
DA:672,6
DA:673,6
DA:674,6
DA:675,6
DA:676,6
DA:677,6
DA:678,6
DA:679,6
DA:680,6
DA:681,6
DA:682,6
DA:683,6
DA:684,6
DA:685,6
DA:686,6
DA:687,6
DA:688,6
DA:689,6
DA:690,6
DA:691,6
DA:692,6
DA:693,6
DA:694,6
DA:695,6
DA:696,6
DA:697,6
DA:698,6
DA:699,6
DA:702,0
DA:703,0
DA:704,0
DA:705,0
DA:706,0
DA:707,0
DA:708,0
DA:709,0
DA:710,0
DA:711,0
DA:712,0
DA:713,0
DA:714,0
DA:715,0
DA:716,0
DA:717,0
DA:720,6
DA:721,6
DA:722,6
DA:724,6
DA:725,6
DA:726,6
DA:727,6
DA:728,6
DA:729,6
DA:730,6
DA:731,6
DA:732,6
DA:733,6
DA:734,6
DA:735,6
DA:736,6
DA:737,6
DA:738,6
DA:741,6
DA:742,6
DA:743,6
DA:745,6
DA:746,6
DA:747,6
DA:748,6
DA:749,6
DA:750,6
DA:751,6
DA:752,6
DA:753,6
DA:754,6
DA:755,6
DA:756,6
DA:757,6
DA:758,6
DA:759,6
DA:760,6
DA:761,6
DA:762,6
DA:763,6
DA:764,6
DA:765,6
DA:766,6
DA:767,6
DA:768,6
DA:771,0
DA:772,0
DA:773,0
DA:774,0
DA:775,0
DA:776,0
DA:777,0
DA:778,0
DA:779,0
DA:782,6
DA:783,6
DA:784,6
DA:785,6
DA:786,6
DA:789,6
DA:790,6
DA:791,6
DA:792,6
DA:793,6
DA:796,6
DA:797,6
DA:798,6
DA:799,6
DA:800,6
DA:803,0
DA:804,0
DA:807,0
DA:808,0
DA:809,0
DA:813,13
DA:814,13
DA:815,13
DA:816,13
DA:817,13
DA:818,13
DA:819,13
DA:820,0
DA:821,13
DA:822,13
DA:823,13
DA:824,13
DA:826,0
DA:827,13
DA:828,6
DA:829,7
DA:830,0
DA:831,0
DA:832,0
DA:833,0
DA:835,13
DA:836,13
DA:837,13
DA:838,13
DA:839,0
DA:840,13
DA:841,13
DA:842,13
DA:843,13
DA:845,13
DA:846,0
DA:847,13
DA:848,13
DA:862,13
DA:863,13
DA:864,13
DA:867,13
DA:868,13
DA:869,13
DA:872,0
DA:873,0
DA:874,0
DA:877,0
DA:878,0
DA:879,0
DA:880,0
DA:881,0
DA:882,0
DA:883,0
DA:884,0
DA:885,0
DA:888,13
DA:889,13
DA:890,13
DA:891,0
DA:893,13
DA:894,13
DA:895,13
DA:896,13
DA:897,13
DA:898,13
DA:899,13
DA:901,13
DA:902,13
DA:903,13
DA:904,13
DA:905,13
DA:906,13
DA:907,13
DA:908,13
DA:909,13
DA:910,0
DA:911,0
DA:912,0
DA:913,0
DA:914,13
DA:917,10
DA:918,10
DA:919,10
DA:920,0
DA:921,10
DA:922,10
DA:925,17
DA:926,17
DA:927,17
DA:930,8
DA:931,8
DA:932,8
DA:935,0
DA:936,0
DA:937,0
DA:938,0
DA:941,2
DA:942,2
DA:943,2
DA:944,2
DA:947,1
DA:948,1
DA:949,1
DA:950,1
DA:953,5
DA:954,5
DA:955,5
DA:956,0
DA:958,5
DA:959,5
DA:960,5
DA:961,5
DA:962,5
DA:963,5
DA:964,5
DA:965,5
DA:966,5
DA:967,5
DA:968,5
DA:969,14
DA:970,14
DA:971,12
DA:972,12
DA:973,12
DA:974,12
DA:975,12
DA:976,12
DA:977,12
DA:978,2
DA:979,12
DA:980,1
DA:981,12
DA:982,14
DA:983,1
DA:984,1
DA:985,1
DA:986,1
DA:987,1
DA:988,1
DA:989,1
DA:990,14
DA:991,5
DA:992,5
DA:993,5
DA:995,5
DA:996,5
DA:997,5
DA:998,5
DA:1000,5
DA:1001,5
DA:1002,5
DA:1003,5
DA:1004,5
DA:1005,5
DA:1006,5
DA:1007,5
DA:1008,5
DA:1009,5
DA:1010,5
DA:1011,5
DA:1012,5
DA:1013,5
DA:1014,5
DA:1015,5
DA:1017,5
DA:1018,5
DA:1019,5
DA:1020,5
DA:1021,5
DA:1022,5
DA:1024,5
DA:1025,5
DA:1026,5
DA:1028,5
DA:1029,5
DA:1031,5
DA:1032,5
DA:1033,5
DA:1034,5
DA:1035,5
DA:1036,5
DA:1037,5
DA:1038,5
DA:1039,5
DA:1040,5
DA:1042,5
DA:1043,14
DA:1044,14
DA:1045,14
DA:1046,2
DA:1047,12
DA:1048,12
DA:1049,12
DA:1050,2
DA:1051,10
DA:1052,10
DA:1053,2
DA:1054,8
DA:1055,8
DA:1056,12
DA:1058,14
DA:1059,14
DA:1060,14
DA:1061,14
DA:1062,14
DA:1063,14
DA:1064,14
DA:1065,14
DA:1066,14
DA:1067,12
DA:1068,12
DA:1069,12
DA:1070,1
DA:1071,12
DA:1072,12
DA:1073,1
DA:1074,12
DA:1075,14
DA:1076,14
DA:1077,14
DA:1078,14
DA:1079,8
DA:1080,8
DA:1081,13
DA:1082,13
DA:1083,7
DA:1084,7
DA:1085,0
DA:1086,7
DA:1087,7
DA:1088,7
DA:1089,7
DA:1090,7
DA:1091,7
DA:1092,7
DA:1093,7
DA:1094,13
DA:1095,8
DA:1096,14
DA:1098,14
DA:1099,14
DA:1100,14
DA:1101,14
DA:1102,14
DA:1103,14
DA:1104,14
DA:1105,14
DA:1106,14
DA:1107,14
DA:1108,14
DA:1109,14
DA:1110,14
DA:1111,14
DA:1112,14
DA:1114,14
DA:1115,8
DA:1117,14
DA:1118,1
DA:1120,13
DA:1121,13
DA:1122,13
DA:1123,13
DA:1124,13
DA:1125,13
DA:1126,13
DA:1127,13
DA:1128,13
DA:1129,13
DA:1130,13
DA:1131,13
DA:1132,13
DA:1133,13
DA:1134,13
DA:1135,13
DA:1136,13
DA:1137,13
DA:1138,13
DA:1139,13
DA:1140,13
DA:1141,5
DA:1143,5
DA:1144,8
DA:1145,21
DA:1146,13
DA:1147,13
DA:1148,13
DA:1149,13
DA:1150,13
DA:1151,13
DA:1152,13
DA:1153,13
DA:1155,13
DA:1156,7
DA:1157,7
DA:1158,7
DA:1159,7
DA:1160,7
DA:1161,7
DA:1162,7
DA:1163,7
DA:1164,8
DA:1165,8
DA:1166,8
DA:1167,8
DA:1168,8
DA:1169,8
DA:1170,8
DA:1171,8
DA:1172,8
DA:1173,7
DA:1174,13
DA:1175,8
DA:1178,5
DA:1179,5
DA:1180,5
DA:1181,5
DA:1182,5
DA:1186,5
DA:1187,5
DA:1188,5
DA:1189,5
DA:1190,5
DA:1191,5
DA:1192,5
DA:1193,5
DA:1194,5
DA:1196,5
DA:1197,5
DA:1198,5
DA:1199,5
DA:1200,5
DA:1201,24
DA:1202,24
DA:1203,24
DA:1204,24
DA:1205,17
DA:1206,12
DA:1207,12
DA:1208,12
DA:1209,12
DA:1210,12
DA:1211,12
DA:1212,12
DA:1213,12
DA:1214,1
DA:1215,12
DA:1216,12
DA:1217,12
DA:1218,5
DA:1220,5
DA:1221,5
DA:1222,5
DA:1223,5
DA:1224,5
DA:1228,5
DA:1229,5
DA:1230,5
DA:1235,5
DA:1236,5
DA:1237,5
DA:1238,5
DA:1239,5
DA:1240,5
DA:1241,5
DA:1245,5
DA:1246,5
DA:1247,5
DA:1248,5
DA:1249,5
DA:1250,5
DA:1253,5
DA:1255,5
DA:1256,5
DA:1257,5
DA:1258,5
DA:1259,5
DA:1260,5
DA:1261,5
DA:1262,5
DA:1263,5
DA:1264,5
DA:1265,5
DA:1266,5
DA:1268,5
DA:1270,5
DA:1271,5
DA:1272,5
DA:1273,5
DA:1274,5
DA:1275,5
DA:1276,5
DA:1277,5
DA:1278,5
DA:1279,5
DA:1280,5
DA:1281,0
DA:1282,0
DA:1283,0
DA:1284,5
DA:1287,11
DA:1288,11
DA:1289,11
DA:1290,11
DA:1291,0
DA:1293,11
DA:1294,11
DA:1295,11
DA:1296,11
DA:1297,11
DA:1298,14
DA:1299,3
DA:1300,3
DA:1301,3
DA:1302,3
DA:1303,11
DA:1304,11
DA:1305,11
DA:1306,0
DA:1307,0
DA:1309,11
DA:1310,11
DA:1313,3
DA:1314,3
DA:1315,3
DA:1316,3
DA:1317,0
DA:1319,3
DA:1320,3
DA:1321,3
DA:1322,3
DA:1323,3
DA:1324,3
DA:1325,3
DA:1326,3
DA:1327,3
DA:1328,3
DA:1329,3
DA:1330,8
DA:1331,5
DA:1332,5
DA:1333,40
DA:1334,40
DA:1335,40
DA:1336,40
DA:1337,5
DA:1338,5
DA:1339,5
DA:1340,5
DA:1341,5
DA:1342,5
DA:1343,5
DA:1344,5
DA:1345,5
DA:1346,5
DA:1347,5
DA:1348,5
DA:1349,5
DA:1350,5
DA:1351,3
DA:1352,3
DA:1353,3
DA:1354,0
DA:1355,0
DA:1357,3
DA:1358,3
DA:1361,5
DA:1362,5
DA:1363,5
DA:1364,5
DA:1365,0
DA:1367,5
DA:1368,5
DA:1369,5
DA:1370,5
DA:1371,5
DA:1372,5
DA:1373,5
DA:1374,5
DA:1375,5
DA:1376,5
DA:1377,5
DA:1378,5
DA:1379,13
DA:1380,8
DA:1381,8
DA:1382,64
DA:1383,64
DA:1384,64
DA:1385,64
DA:1386,8
DA:1387,8
DA:1388,8
DA:1389,8
DA:1390,8
DA:1391,8
DA:1392,8
DA:1393,8
DA:1394,8
DA:1395,8
DA:1396,8
DA:1397,5
DA:1398,5
DA:1399,5
DA:1400,0
DA:1401,0
DA:1403,5
DA:1404,5
DA:1407,3
DA:1408,3
DA:1409,3
DA:1410,3
DA:1411,3
DA:1412,0
DA:1414,3
DA:1415,3
DA:1416,3
DA:1417,3
DA:1418,3
DA:1419,3
DA:1420,3
DA:1421,3
DA:1422,3
DA:1423,3
DA:1424,3
DA:1425,3
DA:1426,3
DA:1427,3
DA:1428,3
DA:1429,3
DA:1430,3
DA:1431,3
DA:1432,3
DA:1433,3
DA:1434,3
DA:1435,0
DA:1436,0
DA:1438,3
DA:1439,3
DA:1442,3
DA:1443,3
DA:1444,3
DA:1445,3
DA:1446,0
DA:1448,3
DA:1449,3
DA:1452,3
DA:1453,3
DA:1454,3
DA:1455,3
DA:1456,3
DA:1457,3
DA:1458,3
DA:1459,3
DA:1460,3
DA:1461,3
DA:1462,3
DA:1463,3
DA:1464,3
DA:1465,3
DA:1466,3
DA:1467,3
DA:1468,0
DA:1469,0
DA:1471,3
DA:1472,3
BRDA:92,0,0,0
BRDA:92,0,1,13
BRDA:94,0,0,-
BRDA:94,0,1,-
BRDA:95,0,0,-
BRDA:95,0,1,-
BRDA:106,0,0,23
BRDA:106,0,1,13
BRDA:167,0,0,0
BRDA:167,0,1,60
BRDA:177,0,0,0
BRDA:177,0,1,339
BRDA:185,0,0,0
BRDA:185,0,1,141
BRDA:193,0,0,0
BRDA:193,0,1,5
BRDA:201,0,0,0
BRDA:201,0,1,64
BRDA:209,0,0,82
BRDA:209,0,1,34
BRDA:209,1,2,0
BRDA:209,1,3,82
BRDA:218,0,0,0
BRDA:218,0,1,58
BRDA:226,0,0,0
BRDA:226,0,1,58
BRDA:234,0,0,0
BRDA:234,0,1,58
BRDA:253,0,0,60
BRDA:253,0,1,60
BRDA:275,0,0,0
BRDA:275,0,1,5
BRDA:290,0,0,0
BRDA:290,0,1,5
BRDA:302,0,0,0
BRDA:302,0,1,10
BRDA:304,0,0,-
BRDA:304,0,1,-
BRDA:305,0,0,-
BRDA:305,0,1,-
BRDA:320,0,0,0
BRDA:320,0,1,113
BRDA:322,0,0,-
BRDA:322,0,1,-
BRDA:323,0,0,-
BRDA:323,0,1,-
BRDA:331,0,0,0
BRDA:331,0,1,40
BRDA:333,0,0,4
BRDA:333,0,1,36
BRDA:335,0,0,30
BRDA:335,0,1,10
BRDA:337,0,0,6
BRDA:337,0,1,34
BRDA:339,0,0,0
BRDA:339,0,1,40
BRDA:357,0,0,0
BRDA:357,0,1,14
BRDA:359,0,0,8
BRDA:359,0,1,6
BRDA:361,0,0,2
BRDA:361,0,1,12
BRDA:363,0,0,2
BRDA:363,0,1,12
BRDA:365,0,0,1
BRDA:365,0,1,13
BRDA:367,0,0,1
BRDA:367,0,1,13
BRDA:369,0,0,0
BRDA:369,0,1,14
BRDA:387,0,0,0
BRDA:387,0,1,13
BRDA:389,0,0,8
BRDA:389,0,1,5
BRDA:391,0,0,2
BRDA:391,0,1,11
BRDA:393,0,0,2
BRDA:393,0,1,11
BRDA:395,0,0,1
BRDA:395,0,1,12
BRDA:397,0,0,0
BRDA:397,0,1,13
BRDA:398,0,0,0
BRDA:398,0,1,13
BRDA:409,0,0,1
BRDA:409,0,1,13
BRDA:411,0,0,0
BRDA:411,0,1,1
BRDA:424,0,0,1
BRDA:424,0,1,13
BRDA:426,0,0,0
BRDA:426,0,1,1
BRDA:429,0,0,4
BRDA:429,0,1,1
BRDA:431,0,0,0
BRDA:431,0,1,4
BRDA:431,1,2,0
BRDA:431,1,3,4
BRDA:448,0,0,16
BRDA:448,0,1,5
BRDA:450,0,0,0
BRDA:450,0,1,16
BRDA:455,0,0,0
BRDA:455,0,1,16
BRDA:455,1,2,-
BRDA:455,1,3,-
BRDA:459,0,0,2
BRDA:459,0,1,14
BRDA:461,0,0,1
BRDA:461,0,1,1
BRDA:468,0,0,4
BRDA:468,0,1,10
BRDA:483,0,0,36
BRDA:483,0,1,17
BRDA:485,0,0,0
BRDA:485,0,1,36
BRDA:491,0,0,36
BRDA:491,0,1,0
BRDA:491,1,2,2
BRDA:491,1,3,34
BRDA:493,0,0,2
BRDA:493,0,1,0
BRDA:501,0,0,2
BRDA:501,0,1,32
BRDA:503,0,0,0
BRDA:503,0,1,2
BRDA:509,0,0,0
BRDA:509,0,1,17
BRDA:510,0,0,-
BRDA:510,0,1,-
BRDA:520,0,0,0
BRDA:520,0,1,5
BRDA:524,0,0,0
BRDA:524,0,1,5
BRDA:524,1,2,0
BRDA:524,1,3,5
BRDA:524,2,4,-
BRDA:524,2,5,-
BRDA:558,0,0,1
BRDA:558,0,1,5
BRDA:560,0,0,1
BRDA:560,0,1,1
BRDA:563,0,0,0
BRDA:563,0,1,1
BRDA:563,1,2,0
BRDA:563,1,3,1
BRDA:563,2,4,0
BRDA:563,2,5,1
BRDA:566,0,0,0
BRDA:566,0,1,1
BRDA:574,0,0,1
BRDA:574,0,1,5
BRDA:581,0,0,1
BRDA:581,0,1,1
BRDA:585,0,0,0
BRDA:585,0,1,1
BRDA:589,0,0,0
BRDA:589,0,1,1
BRDA:590,0,0,-
BRDA:590,0,1,-
BRDA:614,0,0,0
BRDA:614,0,1,14
BRDA:614,1,2,0
BRDA:614,1,3,14
BRDA:614,2,4,0
BRDA:614,2,5,14
BRDA:623,0,0,4
BRDA:623,0,1,10
BRDA:626,0,0,2
BRDA:626,0,1,2
BRDA:819,0,0,0
BRDA:819,0,1,13
BRDA:822,0,0,13
BRDA:822,0,1,0
BRDA:827,0,0,6
BRDA:827,0,1,7
BRDA:829,0,0,0
BRDA:829,0,1,7
BRDA:838,0,0,0
BRDA:838,0,1,13
BRDA:841,0,0,13
BRDA:841,0,1,0
BRDA:845,0,0,0
BRDA:845,0,1,13
BRDA:879,0,0,-
BRDA:879,0,1,-
BRDA:890,0,0,0
BRDA:890,0,1,13
BRDA:919,0,0,0
BRDA:919,0,1,10
BRDA:926,0,0,17
BRDA:926,0,1,0
BRDA:926,1,2,17
BRDA:926,1,3,0
BRDA:931,0,0,8
BRDA:931,0,1,0
BRDA:931,1,2,0
BRDA:931,1,3,8
BRDA:937,0,0,-
BRDA:937,0,1,-
BRDA:943,0,0,2
BRDA:943,0,1,0
BRDA:949,0,0,1
BRDA:949,0,1,0
BRDA:955,0,0,0
BRDA:955,0,1,5
BRDA:955,1,2,0
BRDA:955,1,3,5
BRDA:966,0,0,5
BRDA:966,0,1,5
BRDA:968,0,0,14
BRDA:968,0,1,5
BRDA:970,0,0,10
BRDA:970,0,1,4
BRDA:970,1,2,2
BRDA:970,1,3,2
BRDA:972,0,0,12
BRDA:972,0,1,0
BRDA:977,0,0,2
BRDA:977,0,1,10
BRDA:979,0,0,1
BRDA:979,0,1,11
BRDA:982,0,0,2
BRDA:982,0,1,12
BRDA:982,1,2,1
BRDA:982,1,3,1
BRDA:986,0,0,1
BRDA:986,0,1,0
BRDA:1031,0,0,5
BRDA:1031,0,1,5
BRDA:1042,0,0,14
BRDA:1042,0,1,5
BRDA:1045,0,0,2
BRDA:1045,0,1,12
BRDA:1046,0,0,1
BRDA:1046,0,1,1
BRDA:1047,0,0,10
BRDA:1047,0,1,2
BRDA:1047,1,2,2
BRDA:1047,1,3,0
BRDA:1049,0,0,2
BRDA:1049,0,1,10
BRDA:1051,0,0,2
BRDA:1051,0,1,8
BRDA:1052,0,0,2
BRDA:1052,0,1,0
BRDA:1058,0,0,13
BRDA:1058,0,1,1
BRDA:1061,0,0,10
BRDA:1061,0,1,4
BRDA:1061,1,2,2
BRDA:1061,1,3,2
BRDA:1066,0,0,10
BRDA:1066,0,1,4
BRDA:1066,1,2,2
BRDA:1066,1,3,2
BRDA:1069,0,0,1
BRDA:1069,0,1,11
BRDA:1072,0,0,1
BRDA:1072,0,1,11
BRDA:1078,0,0,10
BRDA:1078,0,1,4
BRDA:1078,1,2,2
BRDA:1078,1,3,2
BRDA:1078,2,4,8
BRDA:1078,2,5,4
BRDA:1080,0,0,13
BRDA:1080,0,1,8
BRDA:1082,0,0,7
BRDA:1082,0,1,13
BRDA:1084,0,0,0
BRDA:1084,0,1,7
BRDA:1108,0,0,2
BRDA:1108,0,1,12
BRDA:1114,0,0,8
BRDA:1114,0,1,6
BRDA:1117,0,0,1
BRDA:1117,0,1,13
BRDA:1117,1,2,0
BRDA:1117,1,3,13
BRDA:1143,0,0,8
BRDA:1143,0,1,5
BRDA:1145,0,0,13
BRDA:1145,0,1,8
BRDA:1155,0,0,7
BRDA:1155,0,1,13
BRDA:1163,0,0,8
BRDA:1163,0,1,7
BRDA:1170,0,0,3
BRDA:1170,0,1,5
BRDA:1203,0,0,24
BRDA:1203,0,1,0
BRDA:1205,0,0,12
BRDA:1205,0,1,5
BRDA:1213,0,0,1
BRDA:1213,0,1,12
BRDA:1220,0,0,5
BRDA:1220,0,1,5
BRDA:1222,0,0,1
BRDA:1222,0,1,4
BRDA:1228,0,0,1
BRDA:1228,0,1,4
BRDA:1235,0,0,5
BRDA:1235,0,1,0
BRDA:1239,0,0,5
BRDA:1239,0,1,0
BRDA:1245,0,0,5
BRDA:1245,0,1,0
BRDA:1248,0,0,5
BRDA:1248,0,1,0
BRDA:1290,0,0,0
BRDA:1290,0,1,11
BRDA:1290,1,2,0
BRDA:1290,1,3,11
BRDA:1298,0,0,3
BRDA:1298,0,1,11
BRDA:1301,0,0,3
BRDA:1301,0,1,0
BRDA:1316,0,0,0
BRDA:1316,0,1,3
BRDA:1316,1,2,0
BRDA:1316,1,3,3
BRDA:1330,0,0,5
BRDA:1330,0,1,3
BRDA:1335,0,0,40
BRDA:1335,0,1,0
BRDA:1364,0,0,0
BRDA:1364,0,1,5
BRDA:1364,1,2,0
BRDA:1364,1,3,5
BRDA:1379,0,0,8
BRDA:1379,0,1,5
BRDA:1384,0,0,64
BRDA:1384,0,1,0
BRDA:1411,0,0,0
BRDA:1411,0,1,3
BRDA:1411,1,2,0
BRDA:1411,1,3,3
BRDA:1421,0,0,3
BRDA:1421,0,1,0
BRDA:1445,0,0,0
BRDA:1445,0,1,3
BRDA:1445,1,2,0
BRDA:1445,1,3,3
BRDA:1455,0,0,3
BRDA:1455,0,1,0
BRDA:1458,0,0,3
BRDA:1458,0,1,0
BRF:348
BRH:237
LF:1152
LH:967
end_of_record
SF:/Users/runner/work/Draxul/Draxul/libs/draxul-config/include/draxul/config_document.h
FN:22,_ZNK6draxul14ConfigDocument4rootEv
FN:27,_ZN6draxul14ConfigDocument4rootEv
FNDA:0,_ZNK6draxul14ConfigDocument4rootEv
FNDA:0,_ZN6draxul14ConfigDocument4rootEv
FNF:2
FNH:0
DA:22,0
DA:23,0
DA:24,0
DA:27,0
DA:28,0
DA:29,0
BRF:0
BRH:0
LF:6
LH:0
end_of_record
SF:/Users/runner/work/Draxul/Draxul/libs/draxul-config/include/draxul/toml_support.h
FN:37,_ZN6draxul12toml_support10parse_fileERKNSt3__14__fs10filesystem4pathEPNS1_12basic_stringIcNS1_11char_traitsIcEENS1_9allocatorIcEEEE
FN:19,_ZN6draxul12toml_support14parse_documentENSt3__117basic_string_viewIcNS1_11char_traitsIcEEEEPNS1_12basic_stringIcS4_NS1_9allocatorIcEEEE
FN:51,_ZN6draxul12toml_support10get_stringERKN4toml2v35tableENSt3__117basic_string_viewIcNS6_11char_traitsIcEEEE
FN:76,_ZN6draxul12toml_support7get_intERKN4toml2v35tableENSt3__117basic_string_viewIcNS6_11char_traitsIcEEEE
FN:81,_ZN6draxul12toml_support10get_doubleERKN4toml2v35tableENSt3__117basic_string_viewIcNS6_11char_traitsIcEEEE
FN:86,_ZN6draxul12toml_support8get_boolERKN4toml2v35tableENSt3__117basic_string_viewIcNS6_11char_traitsIcEEEE
FN:58,_ZN6draxul12toml_support16get_string_arrayERKN4toml2v35tableENSt3__117basic_string_viewIcNS6_11char_traitsIcEEEE
FN:91,_ZN6draxul12toml_support8get_vec2ERKN4toml2v35tableENSt3__117basic_string_viewIcNS6_11char_traitsIcEEEE
FN:115,_ZN6draxul12toml_support10make_arrayERKN3glm3vecILi2EfLNS1_9qualifierE0EEE
FN:123,_ZN6draxul12toml_support11insert_vec2ERN4toml2v35tableENSt3__117basic_string_viewIcNS5_11char_traitsIcEEEERKN3glm3vecILi2EfLNSA_9qualifierE0EEE
FN:128,_ZN6draxul12toml_support8get_vec3ERKN4toml2v35tableENSt3__117basic_string_viewIcNS6_11char_traitsIcEEEE
FN:152,_ZN6draxul12toml_support10make_arrayERKN3glm3vecILi3EfLNS1_9qualifierE0EEE
FN:161,_ZN6draxul12toml_support11insert_vec3ERN4toml2v35tableENSt3__117basic_string_viewIcNS5_11char_traitsIcEEEERKN3glm3vecILi3EfLNSA_9qualifierE0EEE
FNDA:21,_ZN6draxul12toml_support10parse_fileERKNSt3__14__fs10filesystem4pathEPNS1_12basic_stringIcNS1_11char_traitsIcEENS1_9allocatorIcEEEE
FNDA:72,_ZN6draxul12toml_support14parse_documentENSt3__117basic_string_viewIcNS1_11char_traitsIcEEEEPNS1_12basic_stringIcS4_NS1_9allocatorIcEEEE
FNDA:264,_ZN6draxul12toml_support10get_stringERKN4toml2v35tableENSt3__117basic_string_viewIcNS6_11char_traitsIcEEEE
FNDA:529,_ZN6draxul12toml_support7get_intERKN4toml2v35tableENSt3__117basic_string_viewIcNS6_11char_traitsIcEEEE
FNDA:546,_ZN6draxul12toml_support10get_doubleERKN4toml2v35tableENSt3__117basic_string_viewIcNS6_11char_traitsIcEEEE
FNDA:156,_ZN6draxul12toml_support8get_boolERKN4toml2v35tableENSt3__117basic_string_viewIcNS6_11char_traitsIcEEEE
FNDA:77,_ZN6draxul12toml_support16get_string_arrayERKN4toml2v35tableENSt3__117basic_string_viewIcNS6_11char_traitsIcEEEE
FNDA:21,_ZN6draxul12toml_support8get_vec2ERKN4toml2v35tableENSt3__117basic_string_viewIcNS6_11char_traitsIcEEEE
FNDA:28,_ZN6draxul12toml_support10make_arrayERKN3glm3vecILi2EfLNS1_9qualifierE0EEE
FNDA:28,_ZN6draxul12toml_support11insert_vec2ERN4toml2v35tableENSt3__117basic_string_viewIcNS5_11char_traitsIcEEEERKN3glm3vecILi2EfLNSA_9qualifierE0EEE
FNDA:24,_ZN6draxul12toml_support8get_vec3ERKN4toml2v35tableENSt3__117basic_string_viewIcNS6_11char_traitsIcEEEE
FNDA:32,_ZN6draxul12toml_support10make_arrayERKN3glm3vecILi3EfLNS1_9qualifierE0EEE
FNDA:24,_ZN6draxul12toml_support11insert_vec3ERN4toml2v35tableENSt3__117basic_string_viewIcNS5_11char_traitsIcEEEERKN3glm3vecILi3EfLNSA_9qualifierE0EEE
FNF:13
FNH:13
DA:19,72
DA:20,72
DA:21,72
DA:22,72
DA:23,72
DA:24,72
DA:25,72
DA:26,4
DA:27,4
DA:28,4
DA:29,4
DA:30,4
DA:31,4
DA:32,4
DA:33,4
DA:34,72
DA:37,21
DA:38,21
DA:39,21
DA:40,0
DA:41,0
DA:42,0
DA:43,0
DA:44,0
DA:46,21
DA:47,21
DA:48,21
DA:51,264
DA:52,264
DA:53,21
DA:54,243
DA:55,264
DA:58,77
DA:59,77
DA:60,77
DA:61,67
DA:63,10
DA:64,10
DA:65,10
DA:66,17
DA:67,17
DA:68,17
DA:69,0
DA:70,17
DA:71,17
DA:72,10
DA:73,10
DA:76,529
DA:77,529
DA:78,529
DA:81,546
DA:82,546
DA:83,546
DA:86,156
DA:87,156
DA:88,156
DA:91,21
DA:92,21
DA:93,21
DA:94,7
DA:96,14
DA:97,42
DA:98,28
DA:99,28
DA:100,28
DA:101,28
DA:102,28
DA:103,28
DA:104,0
DA:105,0
DA:106,0
DA:107,0
DA:108,0
DA:109,0
DA:110,0
DA:111,14
DA:112,14
DA:115,28
DA:116,28
DA:117,28
DA:118,28
DA:119,28
DA:120,28
DA:123,28
DA:124,28
DA:125,28
DA:128,24
DA:129,24
DA:130,24
DA:131,8
DA:133,16
DA:134,64
DA:135,48
DA:136,48
DA:137,48
DA:138,48
DA:139,48
DA:140,48
DA:141,0
DA:142,0
DA:143,0
DA:144,0
DA:145,0
DA:146,0
DA:147,0
DA:148,16
DA:149,16
DA:152,32
DA:153,32
DA:154,32
DA:155,32
DA:156,32
DA:157,32
DA:158,32
DA:161,24
DA:162,24
DA:163,24
BRDA:26,0,0,4
BRDA:26,0,1,0
BRDA:39,0,0,0
BRDA:39,0,1,21
BRDA:41,0,0,-
BRDA:41,0,1,-
BRDA:52,0,0,21
BRDA:52,0,1,243
BRDA:60,0,0,67
BRDA:60,0,1,10
BRDA:65,0,0,17
BRDA:65,0,1,10
BRDA:68,0,0,0
BRDA:68,0,1,17
BRDA:93,0,0,7
BRDA:93,0,1,14
BRDA:93,1,2,0
BRDA:93,1,3,14
BRDA:97,0,0,28
BRDA:97,0,1,14
BRDA:99,0,0,28
BRDA:99,0,1,0
BRDA:104,0,0,-
BRDA:104,0,1,-
BRDA:130,0,0,8
BRDA:130,0,1,16
BRDA:130,1,2,0
BRDA:130,1,3,16
BRDA:134,0,0,48
BRDA:134,0,1,16
BRDA:136,0,0,48
BRDA:136,0,1,0
BRDA:141,0,0,-
BRDA:141,0,1,-
BRF:34
BRH:21
LF:117
LH:97
end_of_record
SF:/Users/runner/work/Draxul/Draxul/libs/draxul-config/src/app_config_io.cpp
FN:392,_ZN6draxul15parse_hex_colorENSt3__117basic_string_viewIcNS0_11char_traitsIcEEEE
FN:443,_ZN6draxul9AppConfigC2Ev
FN:505,_ZN6draxul9AppConfig5parseENSt3__117basic_string_viewIcNS1_11char_traitsIcEEEE
FN:513,_ZNK6draxul9AppConfig9serializeEv
FN:574,_ZN6draxul9AppConfig4loadEv
FN:579,_ZNK6draxul9AppConfig4saveEv
FN:584,_ZN6draxul9AppConfig14load_from_pathERKNSt3__14__fs10filesystem4pathE
FN:617,_ZNK6draxul9AppConfig12save_to_pathERKNSt3__14__fs10filesystem4pathE
FN:644,_ZN6draxul15apply_overridesERNS_9AppConfigERKNS_18AppConfigOverridesE
FN:399,app_config_io.cpp:_ZZN6draxul15parse_hex_colorENSt3__117basic_string_viewIcNS0_11char_traitsIcEEEEENK3$_0clEc
FN:242,app_config_io.cpp:_ZN6draxul12_GLOBAL__N_116config_from_tomlERKN4toml2v35tableE
FN:247,app_config_io.cpp:_ZZN6draxul12_GLOBAL__N_116config_from_tomlERKN4toml2v35tableEENK3$_0clEPKc
FN:269,app_config_io.cpp:_ZZN6draxul12_GLOBAL__N_116config_from_tomlERKN4toml2v35tableEENK3$_1clEv
FN:252,app_config_io.cpp:_ZZN6draxul12_GLOBAL__N_116config_from_tomlERKN4toml2v35tableEENK3$_2clEPKc
FN:274,app_config_io.cpp:_ZZN6draxul12_GLOBAL__N_116config_from_tomlERKN4toml2v35tableEENK3$_3clEPKc
FN:257,app_config_io.cpp:_ZZN6draxul12_GLOBAL__N_116config_from_tomlERKN4toml2v35tableEENK3$_4clEPKc
FN:262,app_config_io.cpp:_ZZN6draxul12_GLOBAL__N_116config_from_tomlERKN4toml2v35tableEENK3$_5clEPKc
FN:115,app_config_io.cpp:_ZN6draxul12_GLOBAL__N_122parse_window_dimensionERKN4toml2v35tableEPKciii
FN:178,app_config_io.cpp:_ZN6draxul12_GLOBAL__N_115parse_font_sizeERKN4toml2v35tableEf
FN:144,app_config_io.cpp:_ZN6draxul12_GLOBAL__N_116parse_atlas_sizeERKN4toml2v35tableEi
FN:189,app_config_io.cpp:_ZN6draxul12_GLOBAL__N_122parse_enable_ligaturesERKN4toml2v35tableEb
FN:194,app_config_io.cpp:_ZN6draxul12_GLOBAL__N_121apply_gui_keybindingsERNS_9AppConfigERKN4toml2v35tableE
FN:162,app_config_io.cpp:_ZN6draxul12_GLOBAL__N_121remove_gui_keybindingERNSt3__16vectorINS_13GuiKeybindingENS1_9allocatorIS3_EEEENS1_17basic_string_viewIcNS1_11char_traitsIcEEEE
FN:165,app_config_io.cpp:_ZZN6draxul12_GLOBAL__N_121remove_gui_keybindingERNSt3__16vectorINS_13GuiKeybindingENS1_9allocatorIS3_EEEENS1_17basic_string_viewIcNS1_11char_traitsIcEEEEENK3$_0clERKS3_
FN:155,app_config_io.cpp:_ZN6draxul12_GLOBAL__N_122replace_gui_keybindingERNSt3__16vectorINS_13GuiKeybindingENS1_9allocatorIS3_EEEES3_
FN:157,app_config_io.cpp:_ZZN6draxul12_GLOBAL__N_122replace_gui_keybindingERNSt3__16vectorINS_13GuiKeybindingENS1_9allocatorIS3_EEEES3_ENK3$_0clERKS3_
FN:222,app_config_io.cpp:_ZN6draxul12_GLOBAL__N_124apply_terminal_overridesERNS_9AppConfigERKN4toml2v35tableE
FN:126,app_config_io.cpp:_ZN6draxul12_GLOBAL__N_122clamp_window_dimensionEiiii
FN:133,app_config_io.cpp:_ZN6draxul12_GLOBAL__N_121floor_to_power_of_twoEi
FN:170,app_config_io.cpp:_ZN6draxul12_GLOBAL__N_124first_binding_for_actionERKNSt3__16vectorINS_13GuiKeybindingENS1_9allocatorIS3_EEEENS1_17basic_string_viewIcNS1_11char_traitsIcEEEE
FN:173,app_config_io.cpp:_ZZN6draxul12_GLOBAL__N_124first_binding_for_actionERKNSt3__16vectorINS_13GuiKeybindingENS1_9allocatorIS3_EEEENS1_17basic_string_viewIcNS1_11char_traitsIcEEEEENK3$_0clERKS3_
FN:76,app_config_io.cpp:_ZN6draxul12_GLOBAL__N_111config_pathEv
FN:647,app_config_io.cpp:_ZZN6draxul15apply_overridesERNS_9AppConfigERKNS_18AppConfigOverridesEENK3$_0clIiNSt3__18optionalIiEEEEDaRT_RKT0_
FN:647,app_config_io.cpp:_ZZN6draxul15apply_overridesERNS_9AppConfigERKNS_18AppConfigOverridesEENK3$_0clIfNSt3__18optionalIfEEEEDaRT_RKT0_
FN:647,app_config_io.cpp:_ZZN6draxul15apply_overridesERNS_9AppConfigERKNS_18AppConfigOverridesEENK3$_0clIbNSt3__18optionalIbEEEEDaRT_RKT0_
FN:647,app_config_io.cpp:_ZZN6draxul15apply_overridesERNS_9AppConfigERKNS_18AppConfigOverridesEENK3$_0clINSt3__112basic_stringIcNS7_11char_traitsIcEENS7_9allocatorIcEEEENS7_8optionalISD_EEEEDaRT_RKT0_
FN:647,app_config_io.cpp:_ZZN6draxul15apply_overridesERNS_9AppConfigERKNS_18AppConfigOverridesEENK3$_0clINSt3__16vectorINS7_12basic_stringIcNS7_11char_traitsIcEENS7_9allocatorIcEEEENSC_ISE_EEEENS7_8optionalISG_EEEEDaRT_RKT0_
FNDA:19,_ZN6draxul15parse_hex_colorENSt3__117basic_string_viewIcNS0_11char_traitsIcEEEE
FNDA:201,_ZN6draxul9AppConfigC2Ev
FNDA:50,_ZN6draxul9AppConfig5parseENSt3__117basic_string_viewIcNS1_11char_traitsIcEEEE
FNDA:9,_ZNK6draxul9AppConfig9serializeEv
FNDA:2,_ZN6draxul9AppConfig4loadEv
FNDA:0,_ZNK6draxul9AppConfig4saveEv
FNDA:13,_ZN6draxul9AppConfig14load_from_pathERKNSt3__14__fs10filesystem4pathE
FNDA:3,_ZNK6draxul9AppConfig12save_to_pathERKNSt3__14__fs10filesystem4pathE
FNDA:38,_ZN6draxul15apply_overridesERNS_9AppConfigERKNS_18AppConfigOverridesE
FNDA:68,app_config_io.cpp:_ZZN6draxul15parse_hex_colorENSt3__117basic_string_viewIcNS0_11char_traitsIcEEEEENK3$_0clEc
FNDA:57,app_config_io.cpp:_ZN6draxul12_GLOBAL__N_116config_from_tomlERKN4toml2v35tableE
FNDA:171,app_config_io.cpp:_ZZN6draxul12_GLOBAL__N_116config_from_tomlERKN4toml2v35tableEENK3$_0clEPKc
FNDA:57,app_config_io.cpp:_ZZN6draxul12_GLOBAL__N_116config_from_tomlERKN4toml2v35tableEENK3$_1clEv
FNDA:114,app_config_io.cpp:_ZZN6draxul12_GLOBAL__N_116config_from_tomlERKN4toml2v35tableEENK3$_2clEPKc
FNDA:171,app_config_io.cpp:_ZZN6draxul12_GLOBAL__N_116config_from_tomlERKN4toml2v35tableEENK3$_3clEPKc
FNDA:228,app_config_io.cpp:_ZZN6draxul12_GLOBAL__N_116config_from_tomlERKN4toml2v35tableEENK3$_4clEPKc
FNDA:57,app_config_io.cpp:_ZZN6draxul12_GLOBAL__N_116config_from_tomlERKN4toml2v35tableEENK3$_5clEPKc
FNDA:114,app_config_io.cpp:_ZN6draxul12_GLOBAL__N_122parse_window_dimensionERKN4toml2v35tableEPKciii
FNDA:57,app_config_io.cpp:_ZN6draxul12_GLOBAL__N_115parse_font_sizeERKN4toml2v35tableEf
FNDA:57,app_config_io.cpp:_ZN6draxul12_GLOBAL__N_116parse_atlas_sizeERKN4toml2v35tableEi
FNDA:57,app_config_io.cpp:_ZN6draxul12_GLOBAL__N_122parse_enable_ligaturesERKN4toml2v35tableEb
FNDA:22,app_config_io.cpp:_ZN6draxul12_GLOBAL__N_121apply_gui_keybindingsERNS_9AppConfigERKN4toml2v35tableE
FNDA:3,app_config_io.cpp:_ZN6draxul12_GLOBAL__N_121remove_gui_keybindingERNSt3__16vectorINS_13GuiKeybindingENS1_9allocatorIS3_EEEENS1_17basic_string_viewIcNS1_11char_traitsIcEEEE
FNDA:93,app_config_io.cpp:_ZZN6draxul12_GLOBAL__N_121remove_gui_keybindingERNSt3__16vectorINS_13GuiKeybindingENS1_9allocatorIS3_EEEENS1_17basic_string_viewIcNS1_11char_traitsIcEEEEENK3$_0clERKS3_
FNDA:122,app_config_io.cpp:_ZN6draxul12_GLOBAL__N_122replace_gui_keybindingERNSt3__16vectorINS_13GuiKeybindingENS1_9allocatorIS3_EEEES3_
FNDA:3790,app_config_io.cpp:_ZZN6draxul12_GLOBAL__N_122replace_gui_keybindingERNSt3__16vectorINS_13GuiKeybindingENS1_9allocatorIS3_EEEES3_ENK3$_0clERKS3_
FNDA:3,app_config_io.cpp:_ZN6draxul12_GLOBAL__N_124apply_terminal_overridesERNS_9AppConfigERKN4toml2v35tableE
FNDA:18,app_config_io.cpp:_ZN6draxul12_GLOBAL__N_122clamp_window_dimensionEiiii
FNDA:22,app_config_io.cpp:_ZN6draxul12_GLOBAL__N_121floor_to_power_of_twoEi
FNDA:189,app_config_io.cpp:_ZN6draxul12_GLOBAL__N_124first_binding_for_actionERKNSt3__16vectorINS_13GuiKeybindingENS1_9allocatorIS3_EEEENS1_17basic_string_viewIcNS1_11char_traitsIcEEEE
FNDA:2277,app_config_io.cpp:_ZZN6draxul12_GLOBAL__N_124first_binding_for_actionERKNSt3__16vectorINS_13GuiKeybindingENS1_9allocatorIS3_EEEENS1_17basic_string_viewIcNS1_11char_traitsIcEEEEENK3$_0clERKS3_
FNDA:2,app_config_io.cpp:_ZN6draxul12_GLOBAL__N_111config_pathEv
FNDA:114,app_config_io.cpp:_ZZN6draxul15apply_overridesERNS_9AppConfigERKNS_18AppConfigOverridesEENK3$_0clIiNSt3__18optionalIiEEEEDaRT_RKT0_
FNDA:38,app_config_io.cpp:_ZZN6draxul15apply_overridesERNS_9AppConfigERKNS_18AppConfigOverridesEENK3$_0clIfNSt3__18optionalIfEEEEDaRT_RKT0_
FNDA:38,app_config_io.cpp:_ZZN6draxul15apply_overridesERNS_9AppConfigERKNS_18AppConfigOverridesEENK3$_0clIbNSt3__18optionalIbEEEEDaRT_RKT0_
FNDA:152,app_config_io.cpp:_ZZN6draxul15apply_overridesERNS_9AppConfigERKNS_18AppConfigOverridesEENK3$_0clINSt3__112basic_stringIcNS7_11char_traitsIcEENS7_9allocatorIcEEEENS7_8optionalISD_EEEEDaRT_RKT0_
FNDA:38,app_config_io.cpp:_ZZN6draxul15apply_overridesERNS_9AppConfigERKNS_18AppConfigOverridesEENK3$_0clINSt3__16vectorINS7_12basic_stringIcNS7_11char_traitsIcEENS7_9allocatorIcEEEENSC_ISE_EEEENS7_8optionalISG_EEEEDaRT_RKT0_
FNF:33
FNH:32
DA:76,2
DA:77,2
DA:89,2
DA:90,0
DA:91,0
DA:92,0
DA:93,0
DA:94,2
DA:95,2
DA:112,2
DA:115,114
DA:116,114
DA:117,26
DA:118,26
DA:119,2
DA:120,24
DA:121,26
DA:122,88
DA:123,114
DA:126,18
DA:127,18
DA:128,1
DA:129,17
DA:130,18
DA:133,22
DA:134,22
DA:135,22
DA:136,0
DA:137,22
DA:138,266
DA:139,244
DA:140,22
DA:141,22
DA:144,57
DA:145,57
DA:146,57
DA:147,13
DA:148,13
DA:149,13
DA:150,13
DA:151,44
DA:152,57
DA:155,122
DA:156,122
DA:157,3790
DA:158,122
DA:159,122
DA:162,3
DA:163,3
DA:164,3
DA:165,93
DA:166,3
DA:167,3
DA:170,189
DA:171,189
DA:172,189
DA:173,2277
DA:174,189
DA:175,189
DA:178,57
DA:179,57
DA:181,57
DA:182,14
DA:183,43
DA:184,0
DA:185,43
DA:186,43
DA:189,57
DA:190,57
DA:191,57
DA:194,22
DA:195,22
DA:196,22
DA:197,126
DA:198,126
DA:199,0
DA:201,126
DA:202,126
DA:203,126
DA:204,0
DA:206,126
DA:207,3
DA:208,3
DA:209,2
DA:210,2
DA:211,2
DA:212,2
DA:213,3
DA:214,3
DA:216,123
DA:217,122
DA:218,123
DA:219,22
DA:222,3
DA:223,3
DA:224,3
DA:225,3
DA:226,3
DA:227,2
DA:228,1
DA:229,1
DA:230,3
DA:232,3
DA:233,3
DA:234,3
DA:235,3
DA:236,0
DA:237,0
DA:238,3
DA:239,3
DA:242,57
DA:243,57
DA:244,57
DA:247,171
DA:248,171
DA:249,171
DA:250,1
DA:251,171
DA:252,114
DA:253,114
DA:254,114
DA:255,1
DA:256,114
DA:257,228
DA:258,228
DA:259,228
DA:260,0
DA:261,228
DA:262,57
DA:263,57
DA:264,57
DA:265,0
DA:266,57
DA:269,57
DA:270,57
DA:271,57
DA:272,1
DA:273,57
DA:274,171
DA:275,171
DA:276,171
DA:277,0
DA:278,171
DA:280,57
DA:281,57
DA:282,57
DA:283,57
DA:284,57
DA:285,57
DA:286,57
DA:287,57
DA:288,57
DA:289,57
DA:290,57
DA:291,57
DA:292,57
DA:293,57
DA:295,57
DA:296,57
DA:297,57
DA:298,57
DA:299,57
DA:300,57
DA:301,8
DA:303,57
DA:304,57
DA:305,57
DA:306,57
DA:307,57
DA:308,11
DA:309,46
DA:310,0
DA:311,57
DA:312,11
DA:313,11
DA:314,3
DA:315,3
DA:316,3
DA:317,3
DA:318,3
DA:319,3
DA:320,8
DA:321,8
DA:322,8
DA:323,8
DA:324,11
DA:325,57
DA:327,57
DA:328,57
DA:329,10
DA:330,57
DA:332,57
DA:333,57
DA:334,6
DA:335,51
DA:336,0
DA:337,57
DA:339,57
DA:340,4
DA:341,57
DA:342,0
DA:343,57
DA:344,0
DA:345,57
DA:346,0
DA:347,57
DA:348,5
DA:350,57
DA:351,22
DA:354,1826
DA:355,1769
DA:356,28339
DA:357,26570
DA:358,26570
DA:359,26570
DA:360,26570
DA:361,26570
DA:362,4
DA:363,26570
DA:364,26570
DA:365,26570
DA:366,26570
DA:367,1769
DA:370,57
DA:371,3
DA:374,57
DA:375,144
DA:376,144
DA:377,144
DA:378,144
DA:379,2
DA:380,142
DA:381,8
DA:382,142
DA:384,57
DA:385,57
DA:392,19
DA:393,19
DA:394,19
DA:395,3
DA:397,16
DA:399,68
DA:400,68
DA:401,28
DA:402,40
DA:403,32
DA:404,8
DA:405,6
DA:406,2
DA:407,8
DA:409,16
DA:410,11
DA:411,11
DA:412,71
DA:413,61
DA:414,61
DA:415,61
DA:416,1
DA:417,61
DA:418,10
DA:419,10
DA:420,10
DA:421,10
DA:422,11
DA:424,5
DA:425,3
DA:426,3
DA:427,9
DA:428,7
DA:429,7
DA:430,7
DA:431,1
DA:432,7
DA:434,2
DA:435,2
DA:436,2
DA:437,3
DA:439,2
DA:440,5
DA:443,201
DA:444,201
DA:446,201
DA:447,201
DA:448,201
DA:449,201
DA:450,201
DA:451,201
DA:452,201
DA:453,201
DA:456,201
DA:457,201
DA:459,201
DA:460,201
DA:462,201
DA:463,201
DA:465,201
DA:466,201
DA:468,201
DA:469,201
DA:471,201
DA:472,201
DA:474,201
DA:475,201
DA:476,201
DA:477,201
DA:480,201
DA:481,201
DA:483,201
DA:484,201
DA:486,201
DA:487,201
DA:489,201
DA:490,201
DA:492,201
DA:493,201
DA:494,201
DA:495,201
DA:496,201
DA:497,201
DA:498,201
DA:499,201
DA:500,201
DA:501,201
DA:502,201
DA:505,50
DA:506,50
DA:507,50
DA:508,50
DA:509,0
DA:510,50
DA:513,9
DA:514,9
DA:515,9
DA:516,9
DA:517,9
DA:518,9
DA:519,9
DA:520,9
DA:521,9
DA:522,9
DA:523,9
DA:524,9
DA:525,9
DA:526,2
DA:527,9
DA:528,0
DA:529,9
DA:530,0
DA:531,9
DA:532,0
DA:533,9
DA:534,2
DA:535,2
DA:536,2
DA:537,2
DA:538,4
DA:539,2
DA:540,2
DA:542,9
DA:543,9
DA:544,189
DA:545,189
DA:546,154
DA:547,154
DA:548,154
DA:549,48
DA:550,48
DA:551,106
DA:552,106
DA:553,154
DA:554,154
DA:555,189
DA:556,9
DA:558,9
DA:559,1
DA:560,1
DA:561,1
DA:562,1
DA:563,1
DA:564,1
DA:565,1
DA:566,1
DA:568,9
DA:569,9
DA:570,9
DA:571,9
DA:574,2
DA:575,2
DA:576,2
DA:579,0
DA:580,0
DA:581,0
DA:584,13
DA:585,13
DA:586,13
DA:587,13
DA:588,13
DA:589,3
DA:591,10
DA:592,10
DA:593,10
DA:594,3
DA:595,3
DA:596,0
DA:597,3
DA:598,3
DA:599,3
DA:600,3
DA:602,7
DA:603,10
DA:604,13
DA:605,13
DA:606,0
DA:607,0
DA:608,0
DA:609,13
DA:610,13
DA:611,0
DA:612,0
DA:613,0
DA:614,13
DA:617,3
DA:618,3
DA:619,3
DA:620,3
DA:621,3
DA:622,3
DA:623,3
DA:624,0
DA:625,0
DA:626,0
DA:627,0
DA:629,3
DA:630,3
DA:631,0
DA:632,3
DA:633,3
DA:634,3
DA:635,1
DA:636,1
DA:637,3
DA:638,3
DA:639,0
DA:640,0
DA:641,3
DA:644,38
DA:645,38
DA:647,380
DA:648,380
DA:649,27
DA:650,380
DA:651,38
DA:652,38
DA:653,38
DA:654,38
DA:655,38
DA:656,38
DA:657,38
DA:658,38
DA:659,38
DA:660,38
DA:661,38
BRDA:89,0,0,0
BRDA:89,0,1,2
BRDA:89,1,2,0
BRDA:89,1,3,2
BRDA:94,0,0,2
BRDA:94,0,1,0
BRDA:116,0,0,26
BRDA:116,0,1,88
BRDA:118,0,0,1
BRDA:118,0,1,25
BRDA:118,1,2,1
BRDA:118,1,3,24
BRDA:127,0,0,0
BRDA:127,0,1,18
BRDA:127,1,2,1
BRDA:127,1,3,17
BRDA:135,0,0,0
BRDA:135,0,1,22
BRDA:138,0,0,244
BRDA:138,0,1,22
BRDA:146,0,0,13
BRDA:146,0,1,44
BRDA:174,0,0,154
BRDA:174,0,1,35
BRDA:181,0,0,14
BRDA:181,0,1,43
BRDA:183,0,0,0
BRDA:183,0,1,43
BRDA:196,0,0,126
BRDA:196,0,1,22
BRDA:198,0,0,0
BRDA:198,0,1,126
BRDA:203,0,0,0
BRDA:203,0,1,126
BRDA:206,0,0,3
BRDA:206,0,1,123
BRDA:208,0,0,2
BRDA:208,0,1,1
BRDA:216,0,0,122
BRDA:216,0,1,1
BRDA:224,0,0,3
BRDA:224,0,1,0
BRDA:226,0,0,2
BRDA:226,0,1,1
BRDA:232,0,0,3
BRDA:232,0,1,0
BRDA:234,0,0,3
BRDA:234,0,1,0
BRDA:249,0,0,40
BRDA:249,0,1,131
BRDA:249,1,2,1
BRDA:249,1,3,39
BRDA:254,0,0,18
BRDA:254,0,1,96
BRDA:254,1,2,1
BRDA:254,1,3,17
BRDA:259,0,0,4
BRDA:259,0,1,224
BRDA:259,1,2,0
BRDA:259,1,3,4
BRDA:264,0,0,5
BRDA:264,0,1,52
BRDA:264,1,2,0
BRDA:264,1,3,5
BRDA:271,0,0,15
BRDA:271,0,1,42
BRDA:271,1,2,10
BRDA:271,1,3,5
BRDA:271,2,4,1
BRDA:271,2,5,9
BRDA:276,0,0,27
BRDA:276,0,1,144
BRDA:276,1,2,27
BRDA:276,1,3,0
BRDA:276,2,4,0
BRDA:276,2,5,27
BRDA:300,0,0,8
BRDA:300,0,1,49
BRDA:307,0,0,11
BRDA:307,0,1,46
BRDA:309,0,0,0
BRDA:309,0,1,46
BRDA:311,0,0,11
BRDA:311,0,1,46
BRDA:313,0,0,2
BRDA:313,0,1,9
BRDA:313,1,2,1
BRDA:313,1,3,8
BRDA:328,0,0,10
BRDA:328,0,1,47
BRDA:333,0,0,6
BRDA:333,0,1,51
BRDA:335,0,0,0
BRDA:335,0,1,51
BRDA:339,0,0,4
BRDA:339,0,1,53
BRDA:341,0,0,0
BRDA:341,0,1,57
BRDA:343,0,0,0
BRDA:343,0,1,57
BRDA:345,0,0,0
BRDA:345,0,1,57
BRDA:347,0,0,5
BRDA:347,0,1,52
BRDA:350,0,0,22
BRDA:350,0,1,35
BRDA:354,0,0,1769
BRDA:354,0,1,57
BRDA:356,0,0,26570
BRDA:356,0,1,1769
BRDA:360,0,0,13536
BRDA:360,0,1,13034
BRDA:360,1,2,13536
BRDA:360,1,3,0
BRDA:361,0,0,61
BRDA:361,0,1,13475
BRDA:361,1,2,4
BRDA:361,1,3,57
BRDA:370,0,0,3
BRDA:370,0,1,54
BRDA:374,0,0,144
BRDA:374,0,1,57
BRDA:378,0,0,10
BRDA:378,0,1,134
BRDA:378,1,2,2
BRDA:378,1,3,8
BRDA:380,0,0,8
BRDA:380,0,1,134
BRDA:394,0,0,1
BRDA:394,0,1,18
BRDA:394,1,2,2
BRDA:394,1,3,16
BRDA:400,0,0,68
BRDA:400,0,1,0
BRDA:400,1,2,28
BRDA:400,1,3,40
BRDA:402,0,0,34
BRDA:402,0,1,6
BRDA:402,1,2,32
BRDA:402,1,3,2
BRDA:404,0,0,8
BRDA:404,0,1,0
BRDA:404,1,2,6
BRDA:404,1,3,2
BRDA:409,0,0,11
BRDA:409,0,1,5
BRDA:412,0,0,61
BRDA:412,0,1,10
BRDA:415,0,0,1
BRDA:415,0,1,60
BRDA:424,0,0,3
BRDA:424,0,1,2
BRDA:427,0,0,7
BRDA:427,0,1,2
BRDA:430,0,0,1
BRDA:430,0,1,6
BRDA:507,0,0,50
BRDA:507,0,1,0
BRDA:525,0,0,2
BRDA:525,0,1,7
BRDA:527,0,0,0
BRDA:527,0,1,9
BRDA:529,0,0,0
BRDA:529,0,1,9
BRDA:531,0,0,0
BRDA:531,0,1,9
BRDA:533,0,0,2
BRDA:533,0,1,7
BRDA:537,0,0,4
BRDA:537,0,1,2
BRDA:543,0,0,189
BRDA:543,0,1,9
BRDA:545,0,0,154
BRDA:545,0,1,35
BRDA:548,0,0,48
BRDA:548,0,1,106
BRDA:558,0,0,1
BRDA:558,0,1,8
BRDA:558,1,2,0
BRDA:558,1,3,8
BRDA:561,0,0,1
BRDA:561,0,1,0
BRDA:563,0,0,1
BRDA:563,0,1,0
BRDA:588,0,0,3
BRDA:588,0,1,10
BRDA:593,0,0,3
BRDA:593,0,1,7
BRDA:595,0,0,0
BRDA:595,0,1,3
BRDA:623,0,0,0
BRDA:623,0,1,3
BRDA:630,0,0,0
BRDA:630,0,1,3
BRDA:648,0,0,2
BRDA:648,0,1,112
BRDA:648,1,2,2
BRDA:648,1,3,36
BRDA:648,2,4,1
BRDA:648,2,5,37
BRDA:648,3,6,21
BRDA:648,3,7,131
BRDA:648,4,8,1
BRDA:648,4,9,37
BRF:196
BRH:163
LF:508
LH:469
end_of_record
SF:/Users/runner/work/Draxul/Draxul/libs/draxul-config/src/config_document.cpp
FN:58,_ZN6draxul14ConfigDocument12default_pathEv
FN:97,_ZN6draxul14ConfigDocument4loadEv
FN:102,_ZN6draxul14ConfigDocument14load_from_pathERKNSt3__14__fs10filesystem4pathE
FN:137,_ZNK6draxul14ConfigDocument4saveEv
FN:142,_ZNK6draxul14ConfigDocument12save_to_pathERKNSt3__14__fs10filesystem4pathE
FN:169,_ZNK6draxul14ConfigDocument10find_tableENSt3__117basic_string_viewIcNS1_11char_traitsIcEEEE
FN:185,_ZN6draxul14ConfigDocument12ensure_tableENSt3__117basic_string_viewIcNS1_11char_traitsIcEEEE
FN:205,_ZN6draxul14ConfigDocument17merge_core_configERKNS_9AppConfigE
FN:38,config_document.cpp:_ZN6draxul12_GLOBAL__N_117split_dotted_pathENSt3__117basic_string_viewIcNS1_11char_traitsIcEEEE
FNDA:14,_ZN6draxul14ConfigDocument12default_pathEv
FNDA:4,_ZN6draxul14ConfigDocument4loadEv
FNDA:5,_ZN6draxul14ConfigDocument14load_from_pathERKNSt3__14__fs10filesystem4pathE
FNDA:1,_ZNK6draxul14ConfigDocument4saveEv
FNDA:2,_ZNK6draxul14ConfigDocument12save_to_pathERKNSt3__14__fs10filesystem4pathE
FNDA:4,_ZNK6draxul14ConfigDocument10find_tableENSt3__117basic_string_viewIcNS1_11char_traitsIcEEEE
FNDA:2,_ZN6draxul14ConfigDocument12ensure_tableENSt3__117basic_string_viewIcNS1_11char_traitsIcEEEE
FNDA:1,_ZN6draxul14ConfigDocument17merge_core_configERKNS_9AppConfigE
FNDA:6,config_document.cpp:_ZN6draxul12_GLOBAL__N_117split_dotted_pathENSt3__117basic_string_viewIcNS1_11char_traitsIcEEEE
FNF:9
FNH:9
DA:38,6
DA:39,6
DA:40,6
DA:41,8
DA:42,8
DA:43,8
DA:44,8
DA:45,6
DA:46,6
DA:47,6
DA:48,6
DA:49,2
DA:50,2
DA:51,2
DA:52,6
DA:53,6
DA:58,14
DA:59,14
DA:71,14
DA:72,0
DA:73,0
DA:74,0
DA:75,0
DA:76,14
DA:77,14
DA:94,14
DA:97,4
DA:98,4
DA:99,4
DA:102,5
DA:103,5
DA:104,5
DA:105,5
DA:106,5
DA:107,5
DA:108,0
DA:110,5
DA:111,5
DA:112,5
DA:113,0
DA:114,0
DA:115,0
DA:116,0
DA:117,0
DA:118,0
DA:119,0
DA:121,5
DA:122,5
DA:123,5
DA:124,5
DA:125,5
DA:126,0
DA:127,0
DA:128,0
DA:129,5
DA:130,5
DA:131,0
DA:132,0
DA:133,0
DA:134,5
DA:137,1
DA:138,1
DA:139,1
DA:142,2
DA:143,2
DA:144,2
DA:145,2
DA:146,2
DA:147,2
DA:148,2
DA:149,0
DA:150,0
DA:151,0
DA:152,0
DA:154,2
DA:155,2
DA:156,0
DA:157,2
DA:158,2
DA:159,2
DA:160,0
DA:161,0
DA:162,2
DA:163,2
DA:164,0
DA:165,0
DA:166,2
DA:169,4
DA:170,4
DA:171,4
DA:172,4
DA:173,6
DA:174,6
DA:175,0
DA:176,6
DA:177,6
DA:178,6
DA:179,1
DA:180,6
DA:181,3
DA:182,4
DA:185,2
DA:186,2
DA:187,2
DA:188,2
DA:189,2
DA:190,2
DA:191,0
DA:192,2
DA:193,2
DA:194,2
DA:195,1
DA:196,1
DA:197,1
DA:198,1
DA:199,2
DA:200,2
DA:201,2
DA:202,2
DA:205,1
DA:206,1
DA:207,1
DA:208,1
DA:209,1
DA:210,0
DA:211,0
DA:212,0
DA:213,0
DA:215,1
DA:216,15
DA:217,15
DA:218,15
DA:219,9
DA:220,15
DA:221,1
BRDA:41,0,0,8
BRDA:41,0,1,0
BRDA:44,0,0,6
BRDA:44,0,1,2
BRDA:71,0,0,0
BRDA:71,0,1,14
BRDA:71,1,2,0
BRDA:71,1,3,14
BRDA:76,0,0,14
BRDA:76,0,1,0
BRDA:107,0,0,0
BRDA:107,0,1,5
BRDA:112,0,0,0
BRDA:112,0,1,5
BRDA:114,0,0,-
BRDA:114,0,1,-
BRDA:148,0,0,0
BRDA:148,0,1,2
BRDA:155,0,0,0
BRDA:155,0,1,2
BRDA:172,0,0,6
BRDA:172,0,1,3
BRDA:174,0,0,0
BRDA:174,0,1,6
BRDA:178,0,0,1
BRDA:178,0,1,5
BRDA:188,0,0,2
BRDA:188,0,1,2
BRDA:190,0,0,0
BRDA:190,0,1,2
BRDA:194,0,0,1
BRDA:194,0,1,1
BRDA:209,0,0,0
BRDA:209,0,1,1
BRDA:215,0,0,15
BRDA:215,0,1,1
BRDA:218,0,0,9
BRDA:218,0,1,6
BRF:38
BRH:25
LF:135
LH:102
end_of_record
SF:/Users/runner/work/Draxul/Draxul/libs/draxul-config/src/keybinding_parser.cpp
FN:204,_ZN6draxul20parse_gui_keybindingENSt3__117basic_string_viewIcNS0_11char_traitsIcEEEES4_
FN:229,_ZN6draxul27format_gui_keybinding_comboEij
FN:253,_ZN6draxul22gui_keybinding_matchesERKNS_13GuiKeybindingERKNS_8KeyEventE
FN:269,_ZN6draxul18gui_prefix_matchesERKNS_13GuiKeybindingERKNS_8KeyEventE
FN:62,keybinding_parser.cpp:_ZN6draxul12_GLOBAL__N_119is_known_gui_actionENSt3__117basic_string_viewIcNS1_11char_traitsIcEEEE
FN:173,keybinding_parser.cpp:_ZN6draxul12_GLOBAL__N_114parse_key_halfENSt3__117basic_string_viewIcNS1_11char_traitsIcEEEE
FN:81,keybinding_parser.cpp:_ZN6draxul12_GLOBAL__N_115split_key_comboENSt3__117basic_string_viewIcNS1_11char_traitsIcEEEE
FN:109,keybinding_parser.cpp:_ZN6draxul12_GLOBAL__N_120parse_modifier_tokenENSt3__117basic_string_viewIcNS1_11char_traitsIcEEEE
FN:67,keybinding_parser.cpp:_ZN6draxul12_GLOBAL__N_118equals_ignore_caseENSt3__117basic_string_viewIcNS1_11char_traitsIcEEEES5_
FN:123,keybinding_parser.cpp:_ZN6draxul12_GLOBAL__N_115parse_key_tokenENSt3__117basic_string_viewIcNS1_11char_traitsIcEEEE
FN:44,keybinding_parser.cpp:_ZN6draxul12_GLOBAL__N_123normalize_gui_modifiersEj
FN:233,keybinding_parser.cpp:_ZZN6draxul27format_gui_keybinding_comboEijENK3$_0clEjNSt3__117basic_string_viewIcNS1_11char_traitsIcEEEE
FN:150,keybinding_parser.cpp:_ZN6draxul12_GLOBAL__N_116format_key_tokenEi
FNDA:171,_ZN6draxul20parse_gui_keybindingENSt3__117basic_string_viewIcNS0_11char_traitsIcEEEES4_
FNDA:215,_ZN6draxul27format_gui_keybinding_comboEij
FNDA:428,_ZN6draxul22gui_keybinding_matchesERKNS_13GuiKeybindingERKNS_8KeyEventE
FNDA:40,_ZN6draxul18gui_prefix_matchesERKNS_13GuiKeybindingERKNS_8KeyEventE
FNDA:171,keybinding_parser.cpp:_ZN6draxul12_GLOBAL__N_119is_known_gui_actionENSt3__117basic_string_viewIcNS1_11char_traitsIcEEEE
FNDA:198,keybinding_parser.cpp:_ZN6draxul12_GLOBAL__N_114parse_key_halfENSt3__117basic_string_viewIcNS1_11char_traitsIcEEEE
FNDA:198,keybinding_parser.cpp:_ZN6draxul12_GLOBAL__N_115split_key_comboENSt3__117basic_string_viewIcNS1_11char_traitsIcEEEE
FNDA:187,keybinding_parser.cpp:_ZN6draxul12_GLOBAL__N_120parse_modifier_tokenENSt3__117basic_string_viewIcNS1_11char_traitsIcEEEE
FNDA:1013,keybinding_parser.cpp:_ZN6draxul12_GLOBAL__N_118equals_ignore_caseENSt3__117basic_string_viewIcNS1_11char_traitsIcEEEES5_
FNDA:193,keybinding_parser.cpp:_ZN6draxul12_GLOBAL__N_115parse_key_tokenENSt3__117basic_string_viewIcNS1_11char_traitsIcEEEE
FNDA:1263,keybinding_parser.cpp:_ZN6draxul12_GLOBAL__N_123normalize_gui_modifiersEj
FNDA:860,keybinding_parser.cpp:_ZZN6draxul27format_gui_keybinding_comboEijENK3$_0clEjNSt3__117basic_string_viewIcNS1_11char_traitsIcEEEE
FNDA:215,keybinding_parser.cpp:_ZN6draxul12_GLOBAL__N_116format_key_tokenEi
FNF:13
FNH:13
DA:44,1263
DA:45,1263
DA:49,1263
DA:50,1263
DA:51,204
DA:52,1263
DA:53,638
DA:54,1263
DA:55,38
DA:56,1263
DA:57,3
DA:58,1263
DA:59,1263
DA:62,171
DA:63,171
DA:64,171
DA:67,1013
DA:68,1013
DA:69,1013
DA:70,817
DA:72,964
DA:73,779
DA:74,779
DA:75,11
DA:76,779
DA:77,185
DA:78,196
DA:81,198
DA:82,198
DA:83,198
DA:84,198
DA:85,387
DA:86,387
DA:87,387
DA:88,387
DA:89,387
DA:90,387
DA:91,387
DA:92,387
DA:93,389
DA:94,2
DA:95,389
DA:96,2
DA:97,387
DA:98,3
DA:99,384
DA:100,384
DA:101,195
DA:102,189
DA:103,189
DA:105,195
DA:106,198
DA:109,187
DA:110,187
DA:111,187
DA:112,135
DA:113,52
DA:114,35
DA:115,17
DA:116,12
DA:117,5
DA:118,3
DA:119,2
DA:120,5
DA:123,193
DA:124,193
DA:125,193
DA:126,0
DA:128,193
DA:129,10
DA:130,183
DA:131,13
DA:132,170
DA:133,0
DA:134,170
DA:135,1
DA:137,169
DA:138,169
DA:139,168
DA:141,1
DA:142,7
DA:143,1
DA:144,0
DA:146,1
DA:147,1
DA:150,215
DA:151,215
DA:152,215
DA:153,215
DA:154,10
DA:155,10
DA:156,17
DA:157,17
DA:158,0
DA:159,0
DA:160,188
DA:161,188
DA:162,215
DA:164,188
DA:165,188
DA:166,0
DA:167,188
DA:168,188
DA:173,198
DA:174,198
DA:176,234
DA:177,36
DA:178,200
DA:179,2
DA:181,198
DA:182,198
DA:183,3
DA:185,195
DA:186,380
DA:187,187
DA:188,187
DA:189,187
DA:190,2
DA:191,185
DA:192,185
DA:194,193
DA:195,193
DA:196,1
DA:198,192
DA:199,193
DA:204,171
DA:205,171
DA:206,171
DA:207,4
DA:210,167
DA:211,31
DA:212,31
DA:213,31
DA:214,31
DA:215,31
DA:216,31
DA:217,0
DA:218,31
DA:219,31
DA:222,136
DA:223,136
DA:224,6
DA:225,130
DA:226,136
DA:229,215
DA:230,215
DA:231,215
DA:232,215
DA:233,860
DA:234,860
DA:235,670
DA:236,190
DA:237,35
DA:238,190
DA:239,190
DA:241,215
DA:242,215
DA:243,215
DA:244,215
DA:246,215
DA:247,155
DA:248,215
DA:249,215
DA:250,215
DA:253,428
DA:254,428
DA:255,428
DA:256,428
DA:258,428
DA:259,32
DA:262,396
DA:263,396
DA:264,396
DA:265,396
DA:266,428
DA:269,40
DA:270,40
DA:271,40
DA:272,21
DA:273,19
DA:274,19
DA:275,40
BRDA:50,0,0,204
BRDA:50,0,1,1059
BRDA:52,0,0,638
BRDA:52,0,1,625
BRDA:54,0,0,38
BRDA:54,0,1,1225
BRDA:56,0,0,3
BRDA:56,0,1,1260
BRDA:69,0,0,817
BRDA:69,0,1,196
BRDA:72,0,0,779
BRDA:72,0,1,185
BRDA:74,0,0,11
BRDA:74,0,1,768
BRDA:85,0,0,387
BRDA:85,0,1,0
BRDA:88,0,0,198
BRDA:88,0,1,189
BRDA:93,0,0,386
BRDA:93,0,1,3
BRDA:93,1,2,2
BRDA:93,1,3,384
BRDA:95,0,0,386
BRDA:95,0,1,3
BRDA:95,1,2,2
BRDA:95,1,3,384
BRDA:97,0,0,3
BRDA:97,0,1,384
BRDA:100,0,0,195
BRDA:100,0,1,189
BRDA:111,0,0,134
BRDA:111,0,1,53
BRDA:111,1,2,1
BRDA:111,1,3,52
BRDA:113,0,0,35
BRDA:113,0,1,17
BRDA:115,0,0,12
BRDA:115,0,1,5
BRDA:117,0,0,1
BRDA:117,0,1,4
BRDA:117,1,2,1
BRDA:117,1,3,3
BRDA:117,2,4,1
BRDA:117,2,5,2
BRDA:125,0,0,0
BRDA:125,0,1,193
BRDA:128,0,0,10
BRDA:128,0,1,183
BRDA:128,1,2,0
BRDA:128,1,3,183
BRDA:130,0,0,13
BRDA:130,0,1,170
BRDA:130,1,2,0
BRDA:130,1,3,170
BRDA:132,0,0,0
BRDA:132,0,1,170
BRDA:132,1,2,0
BRDA:132,1,3,170
BRDA:134,0,0,1
BRDA:134,0,1,169
BRDA:134,1,2,0
BRDA:134,1,3,169
BRDA:138,0,0,168
BRDA:138,0,1,1
BRDA:141,0,0,7
BRDA:141,0,1,1
BRDA:143,0,0,0
BRDA:143,0,1,1
BRDA:154,0,0,10
BRDA:154,0,1,205
BRDA:156,0,0,17
BRDA:156,0,1,198
BRDA:158,0,0,0
BRDA:158,0,1,215
BRDA:160,0,0,188
BRDA:160,0,1,27
BRDA:165,0,0,0
BRDA:165,0,1,188
BRDA:165,1,2,0
BRDA:165,1,3,188
BRDA:176,0,0,232
BRDA:176,0,1,2
BRDA:176,1,2,36
BRDA:176,1,3,196
BRDA:178,0,0,198
BRDA:178,0,1,2
BRDA:178,1,2,2
BRDA:178,1,3,196
BRDA:182,0,0,3
BRDA:182,0,1,195
BRDA:186,0,0,187
BRDA:186,0,1,193
BRDA:189,0,0,2
BRDA:189,0,1,185
BRDA:195,0,0,1
BRDA:195,0,1,192
BRDA:206,0,0,4
BRDA:206,0,1,167
BRDA:210,0,0,31
BRDA:210,0,1,136
BRDA:216,0,0,0
BRDA:216,0,1,31
BRDA:216,1,2,0
BRDA:216,1,3,31
BRDA:223,0,0,6
BRDA:223,0,1,130
BRDA:234,0,0,670
BRDA:234,0,1,190
BRDA:236,0,0,35
BRDA:236,0,1,155
BRDA:246,0,0,155
BRDA:246,0,1,60
BRDA:258,0,0,36
BRDA:258,0,1,392
BRDA:258,1,2,32
BRDA:258,1,3,4
BRDA:262,0,0,21
BRDA:262,0,1,375
BRDA:263,0,0,1
BRDA:263,0,1,20
BRDA:264,0,0,1
BRDA:264,0,1,0
BRDA:265,0,0,1
BRDA:265,0,1,0
BRDA:271,0,0,21
BRDA:271,0,1,19
BRDA:273,0,0,0
BRDA:273,0,1,19
BRDA:274,0,0,-
BRDA:274,0,1,-
BRF:130
BRH:112
LF:189
LH:182
end_of_record
SF:/Users/runner/work/Draxul/Draxul/libs/draxul-font/include/draxul/text_service.h
FN:52,_ZN6draxul11TextService15resolve_clusterERKNSt3__112basic_stringIcNS1_11char_traitsIcEENS1_9allocatorIcEEEE
FN:57,_ZN6draxul11TextService18ligature_cell_spanERKNSt3__112basic_stringIcNS1_11char_traitsIcEENS1_9allocatorIcEEEE
FNDA:250,_ZN6draxul11TextService15resolve_clusterERKNSt3__112basic_stringIcNS1_11char_traitsIcEENS1_9allocatorIcEEEE
FNDA:2,_ZN6draxul11TextService18ligature_cell_spanERKNSt3__112basic_stringIcNS1_11char_traitsIcEENS1_9allocatorIcEEEE
FNF:2
FNH:2
DA:52,250
DA:53,250
DA:54,250
DA:57,2
DA:58,2
DA:59,2
BRF:0
BRH:0
LF:6
LH:6
end_of_record
SF:/Users/runner/work/Draxul/Draxul/libs/draxul-font/src/font_engine.h
FN:35,_ZNK6draxul11FontManager4faceEv
FN:39,_ZNK6draxul11FontManager7hb_fontEv
FN:43,_ZNK6draxul11FontManager7metricsEv
FN:47,_ZNK6draxul11FontManager10point_sizeEv
FN:108,_ZNK6draxul10GlyphCache15face_generationEv
FN:115,_ZNK6draxul10GlyphCache11atlas_dirtyEv
FN:119,_ZN6draxul10GlyphCache11clear_dirtyEv
FN:125,_ZNK6draxul10GlyphCache10atlas_dataEv
FN:129,_ZNK6draxul10GlyphCache11atlas_widthEv
FN:133,_ZNK6draxul10GlyphCache12atlas_heightEv
FN:137,_ZNK6draxul10GlyphCache11glyph_countEv
FN:141,_ZNK6draxul10GlyphCache11used_pixelsEv
FN:145,_ZNK6draxul10GlyphCache11usage_ratioEv
FN:150,_ZNK6draxul10GlyphCache10dirty_rectEv
FN:155,_ZN6draxul10GlyphCache18consume_overflowedEv
FN:23,_ZN6draxul11FontManagerC2Ev
FN:75,_ZN6draxul10TextShaperC2Ev
FN:167,_ZNK6draxul10GlyphCache10ClusterKeyeqERKS1_
FNDA:1315,_ZNK6draxul11FontManager4faceEv
FNDA:2074,_ZNK6draxul11FontManager7hb_fontEv
FNDA:312,_ZNK6draxul11FontManager7metricsEv
FNDA:400,_ZNK6draxul11FontManager10point_sizeEv
FNDA:0,_ZNK6draxul10GlyphCache15face_generationEv
FNDA:176,_ZNK6draxul10GlyphCache11atlas_dirtyEv
FNDA:174,_ZN6draxul10GlyphCache11clear_dirtyEv
FNDA:204,_ZNK6draxul10GlyphCache10atlas_dataEv
FNDA:205,_ZNK6draxul10GlyphCache11atlas_widthEv
FNDA:202,_ZNK6draxul10GlyphCache12atlas_heightEv
FNDA:5,_ZNK6draxul10GlyphCache11glyph_countEv
FNDA:0,_ZNK6draxul10GlyphCache11used_pixelsEv
FNDA:4,_ZNK6draxul10GlyphCache11usage_ratioEv
FNDA:3,_ZNK6draxul10GlyphCache10dirty_rectEv
FNDA:1,_ZN6draxul10GlyphCache18consume_overflowedEv
FNDA:1947,_ZN6draxul11FontManagerC2Ev
FNDA:3894,_ZN6draxul10TextShaperC2Ev
FNDA:357,_ZNK6draxul10GlyphCache10ClusterKeyeqERKS1_
FNF:18
FNH:16
DA:23,1947
DA:35,1315
DA:36,1315
DA:37,1315
DA:39,2074
DA:40,2074
DA:41,2074
DA:43,312
DA:44,312
DA:45,312
DA:47,400
DA:48,400
DA:49,400
DA:75,3894
DA:108,0
DA:109,0
DA:110,0
DA:115,176
DA:116,176
DA:117,176
DA:119,174
DA:120,174
DA:121,174
DA:122,174
DA:125,204
DA:126,204
DA:127,204
DA:129,205
DA:130,205
DA:131,205
DA:133,202
DA:134,202
DA:135,202
DA:137,5
DA:138,5
DA:139,5
DA:141,0
DA:142,0
DA:143,0
DA:145,4
DA:146,4
DA:147,4
DA:148,4
DA:150,3
DA:151,3
DA:152,3
DA:155,1
DA:156,1
DA:157,1
DA:158,1
DA:159,1
DA:167,357
BRDA:147,0,0,4
BRDA:147,0,1,0
BRF:2
BRH:1
LF:52
LH:46
end_of_record
SF:/Users/runner/work/Draxul/Draxul/libs/draxul-font/src/font_manager.cpp
FN:11,_ZN6draxul11FontManagerC2EOS0_
FN:16,_ZN6draxul11FontManageraSEOS0_
FN:40,_ZN6draxul11FontManager10initializeERKNSt3__112basic_stringIcNS1_11char_traitsIcEENS1_9allocatorIcEEEEff
FN:77,_ZN6draxul11FontManager14set_point_sizeEf
FN:93,_ZN6draxul11FontManager22select_best_fixed_sizeEv
FN:108,_ZN6draxul11FontManager14update_metricsEv
FN:122,_ZN6draxul11FontManager8shutdownEv
FNDA:0,_ZN6draxul11FontManagerC2EOS0_
FNDA:0,_ZN6draxul11FontManageraSEOS0_
FNDA:996,_ZN6draxul11FontManager10initializeERKNSt3__112basic_stringIcNS1_11char_traitsIcEENS1_9allocatorIcEEEEff
FNDA:45,_ZN6draxul11FontManager14set_point_sizeEf
FNDA:1037,_ZN6draxul11FontManager22select_best_fixed_sizeEv
FNDA:1037,_ZN6draxul11FontManager14update_metricsEv
FNDA:261,_ZN6draxul11FontManager8shutdownEv
FNF:7
FNH:5
DA:11,0
DA:12,0
DA:13,0
DA:16,0
DA:17,0
DA:18,0
DA:20,0
DA:22,0
DA:23,0
DA:24,0
DA:25,0
DA:26,0
DA:27,0
DA:29,0
DA:30,0
DA:31,0
DA:32,0
DA:33,0
DA:34,0
DA:36,0
DA:37,0
DA:40,996
DA:41,996
DA:42,996
DA:43,996
DA:45,996
DA:46,0
DA:47,0
DA:48,0
DA:49,0
DA:51,996
DA:52,4
DA:53,4
DA:54,4
DA:55,0
DA:56,4
DA:57,4
DA:58,4
DA:59,4
DA:61,992
DA:62,992
DA:64,992
DA:66,992
DA:67,992
DA:68,0
DA:69,0
DA:70,0
DA:71,0
DA:73,992
DA:74,992
DA:77,45
DA:78,45
DA:79,45
DA:80,45
DA:81,45
DA:83,45
DA:85,45
DA:86,45
DA:87,45
DA:89,45
DA:90,45
DA:93,1037
DA:94,1037
DA:95,1035
DA:97,2
DA:98,2
DA:99,18
DA:100,16
DA:101,16
DA:102,0
DA:103,16
DA:104,2
DA:105,2
DA:108,1037
DA:109,1037
DA:110,1037
DA:111,1037
DA:112,1037
DA:114,1037
DA:115,0
DA:116,0
DA:117,0
DA:118,0
DA:119,1037
DA:122,261
DA:123,261
DA:124,261
DA:125,229
DA:126,229
DA:127,229
DA:128,229
DA:129,261
DA:130,229
DA:131,229
DA:132,229
DA:133,229
DA:134,261
DA:135,233
DA:136,233
DA:137,233
DA:138,233
DA:139,261
BRDA:17,0,0,-
BRDA:17,0,1,-
BRDA:45,0,0,0
BRDA:45,0,1,996
BRDA:51,0,0,4
BRDA:51,0,1,992
BRDA:54,0,0,0
BRDA:54,0,1,4
BRDA:67,0,0,0
BRDA:67,0,1,992
BRDA:85,0,0,45
BRDA:85,0,1,0
BRDA:94,0,0,1035
BRDA:94,0,1,2
BRDA:94,1,2,0
BRDA:94,1,3,2
BRDA:99,0,0,16
BRDA:99,0,1,2
BRDA:101,0,0,0
BRDA:101,0,1,16
BRDA:114,0,0,0
BRDA:114,0,1,1037
BRDA:124,0,0,229
BRDA:124,0,1,32
BRDA:129,0,0,229
BRDA:129,0,1,32
BRDA:134,0,0,233
BRDA:134,0,1,28
BRF:28
BRH:19
LF:102
LH:67
end_of_record
SF:/Users/runner/work/Draxul/Draxul/libs/draxul-font/src/font_resolver.cpp
FN:17,_ZN6draxul6detail32default_fallback_font_candidatesEv
FN:50,_ZN6draxul6detail31default_primary_font_candidatesEv
FN:79,_ZN6draxul6detail19first_existing_pathERKNSt3__16vectorINS1_12basic_stringIcNS1_11char_traitsIcEENS1_9allocatorIcEEEENS6_IS8_EEEE
FN:89,_ZN6draxul6detail21auto_detect_bold_pathERKNSt3__112basic_stringIcNS1_11char_traitsIcEENS1_9allocatorIcEEEE
FN:108,_ZN6draxul6detail23auto_detect_italic_pathERKNSt3__112basic_stringIcNS1_11char_traitsIcEENS1_9allocatorIcEEEE
FN:127,_ZN6draxul6detail28auto_detect_bold_italic_pathERKNSt3__112basic_stringIcNS1_11char_traitsIcEENS1_9allocatorIcEEEE
FN:148,_ZN6draxul12FontResolver10initializeERKNS_17TextServiceConfigEff
FN:259,_ZN6draxul12FontResolver8shutdownEv
FN:296,_ZN6draxul12FontResolver14set_point_sizeEf
FN:339,_ZN6draxul12FontResolver13ensure_loadedEm
FN:361,_ZN6draxul12FontResolver19load_fallback_fontsEv
FNDA:248,_ZN6draxul6detail32default_fallback_font_candidatesEv
FNDA:0,_ZN6draxul6detail31default_primary_font_candidatesEv
FNDA:0,_ZN6draxul6detail19first_existing_pathERKNSt3__16vectorINS1_12basic_stringIcNS1_11char_traitsIcEENS1_9allocatorIcEEEENS6_IS8_EEEE
FNDA:251,_ZN6draxul6detail21auto_detect_bold_pathERKNSt3__112basic_stringIcNS1_11char_traitsIcEENS1_9allocatorIcEEEE
FNDA:251,_ZN6draxul6detail23auto_detect_italic_pathERKNSt3__112basic_stringIcNS1_11char_traitsIcEENS1_9allocatorIcEEEE
FNDA:251,_ZN6draxul6detail28auto_detect_bold_italic_pathERKNSt3__112basic_stringIcNS1_11char_traitsIcEENS1_9allocatorIcEEEE
FNDA:255,_ZN6draxul12FontResolver10initializeERKNS_17TextServiceConfigEff
FNDA:87,_ZN6draxul12FontResolver8shutdownEv
FNDA:21,_ZN6draxul12FontResolver14set_point_sizeEf
FNDA:56,_ZN6draxul12FontResolver13ensure_loadedEm
FNDA:251,_ZN6draxul12FontResolver19load_fallback_fontsEv
FNF:11
FNH:9
DA:17,248
DA:33,248
DA:34,248
DA:35,248
DA:36,248
DA:37,248
DA:47,248
DA:50,0
DA:74,0
DA:75,0
DA:76,0
DA:79,0
DA:80,0
DA:81,0
DA:82,0
DA:83,0
DA:84,0
DA:85,0
DA:86,0
DA:89,251
DA:90,251
DA:91,251
DA:92,251
DA:93,251
DA:94,251
DA:95,269
DA:96,269
DA:97,269
DA:98,251
DA:99,251
DA:100,251
DA:101,242
DA:102,251
DA:103,269
DA:104,9
DA:105,251
DA:108,251
DA:109,251
DA:110,251
DA:111,251
DA:112,251
DA:113,251
DA:114,269
DA:115,269
DA:116,269
DA:117,251
DA:118,251
DA:119,251
DA:120,242
DA:121,251
DA:122,269
DA:123,9
DA:124,251
DA:127,251
DA:128,251
DA:129,251
DA:130,251
DA:131,251
DA:132,251
DA:133,269
DA:134,269
DA:135,269
DA:136,251
DA:137,251
DA:138,251
DA:139,242
DA:140,251
DA:141,269
DA:142,9
DA:143,251
DA:148,255
DA:149,255
DA:150,255
DA:151,255
DA:152,0
DA:153,0
DA:154,0
DA:155,255
DA:156,255
DA:157,255
DA:158,255
DA:159,4
DA:160,255
DA:161,255
DA:162,0
DA:164,255
DA:165,4
DA:167,251
DA:168,251
DA:171,251
DA:172,251
DA:173,251
DA:174,251
DA:175,242
DA:176,242
DA:177,242
DA:178,242
DA:179,242
DA:180,242
DA:181,242
DA:182,242
DA:183,242
DA:184,0
DA:185,0
DA:186,0
DA:187,0
DA:188,242
DA:189,9
DA:190,0
DA:191,0
DA:192,0
DA:193,9
DA:194,9
DA:195,9
DA:196,9
DA:199,251
DA:200,251
DA:201,251
DA:202,251
DA:203,242
DA:204,242
DA:205,242
DA:206,242
DA:207,242
DA:208,242
DA:209,242
DA:210,242
DA:211,242
DA:212,0
DA:213,0
DA:214,0
DA:215,0
DA:216,242
DA:217,9
DA:218,0
DA:219,0
DA:220,0
DA:221,9
DA:222,9
DA:223,9
DA:224,9
DA:227,251
DA:228,251
DA:229,251
DA:230,251
DA:231,242
DA:232,242
DA:233,242
DA:234,242
DA:235,242
DA:236,242
DA:237,242
DA:238,242
DA:239,242
DA:240,0
DA:241,0
DA:242,0
DA:243,0
DA:244,242
DA:245,9
DA:246,0
DA:247,0
DA:248,0
DA:249,9
DA:250,9
DA:251,9
DA:252,9
DA:254,251
DA:255,251
DA:256,255
DA:259,87
DA:260,87
DA:261,87
DA:262,87
DA:263,223
DA:264,223
DA:265,208
DA:266,15
DA:267,15
DA:268,15
DA:269,15
DA:270,87
DA:271,87
DA:272,87
DA:273,53
DA:274,53
DA:275,53
DA:276,53
DA:277,53
DA:278,53
DA:279,87
DA:280,53
DA:281,53
DA:282,53
DA:283,53
DA:284,53
DA:285,53
DA:286,87
DA:287,53
DA:288,53
DA:289,53
DA:290,53
DA:291,53
DA:292,53
DA:293,87
DA:296,21
DA:297,21
DA:298,0
DA:300,21
DA:301,21
DA:303,21
DA:304,84
DA:305,84
DA:306,84
DA:307,0
DA:308,0
DA:309,0
DA:310,0
DA:311,21
DA:312,8
DA:313,8
DA:314,8
DA:315,8
DA:316,8
DA:317,8
DA:318,8
DA:319,21
DA:320,8
DA:321,8
DA:322,8
DA:323,8
DA:324,8
DA:325,8
DA:326,8
DA:327,21
DA:328,8
DA:329,8
DA:330,8
DA:331,8
DA:332,8
DA:333,8
DA:334,8
DA:335,21
DA:336,21
DA:339,56
DA:340,56
DA:341,56
DA:342,41
DA:343,15
DA:344,0
DA:346,15
DA:347,0
DA:348,0
DA:349,0
DA:350,0
DA:351,0
DA:353,15
DA:354,15
DA:355,15
DA:356,15
DA:357,15
DA:358,15
DA:361,251
DA:362,251
DA:364,251
DA:365,251
DA:366,251
DA:368,251
DA:369,251
DA:370,1007
DA:371,1007
DA:372,0
DA:373,0
DA:374,0
DA:375,0
DA:376,1007
DA:377,0
DA:378,0
DA:379,0
DA:380,0
DA:382,1007
DA:383,1007
DA:384,1007
DA:385,1007
DA:386,251
BRDA:80,0,0,-
BRDA:80,0,1,-
BRDA:82,0,0,-
BRDA:82,0,1,-
BRDA:90,0,0,269
BRDA:90,0,1,9
BRDA:97,0,0,251
BRDA:97,0,1,18
BRDA:100,0,0,242
BRDA:100,0,1,9
BRDA:109,0,0,269
BRDA:109,0,1,9
BRDA:116,0,0,251
BRDA:116,0,1,18
BRDA:119,0,0,242
BRDA:119,0,1,9
BRDA:128,0,0,269
BRDA:128,0,1,9
BRDA:135,0,0,251
BRDA:135,0,1,18
BRDA:138,0,0,242
BRDA:138,0,1,9
BRDA:151,0,0,0
BRDA:151,0,1,255
BRDA:158,0,0,4
BRDA:158,0,1,251
BRDA:161,0,0,0
BRDA:161,0,1,255
BRDA:164,0,0,4
BRDA:164,0,1,251
BRDA:172,0,0,251
BRDA:172,0,1,0
BRDA:174,0,0,242
BRDA:174,0,1,9
BRDA:174,1,2,242
BRDA:174,1,3,0
BRDA:176,0,0,242
BRDA:176,0,1,0
BRDA:189,0,0,0
BRDA:189,0,1,9
BRDA:200,0,0,251
BRDA:200,0,1,0
BRDA:202,0,0,242
BRDA:202,0,1,9
BRDA:202,1,2,242
BRDA:202,1,3,0
BRDA:204,0,0,242
BRDA:204,0,1,0
BRDA:217,0,0,0
BRDA:217,0,1,9
BRDA:228,0,0,251
BRDA:228,0,1,0
BRDA:230,0,0,242
BRDA:230,0,1,9
BRDA:230,1,2,242
BRDA:230,1,3,0
BRDA:232,0,0,242
BRDA:232,0,1,0
BRDA:245,0,0,0
BRDA:245,0,1,9
BRDA:262,0,0,223
BRDA:262,0,1,87
BRDA:264,0,0,208
BRDA:264,0,1,15
BRDA:272,0,0,53
BRDA:272,0,1,34
BRDA:279,0,0,53
BRDA:279,0,1,34
BRDA:286,0,0,53
BRDA:286,0,1,34
BRDA:297,0,0,0
BRDA:297,0,1,21
BRDA:303,0,0,84
BRDA:303,0,1,21
BRDA:305,0,0,84
BRDA:305,0,1,0
BRDA:311,0,0,8
BRDA:311,0,1,13
BRDA:319,0,0,8
BRDA:319,0,1,13
BRDA:327,0,0,8
BRDA:327,0,1,13
BRDA:341,0,0,41
BRDA:341,0,1,15
BRDA:343,0,0,0
BRDA:343,0,1,15
BRDA:346,0,0,0
BRDA:346,0,1,15
BRDA:364,0,0,248
BRDA:364,0,1,3
BRDA:369,0,0,1007
BRDA:369,0,1,251
BRDA:371,0,0,0
BRDA:371,0,1,1007
BRDA:376,0,0,0
BRDA:376,0,1,1007
BRF:96
BRH:72
LF:285
LH:229
end_of_record
SF:/Users/runner/work/Draxul/Draxul/libs/draxul-font/src/font_resolver.h
FN:50,_ZN6draxul12FontResolver7primaryEv
FN:54,_ZNK6draxul12FontResolver7primaryEv
FN:58,_ZN6draxul12FontResolver14primary_shaperEv
FN:62,_ZN6draxul12FontResolver24primary_unligated_shaperEv
FN:67,_ZN6draxul12FontResolver9fallbacksEv
FN:71,_ZNK6draxul12FontResolver9fallbacksEv
FN:76,_ZNK6draxul12FontResolver9font_pathEv
FN:87,_ZN6draxul12FontResolver4boldEv
FN:91,_ZN6draxul12FontResolver11bold_shaperEv
FN:95,_ZN6draxul12FontResolver21bold_unligated_shaperEv
FN:99,_ZNK6draxul12FontResolver8has_boldEv
FN:103,_ZNK6draxul12FontResolver14bold_font_pathEv
FN:108,_ZN6draxul12FontResolver6italicEv
FN:112,_ZN6draxul12FontResolver13italic_shaperEv
FN:116,_ZN6draxul12FontResolver23italic_unligated_shaperEv
FN:120,_ZNK6draxul12FontResolver10has_italicEv
FN:124,_ZNK6draxul12FontResolver16italic_font_pathEv
FN:129,_ZN6draxul12FontResolver11bold_italicEv
FN:133,_ZN6draxul12FontResolver18bold_italic_shaperEv
FN:137,_ZN6draxul12FontResolver28bold_italic_unligated_shaperEv
FN:141,_ZNK6draxul12FontResolver15has_bold_italicEv
FN:145,_ZNK6draxul12FontResolver21bold_italic_font_pathEv
FNDA:1915,_ZN6draxul12FontResolver7primaryEv
FNDA:0,_ZNK6draxul12FontResolver7primaryEv
FNDA:410,_ZN6draxul12FontResolver14primary_shaperEv
FNDA:10,_ZN6draxul12FontResolver24primary_unligated_shaperEv
FNDA:12,_ZN6draxul12FontResolver9fallbacksEv
FNDA:0,_ZNK6draxul12FontResolver9fallbacksEv
FNDA:32,_ZNK6draxul12FontResolver9font_pathEv
FNDA:9,_ZN6draxul12FontResolver4boldEv
FNDA:0,_ZN6draxul12FontResolver11bold_shaperEv
FNDA:0,_ZN6draxul12FontResolver21bold_unligated_shaperEv
FNDA:10,_ZNK6draxul12FontResolver8has_boldEv
FNDA:0,_ZNK6draxul12FontResolver14bold_font_pathEv
FNDA:9,_ZN6draxul12FontResolver6italicEv
FNDA:0,_ZN6draxul12FontResolver13italic_shaperEv
FNDA:0,_ZN6draxul12FontResolver23italic_unligated_shaperEv
FNDA:10,_ZNK6draxul12FontResolver10has_italicEv
FNDA:0,_ZNK6draxul12FontResolver16italic_font_pathEv
FNDA:9,_ZN6draxul12FontResolver11bold_italicEv
FNDA:0,_ZN6draxul12FontResolver18bold_italic_shaperEv
FNDA:0,_ZN6draxul12FontResolver28bold_italic_unligated_shaperEv
FNDA:10,_ZNK6draxul12FontResolver15has_bold_italicEv
FNDA:0,_ZNK6draxul12FontResolver21bold_italic_font_pathEv
FNF:22
FNH:11
DA:50,1915
DA:51,1915
DA:52,1915
DA:54,0
DA:55,0
DA:56,0
DA:58,410
DA:59,410
DA:60,410
DA:62,10
DA:63,10
DA:64,10
DA:67,12
DA:68,12
DA:69,12
DA:71,0
DA:72,0
DA:73,0
DA:76,32
DA:77,32
DA:78,32
DA:87,9
DA:88,9
DA:89,9
DA:91,0
DA:92,0
DA:93,0
DA:95,0
DA:96,0
DA:97,0
DA:99,10
DA:100,10
DA:101,10
DA:103,0
DA:104,0
DA:105,0
DA:108,9
DA:109,9
DA:110,9
DA:112,0
DA:113,0
DA:114,0
DA:116,0
DA:117,0
DA:118,0
DA:120,10
DA:121,10
DA:122,10
DA:124,0
DA:125,0
DA:126,0
DA:129,9
DA:130,9
DA:131,9
DA:133,0
DA:134,0
DA:135,0
DA:137,0
DA:138,0
DA:139,0
DA:141,10
DA:142,10
DA:143,10
DA:145,0
DA:146,0
DA:147,0
BRF:0
BRH:0
LF:66
LH:33
end_of_record
SF:/Users/runner/work/Draxul/Draxul/libs/draxul-font/src/font_selector.h
FN:128,_ZN6draxul12FontSelector11reset_cacheEv
FN:136,_ZN6draxul12FontSelector15set_cache_limitEm
FN:142,_ZN6draxul12FontSelector6selectERKNSt3__112basic_stringIcNS1_11char_traitsIcEENS1_9allocatorIcEEEERNS_12FontResolverEbb
FN:248,_ZN6draxul12FontSelector21try_variant_selectionIZNS0_6selectERKNSt3__112basic_stringIcNS2_11char_traitsIcEENS2_9allocatorIcEEEERNS_12FontResolverEbbEUlSA_iE_EENS0_9SelectionESA_RNS2_13unordered_mapIS8_iNS_6detail21TransparentStringHashENSG_22TransparentStringEqualENS6_INS2_4pairIS9_iEEEEEEP11FT_FaceRec_RNS_10TextShaperESC_T_
FN:147,_ZZN6draxul12FontSelector6selectERKNSt3__112basic_stringIcNS1_11char_traitsIcEENS1_9allocatorIcEEEERNS_12FontResolverEbbENKUlS9_iE_clES9_i
FN:289,_ZN6draxul12FontSelector17store_bold_italicERKNSt3__112basic_stringIcNS1_11char_traitsIcEENS1_9allocatorIcEEEEi
FN:100,_ZNK6draxul6detail21TransparentStringHashclENSt3__117basic_string_viewIcNS2_11char_traitsIcEEEE
FN:110,_ZNK6draxul6detail22TransparentStringEqualclENSt3__117basic_string_viewIcNS2_11char_traitsIcEEEES6_
FN:248,_ZN6draxul12FontSelector21try_variant_selectionIZNS0_6selectERKNSt3__112basic_stringIcNS2_11char_traitsIcEENS2_9allocatorIcEEEERNS_12FontResolverEbbEUlSA_iE0_EENS0_9SelectionESA_RNS2_13unordered_mapIS8_iNS_6detail21TransparentStringHashENSG_22TransparentStringEqualENS6_INS2_4pairIS9_iEEEEEEP11FT_FaceRec_RNS_10TextShaperESC_T_
FN:156,_ZZN6draxul12FontSelector6selectERKNSt3__112basic_stringIcNS1_11char_traitsIcEENS1_9allocatorIcEEEERNS_12FontResolverEbbENKUlS9_iE0_clES9_i
FN:275,_ZN6draxul12FontSelector10store_boldERKNSt3__112basic_stringIcNS1_11char_traitsIcEENS1_9allocatorIcEEEEi
FN:248,_ZN6draxul12FontSelector21try_variant_selectionIZNS0_6selectERKNSt3__112basic_stringIcNS2_11char_traitsIcEENS2_9allocatorIcEEEERNS_12FontResolverEbbEUlSA_iE1_EENS0_9SelectionESA_RNS2_13unordered_mapIS8_iNS_6detail21TransparentStringHashENSG_22TransparentStringEqualENS6_INS2_4pairIS9_iEEEEEEP11FT_FaceRec_RNS_10TextShaperESC_T_
FN:165,_ZZN6draxul12FontSelector6selectERKNSt3__112basic_stringIcNS1_11char_traitsIcEENS1_9allocatorIcEEEERNS_12FontResolverEbbENKUlS9_iE1_clES9_i
FN:282,_ZN6draxul12FontSelector12store_italicERKNSt3__112basic_stringIcNS1_11char_traitsIcEENS1_9allocatorIcEEEEi
FN:44,_ZN6draxul6detail26cluster_prefers_color_fontENSt3__117basic_string_viewIcNS1_11char_traitsIcEEEE
FN:229,_ZN6draxul12FontSelector17select_color_fontERKNSt3__112basic_stringIcNS1_11char_traitsIcEENS1_9allocatorIcEEEERNS_12FontResolverE
FN:91,_ZN6draxul6detail14font_has_colorEP11FT_FaceRec_
FN:22,_ZN6draxul6detail18can_render_clusterEP11FT_FaceRec_RNS_10TextShaperERKNSt3__112basic_stringIcNS5_11char_traitsIcEENS5_9allocatorIcEEEE
FN:268,_ZN6draxul12FontSelector5storeERKNSt3__112basic_stringIcNS1_11char_traitsIcEENS1_9allocatorIcEEEEi
FN:209,_ZN6draxul12FontSelector16search_fallbacksERKNSt3__112basic_stringIcNS1_11char_traitsIcEENS1_9allocatorIcEEEERNS_12FontResolverEb
FN:202,_ZNK6draxul12FontSelector10cache_sizeEv
FNDA:359,_ZN6draxul12FontSelector11reset_cacheEv
FNDA:251,_ZN6draxul12FontSelector15set_cache_limitEm
FNDA:272,_ZN6draxul12FontSelector6selectERKNSt3__112basic_stringIcNS1_11char_traitsIcEENS1_9allocatorIcEEEERNS_12FontResolverEbb
FNDA:0,_ZN6draxul12FontSelector21try_variant_selectionIZNS0_6selectERKNSt3__112basic_stringIcNS2_11char_traitsIcEENS2_9allocatorIcEEEERNS_12FontResolverEbbEUlSA_iE_EENS0_9SelectionESA_RNS2_13unordered_mapIS8_iNS_6detail21TransparentStringHashENSG_22TransparentStringEqualENS6_INS2_4pairIS9_iEEEEEEP11FT_FaceRec_RNS_10TextShaperESC_T_
FNDA:0,_ZZN6draxul12FontSelector6selectERKNSt3__112basic_stringIcNS1_11char_traitsIcEENS1_9allocatorIcEEEERNS_12FontResolverEbbENKUlS9_iE_clES9_i
FNDA:0,_ZN6draxul12FontSelector17store_bold_italicERKNSt3__112basic_stringIcNS1_11char_traitsIcEENS1_9allocatorIcEEEEi
FNDA:424,_ZNK6draxul6detail21TransparentStringHashclENSt3__117basic_string_viewIcNS2_11char_traitsIcEEEE
FNDA:120,_ZNK6draxul6detail22TransparentStringEqualclENSt3__117basic_string_viewIcNS2_11char_traitsIcEEEES6_
FNDA:0,_ZN6draxul12FontSelector21try_variant_selectionIZNS0_6selectERKNSt3__112basic_stringIcNS2_11char_traitsIcEENS2_9allocatorIcEEEERNS_12FontResolverEbbEUlSA_iE0_EENS0_9SelectionESA_RNS2_13unordered_mapIS8_iNS_6detail21TransparentStringHashENSG_22TransparentStringEqualENS6_INS2_4pairIS9_iEEEEEEP11FT_FaceRec_RNS_10TextShaperESC_T_
FNDA:0,_ZZN6draxul12FontSelector6selectERKNSt3__112basic_stringIcNS1_11char_traitsIcEENS1_9allocatorIcEEEERNS_12FontResolverEbbENKUlS9_iE0_clES9_i
FNDA:0,_ZN6draxul12FontSelector10store_boldERKNSt3__112basic_stringIcNS1_11char_traitsIcEENS1_9allocatorIcEEEEi
FNDA:0,_ZN6draxul12FontSelector21try_variant_selectionIZNS0_6selectERKNSt3__112basic_stringIcNS2_11char_traitsIcEENS2_9allocatorIcEEEERNS_12FontResolverEbbEUlSA_iE1_EENS0_9SelectionESA_RNS2_13unordered_mapIS8_iNS_6detail21TransparentStringHashENSG_22TransparentStringEqualENS6_INS2_4pairIS9_iEEEEEEP11FT_FaceRec_RNS_10TextShaperESC_T_
FNDA:0,_ZZN6draxul12FontSelector6selectERKNSt3__112basic_stringIcNS1_11char_traitsIcEENS1_9allocatorIcEEEERNS_12FontResolverEbbENKUlS9_iE1_clES9_i
FNDA:0,_ZN6draxul12FontSelector12store_italicERKNSt3__112basic_stringIcNS1_11char_traitsIcEENS1_9allocatorIcEEEEi
FNDA:152,_ZN6draxul6detail26cluster_prefers_color_fontENSt3__117basic_string_viewIcNS1_11char_traitsIcEEEE
FNDA:2,_ZN6draxul12FontSelector17select_color_fontERKNSt3__112basic_stringIcNS1_11char_traitsIcEENS1_9allocatorIcEEEERNS_12FontResolverE
FNDA:12,_ZN6draxul6detail14font_has_colorEP11FT_FaceRec_
FNDA:198,_ZN6draxul6detail18can_render_clusterEP11FT_FaceRec_RNS_10TextShaperERKNSt3__112basic_stringIcNS5_11char_traitsIcEENS5_9allocatorIcEEEE
FNDA:152,_ZN6draxul12FontSelector5storeERKNSt3__112basic_stringIcNS1_11char_traitsIcEENS1_9allocatorIcEEEEi
FNDA:12,_ZN6draxul12FontSelector16search_fallbacksERKNSt3__112basic_stringIcNS1_11char_traitsIcEENS1_9allocatorIcEEEERNS_12FontResolverEb
FNDA:32,_ZNK6draxul12FontSelector10cache_sizeEv
FNF:19
FNH:12
DA:22,198
DA:23,198
DA:24,0
DA:26,198
DA:27,198
DA:28,0
DA:30,198
DA:31,198
DA:32,620
DA:33,620
DA:34,46
DA:35,574
DA:36,0
DA:37,574
DA:38,574
DA:40,152
DA:41,198
DA:44,152
DA:45,152
DA:46,152
DA:47,152
DA:48,152
DA:49,152
DA:50,152
DA:51,152
DA:53,726
DA:54,574
DA:55,574
DA:56,574
DA:57,0
DA:59,574
DA:60,0
DA:61,574
DA:62,0
DA:63,574
DA:64,0
DA:65,574
DA:66,0
DA:68,574
DA:69,152
DA:70,152
DA:71,152
DA:72,152
DA:73,574
DA:75,152
DA:76,0
DA:78,152
DA:79,2
DA:81,150
DA:82,0
DA:84,150
DA:85,0
DA:87,150
DA:88,150
DA:91,12
DA:92,12
DA:93,12
DA:100,424
DA:101,424
DA:102,424
DA:110,120
DA:111,120
DA:112,120
DA:128,359
DA:129,359
DA:130,359
DA:131,359
DA:132,359
DA:133,359
DA:136,251
DA:137,251
DA:138,251
DA:142,272
DA:143,272
DA:144,0
DA:145,0
DA:146,0
DA:147,0
DA:148,0
DA:149,0
DA:150,0
DA:152,272
DA:153,0
DA:154,0
DA:155,0
DA:156,0
DA:157,0
DA:158,0
DA:159,0
DA:161,272
DA:162,0
DA:163,0
DA:164,0
DA:165,0
DA:166,0
DA:167,0
DA:168,0
DA:170,272
DA:171,272
DA:172,120
DA:173,120
DA:174,120
DA:175,120
DA:176,0
DA:177,0
DA:178,0
DA:179,0
DA:181,152
DA:182,2
DA:183,2
DA:184,2
DA:185,2
DA:187,150
DA:188,140
DA:189,140
DA:190,140
DA:191,140
DA:193,10
DA:194,10
DA:195,10
DA:197,0
DA:198,0
DA:199,10
DA:202,32
DA:203,32
DA:204,32
DA:209,12
DA:210,12
DA:211,56
DA:212,56
DA:213,56
DA:214,0
DA:215,56
DA:216,56
DA:217,8
DA:218,48
DA:219,12
DA:220,12
DA:221,12
DA:222,12
DA:223,48
DA:224,0
DA:225,12
DA:229,2
DA:230,2
DA:231,2
DA:232,0
DA:233,0
DA:234,0
DA:235,0
DA:236,2
DA:237,2
DA:238,2
DA:239,0
DA:240,2
DA:248,0
DA:249,0
DA:250,0
DA:251,0
DA:252,0
DA:253,0
DA:254,0
DA:255,0
DA:256,0
DA:257,0
DA:258,0
DA:259,0
DA:260,0
DA:261,0
DA:262,0
DA:263,0
DA:264,0
DA:265,0
DA:268,152
DA:269,152
DA:270,3
DA:271,152
DA:272,152
DA:275,0
DA:276,0
DA:277,0
DA:278,0
DA:279,0
DA:282,0
DA:283,0
DA:284,0
DA:285,0
DA:286,0
DA:289,0
DA:290,0
DA:291,0
DA:292,0
DA:293,0
BRDA:23,0,0,0
BRDA:23,0,1,198
BRDA:27,0,0,0
BRDA:27,0,1,198
BRDA:31,0,0,620
BRDA:31,0,1,152
BRDA:33,0,0,46
BRDA:33,0,1,574
BRDA:35,0,0,0
BRDA:35,0,1,574
BRDA:53,0,0,574
BRDA:53,0,1,152
BRDA:56,0,0,0
BRDA:56,0,1,574
BRDA:59,0,0,0
BRDA:59,0,1,574
BRDA:61,0,0,0
BRDA:61,0,1,574
BRDA:63,0,0,0
BRDA:63,0,1,574
BRDA:65,0,0,0
BRDA:65,0,1,574
BRDA:68,0,0,152
BRDA:68,0,1,422
BRDA:68,1,2,152
BRDA:68,1,3,0
BRDA:68,2,4,152
BRDA:68,2,5,0
BRDA:75,0,0,0
BRDA:75,0,1,152
BRDA:78,0,0,2
BRDA:78,0,1,150
BRDA:78,1,2,0
BRDA:78,1,3,150
BRDA:81,0,0,0
BRDA:81,0,1,150
BRDA:81,1,2,0
BRDA:81,1,3,150
BRDA:81,2,4,0
BRDA:81,2,5,150
BRDA:81,3,6,-
BRDA:81,3,7,-
BRDA:84,0,0,0
BRDA:84,0,1,150
BRDA:84,1,2,-
BRDA:84,1,3,-
BRDA:92,0,0,2
BRDA:92,0,1,10
BRDA:92,1,2,12
BRDA:92,1,3,0
BRDA:143,0,0,0
BRDA:143,0,1,272
BRDA:143,1,2,-
BRDA:143,1,3,-
BRDA:143,2,4,-
BRDA:143,2,5,-
BRDA:148,0,0,-
BRDA:148,0,1,-
BRDA:152,0,0,0
BRDA:152,0,1,272
BRDA:152,1,2,-
BRDA:152,1,3,-
BRDA:157,0,0,-
BRDA:157,0,1,-
BRDA:161,0,0,0
BRDA:161,0,1,272
BRDA:161,1,2,-
BRDA:161,1,3,-
BRDA:166,0,0,-
BRDA:166,0,1,-
BRDA:171,0,0,120
BRDA:171,0,1,152
BRDA:174,0,0,120
BRDA:174,0,1,0
BRDA:177,0,0,-
BRDA:177,0,1,-
BRDA:181,0,0,2
BRDA:181,0,1,150
BRDA:183,0,0,2
BRDA:183,0,1,0
BRDA:187,0,0,140
BRDA:187,0,1,10
BRDA:194,0,0,10
BRDA:194,0,1,0
BRDA:211,0,0,56
BRDA:211,0,1,0
BRDA:213,0,0,0
BRDA:213,0,1,56
BRDA:216,0,0,10
BRDA:216,0,1,46
BRDA:216,1,2,8
BRDA:216,1,3,2
BRDA:218,0,0,12
BRDA:218,0,1,36
BRDA:230,0,0,0
BRDA:230,0,1,2
BRDA:231,0,0,-
BRDA:231,0,1,-
BRDA:237,0,0,2
BRDA:237,0,1,0
BRDA:250,0,0,-
BRDA:250,0,1,-
BRDA:250,1,2,-
BRDA:250,1,3,-
BRDA:250,2,4,-
BRDA:250,2,5,-
BRDA:252,0,0,-
BRDA:252,0,1,-
BRDA:252,1,2,-
BRDA:252,1,3,-
BRDA:252,2,4,-
BRDA:252,2,5,-
BRDA:256,0,0,-
BRDA:256,0,1,-
BRDA:256,1,2,-
BRDA:256,1,3,-
BRDA:256,2,4,-
BRDA:256,2,5,-
BRDA:259,0,0,-
BRDA:259,0,1,-
BRDA:259,1,2,-
BRDA:259,1,3,-
BRDA:259,2,4,-
BRDA:259,2,5,-
BRDA:269,0,0,3
BRDA:269,0,1,149
BRDA:276,0,0,-
BRDA:276,0,1,-
BRDA:283,0,0,-
BRDA:283,0,1,-
BRDA:290,0,0,-
BRDA:290,0,1,-
BRF:116
BRH:53
LF:196
LH:115
end_of_record
SF:/Users/runner/work/Draxul/Draxul/libs/draxul-font/src/glyph_atlas_manager.h
FN:18,_ZN6draxul17GlyphAtlasManager10initializeEP11FT_FaceRec_i
FN:26,_ZN6draxul17GlyphAtlasManager11reset_atlasEP11FT_FaceRec_i
FN:37,_ZN6draxul17GlyphAtlasManager15resolve_clusterERKNSt3__112basic_stringIcNS1_11char_traitsIcEENS1_9allocatorIcEEEERNS_12FontSelectorERNS_12FontResolverEbb
FN:69,_ZN6draxul17GlyphAtlasManager5cacheEv
FN:85,_ZNK6draxul17GlyphAtlasManager11reset_countEv
FN:78,_ZN6draxul17GlyphAtlasManager19consume_atlas_resetEv
FN:73,_ZNK6draxul17GlyphAtlasManager5cacheEv
FNDA:251,_ZN6draxul17GlyphAtlasManager10initializeEP11FT_FaceRec_i
FNDA:21,_ZN6draxul17GlyphAtlasManager11reset_atlasEP11FT_FaceRec_i
FNDA:262,_ZN6draxul17GlyphAtlasManager15resolve_clusterERKNSt3__112basic_stringIcNS1_11char_traitsIcEENS1_9allocatorIcEEEERNS_12FontSelectorERNS_12FontResolverEbb
FNDA:973,_ZN6draxul17GlyphAtlasManager5cacheEv
FNDA:4,_ZNK6draxul17GlyphAtlasManager11reset_countEv
FNDA:173,_ZN6draxul17GlyphAtlasManager19consume_atlas_resetEv
FNDA:0,_ZNK6draxul17GlyphAtlasManager5cacheEv
FNF:7
FNH:6
DA:18,251
DA:19,251
DA:20,251
DA:21,251
DA:22,251
DA:23,251
DA:26,21
DA:27,21
DA:28,21
DA:29,21
DA:30,21
DA:31,21
DA:37,262
DA:41,262
DA:42,262
DA:43,262
DA:44,0
DA:45,0
DA:46,0
DA:47,0
DA:48,0
DA:49,0
DA:51,262
DA:52,262
DA:54,262
DA:55,262
DA:58,0
DA:59,0
DA:60,0
DA:61,0
DA:62,0
DA:64,0
DA:65,0
DA:66,262
DA:69,973
DA:70,973
DA:71,973
DA:73,0
DA:74,0
DA:75,0
DA:78,173
DA:79,173
DA:80,173
DA:81,173
DA:82,173
DA:85,4
DA:86,4
DA:87,4
BRDA:41,0,0,262
BRDA:41,0,1,0
BRDA:41,1,2,0
BRDA:41,1,3,262
BRDA:43,0,0,0
BRDA:43,0,1,262
BRDA:54,0,0,261
BRDA:54,0,1,1
BRDA:54,1,2,0
BRDA:54,1,3,1
BRDA:54,2,4,1
BRDA:54,2,5,0
BRF:12
BRH:7
LF:48
LH:32
end_of_record
SF:/Users/runner/work/Draxul/Draxul/libs/draxul-font/src/glyph_cache.cpp
FN:140,_ZN6draxul10GlyphCache10initializeEP11FT_FaceRec_ii
FN:159,_ZN6draxul10GlyphCache5resetEP11FT_FaceRec_i
FN:176,_ZNK6draxul10GlyphCache14ClusterKeyHashclERKNS0_10ClusterKeyE
FN:183,_ZN6draxul10GlyphCache11get_clusterERKNSt3__112basic_stringIcNS1_11char_traitsIcEENS1_9allocatorIcEEEEP11FT_FaceRec_RNS_10TextShaperE
FN:204,_ZN6draxul10GlyphCache14reserve_regionEiiRiS1_PKc
FN:231,_ZN6draxul10GlyphCache17rasterize_clusterERKNSt3__112basic_stringIcNS1_11char_traitsIcEENS1_9allocatorIcEEEEP11FT_FaceRec_RNS_10TextShaperERNS_11AtlasRegionE
FN:45,glyph_cache.cpp:_ZN6draxul12_GLOBAL__N_114bitmap_to_rgbaERK10FT_Bitmap_RNSt3__16vectorIhNS4_9allocatorIhEEEERb
FN:29,glyph_cache.cpp:_ZN6draxul12_GLOBAL__N_114bitmap_row_ptrERK10FT_Bitmap_i
FN:36,glyph_cache.cpp:_ZN6draxul12_GLOBAL__N_121unpremultiply_channelEhh
FN:122,glyph_cache.cpp:_ZN6draxul12_GLOBAL__N_117expand_dirty_rectERNS_10GlyphCache9DirtyRectEbiiii
FNDA:251,_ZN6draxul10GlyphCache10initializeEP11FT_FaceRec_ii
FNDA:21,_ZN6draxul10GlyphCache5resetEP11FT_FaceRec_i
FNDA:405,_ZNK6draxul10GlyphCache14ClusterKeyHashclERKNS0_10ClusterKeyE
FNDA:262,_ZN6draxul10GlyphCache11get_clusterERKNSt3__112basic_stringIcNS1_11char_traitsIcEENS1_9allocatorIcEEEEP11FT_FaceRec_RNS_10TextShaperE
FNDA:142,_ZN6draxul10GlyphCache14reserve_regionEiiRiS1_PKc
FNDA:143,_ZN6draxul10GlyphCache17rasterize_clusterERKNSt3__112basic_stringIcNS1_11char_traitsIcEENS1_9allocatorIcEEEEP11FT_FaceRec_RNS_10TextShaperERNS_11AtlasRegionE
FNDA:555,glyph_cache.cpp:_ZN6draxul12_GLOBAL__N_114bitmap_to_rgbaERK10FT_Bitmap_RNSt3__16vectorIhNS4_9allocatorIhEEEERb
FNDA:5295,glyph_cache.cpp:_ZN6draxul12_GLOBAL__N_114bitmap_row_ptrERK10FT_Bitmap_i
FNDA:2400,glyph_cache.cpp:_ZN6draxul12_GLOBAL__N_121unpremultiply_channelEhh
FNDA:142,glyph_cache.cpp:_ZN6draxul12_GLOBAL__N_117expand_dirty_rectERNS_10GlyphCache9DirtyRectEbiiii
FNF:10
FNH:10
DA:29,5295
DA:30,5295
DA:31,5295
DA:32,0
DA:33,5295
DA:36,2400
DA:37,2400
DA:38,1041
DA:40,1359
DA:41,1359
DA:42,2400
DA:45,555
DA:46,555
DA:47,555
DA:48,555
DA:49,555
DA:50,0
DA:51,0
DA:52,0
DA:53,0
DA:54,0
DA:56,555
DA:57,555
DA:59,555
DA:60,555
DA:61,553
DA:62,5808
DA:63,5255
DA:64,5255
DA:65,5255
DA:66,45029
DA:67,39774
DA:68,39774
DA:69,39774
DA:70,39774
DA:71,39774
DA:72,39774
DA:73,5255
DA:74,553
DA:76,0
DA:77,0
DA:78,0
DA:79,0
DA:80,0
DA:81,0
DA:82,0
DA:83,0
DA:84,0
DA:85,0
DA:86,0
DA:87,0
DA:88,0
DA:89,0
DA:90,0
DA:91,0
DA:93,2
DA:94,2
DA:95,42
DA:96,40
DA:97,40
DA:98,40
DA:99,840
DA:100,800
DA:101,800
DA:102,800
DA:103,800
DA:104,800
DA:105,800
DA:106,800
DA:107,800
DA:108,800
DA:109,800
DA:110,40
DA:111,2
DA:113,0
DA:114,0
DA:115,555
DA:117,0
DA:118,0
DA:119,555
DA:122,142
DA:123,142
DA:124,142
DA:125,17
DA:126,17
DA:127,17
DA:128,17
DA:130,125
DA:131,125
DA:132,125
DA:133,125
DA:134,125
DA:135,125
DA:140,251
DA:141,251
DA:142,251
DA:143,251
DA:144,251
DA:145,251
DA:146,251
DA:147,251
DA:148,251
DA:149,251
DA:150,251
DA:151,251
DA:152,251
DA:153,251
DA:154,251
DA:155,251
DA:156,251
DA:159,21
DA:160,21
DA:161,21
DA:162,21
DA:163,21
DA:164,21
DA:165,21
DA:166,21
DA:167,21
DA:168,21
DA:169,21
DA:170,21
DA:171,21
DA:172,21
DA:173,21
DA:176,405
DA:177,405
DA:178,405
DA:179,405
DA:180,405
DA:183,262
DA:184,262
DA:185,262
DA:186,0
DA:188,262
DA:189,262
DA:190,262
DA:191,119
DA:193,143
DA:194,143
DA:195,143
DA:196,143
DA:197,143
DA:198,143
DA:200,0
DA:201,143
DA:204,142
DA:205,142
DA:206,142
DA:207,0
DA:209,142
DA:210,1
DA:211,1
DA:212,1
DA:213,1
DA:214,1
DA:216,142
DA:217,0
DA:218,0
DA:219,0
DA:220,0
DA:221,0
DA:223,142
DA:224,142
DA:225,142
DA:226,142
DA:227,142
DA:228,142
DA:231,143
DA:232,143
DA:233,143
DA:234,143
DA:235,0
DA:236,0
DA:237,0
DA:238,0
DA:240,143
DA:241,143
DA:243,143
DA:244,143
DA:245,143
DA:246,143
DA:247,143
DA:249,143
DA:250,556
DA:251,556
DA:252,0
DA:253,556
DA:254,556
DA:255,0
DA:257,556
DA:258,556
DA:259,555
DA:260,555
DA:261,555
DA:262,555
DA:263,555
DA:264,555
DA:265,555
DA:266,0
DA:268,555
DA:269,555
DA:270,555
DA:271,555
DA:272,555
DA:273,555
DA:275,556
DA:276,556
DA:278,143
DA:279,1
DA:280,1
DA:281,1
DA:282,1
DA:286,142
DA:287,0
DA:288,0
DA:289,0
DA:290,0
DA:302,142
DA:303,142
DA:304,142
DA:305,142
DA:306,142
DA:307,142
DA:308,0
DA:309,0
DA:310,0
DA:311,0
DA:312,142
DA:314,142
DA:315,142
DA:317,142
DA:318,142
DA:319,142
DA:320,0
DA:321,142
DA:323,142
DA:324,142
DA:325,142
DA:326,555
DA:327,555
DA:328,555
DA:329,555
DA:330,5850
DA:331,5295
DA:332,45869
DA:333,40574
DA:334,40574
DA:335,40574
DA:336,40574
DA:338,40574
DA:339,40574
DA:340,40574
DA:342,40574
DA:343,15042
DA:344,15042
DA:345,15042
DA:346,15042
DA:348,102128
DA:349,76596
DA:350,76596
DA:351,76596
DA:352,76596
DA:353,76596
DA:354,76596
DA:355,76596
DA:356,25532
DA:357,25532
DA:358,5295
DA:359,555
DA:361,1827
DA:362,1685
DA:363,1685
DA:364,1685
DA:365,1685
DA:366,1685
DA:368,142
DA:369,142
DA:370,142
DA:371,142
DA:372,142
DA:373,142
DA:374,142
DA:375,142
DA:376,142
DA:377,142
DA:379,142
DA:380,142
DA:381,142
DA:382,142
BRDA:30,0,0,5295
BRDA:30,0,1,0
BRDA:37,0,0,1041
BRDA:37,0,1,1359
BRDA:49,0,0,0
BRDA:49,0,1,555
BRDA:49,1,2,0
BRDA:49,1,3,555
BRDA:61,0,0,553
BRDA:61,0,1,2
BRDA:62,0,0,5255
BRDA:62,0,1,553
BRDA:66,0,0,39774
BRDA:66,0,1,5255
BRDA:76,0,0,0
BRDA:76,0,1,555
BRDA:77,0,0,-
BRDA:77,0,1,-
BRDA:81,0,0,-
BRDA:81,0,1,-
BRDA:84,0,0,-
BRDA:84,0,1,-
BRDA:93,0,0,2
BRDA:93,0,1,553
BRDA:95,0,0,40
BRDA:95,0,1,2
BRDA:99,0,0,800
BRDA:99,0,1,40
BRDA:113,0,0,0
BRDA:113,0,1,555
BRDA:124,0,0,17
BRDA:124,0,1,125
BRDA:185,0,0,0
BRDA:185,0,1,262
BRDA:185,1,2,0
BRDA:185,1,3,262
BRDA:190,0,0,119
BRDA:190,0,1,143
BRDA:194,0,0,143
BRDA:194,0,1,0
BRDA:206,0,0,0
BRDA:206,0,1,142
BRDA:206,1,2,0
BRDA:206,1,3,142
BRDA:209,0,0,1
BRDA:209,0,1,141
BRDA:216,0,0,0
BRDA:216,0,1,142
BRDA:234,0,0,0
BRDA:234,0,1,143
BRDA:249,0,0,556
BRDA:249,0,1,143
BRDA:251,0,0,0
BRDA:251,0,1,556
BRDA:253,0,0,554
BRDA:253,0,1,2
BRDA:254,0,0,0
BRDA:254,0,1,554
BRDA:258,0,0,555
BRDA:258,0,1,1
BRDA:258,1,2,555
BRDA:258,1,3,0
BRDA:265,0,0,0
BRDA:265,0,1,555
BRDA:278,0,0,1
BRDA:278,0,1,142
BRDA:286,0,0,0
BRDA:286,0,1,142
BRDA:303,0,0,142
BRDA:303,0,1,0
BRDA:319,0,0,0
BRDA:319,0,1,142
BRDA:325,0,0,555
BRDA:325,0,1,142
BRDA:327,0,0,0
BRDA:327,0,1,555
BRDA:327,1,2,2
BRDA:327,1,3,553
BRDA:330,0,0,5295
BRDA:330,0,1,555
BRDA:332,0,0,40574
BRDA:332,0,1,5295
BRDA:342,0,0,15042
BRDA:342,0,1,25532
BRDA:348,0,0,76596
BRDA:348,0,1,25532
BRDA:361,0,0,1685
BRDA:361,0,1,142
BRF:88
BRH:62
LF:290
LH:240
end_of_record
SF:/Users/runner/work/Draxul/Draxul/libs/draxul-font/src/ligature_analyser.h
FN:60,_ZN6draxul16LigatureAnalyser11reset_cacheEv
FN:65,_ZN6draxul16LigatureAnalyser15set_cache_limitEm
FN:74,_ZN6draxul16LigatureAnalyser18ligature_cell_spanERKNSt3__112basic_stringIcNS1_11char_traitsIcEENS1_9allocatorIcEEEEbRNS_12FontSelectorERNS_12FontResolverEbb
FN:21,text_service.cpp:_ZN6draxul12_GLOBAL__N_116count_codepointsENSt3__117basic_string_viewIcNS1_11char_traitsIcEEEE
FN:146,_ZN6draxul16LigatureAnalyser5storeERKNSt3__112basic_stringIcNS1_11char_traitsIcEENS1_9allocatorIcEEEEi
FN:116,_ZZN6draxul16LigatureAnalyser18ligature_cell_spanERKNSt3__112basic_stringIcNS1_11char_traitsIcEENS1_9allocatorIcEEEEbRNS_12FontSelectorERNS_12FontResolverEbbENKUlRKNSC_12FallbackFontEE_clESG_
FN:36,text_service.cpp:_ZN6draxul12_GLOBAL__N_115shaping_differsERKNSt3__16vectorINS_11ShapedGlyphENS1_9allocatorIS3_EEEES8_
FN:140,_ZNK6draxul16LigatureAnalyser10cache_sizeEv
FNDA:359,_ZN6draxul16LigatureAnalyser11reset_cacheEv
FNDA:251,_ZN6draxul16LigatureAnalyser15set_cache_limitEm
FNDA:11,_ZN6draxul16LigatureAnalyser18ligature_cell_spanERKNSt3__112basic_stringIcNS1_11char_traitsIcEENS1_9allocatorIcEEEEbRNS_12FontSelectorERNS_12FontResolverEbb
FNDA:10,text_service.cpp:_ZN6draxul12_GLOBAL__N_116count_codepointsENSt3__117basic_string_viewIcNS1_11char_traitsIcEEEE
FNDA:10,_ZN6draxul16LigatureAnalyser5storeERKNSt3__112basic_stringIcNS1_11char_traitsIcEENS1_9allocatorIcEEEEi
FNDA:0,_ZZN6draxul16LigatureAnalyser18ligature_cell_spanERKNSt3__112basic_stringIcNS1_11char_traitsIcEENS1_9allocatorIcEEEEbRNS_12FontSelectorERNS_12FontResolverEbbENKUlRKNSC_12FallbackFontEE_clESG_
FNDA:10,text_service.cpp:_ZN6draxul12_GLOBAL__N_115shaping_differsERKNSt3__16vectorINS_11ShapedGlyphENS1_9allocatorIS3_EEEES8_
FNDA:0,_ZNK6draxul16LigatureAnalyser10cache_sizeEv
FNF:8
FNH:6
DA:21,10
DA:22,10
DA:23,10
DA:24,30
DA:25,20
DA:26,20
DA:27,20
DA:28,0
DA:29,20
DA:30,20
DA:31,10
DA:32,10
DA:36,10
DA:37,10
DA:38,0
DA:40,28
DA:41,19
DA:42,19
DA:43,19
DA:44,19
DA:45,1
DA:46,1
DA:47,1
DA:48,19
DA:50,9
DA:51,10
DA:60,359
DA:61,359
DA:62,359
DA:65,251
DA:66,251
DA:67,251
DA:74,11
DA:75,11
DA:76,1
DA:78,10
DA:79,10
DA:80,0
DA:82,10
DA:83,10
DA:84,0
DA:85,0
DA:86,0
DA:87,0
DA:89,10
DA:90,10
DA:91,10
DA:92,0
DA:93,0
DA:94,0
DA:95,0
DA:98,10
DA:99,10
DA:100,0
DA:101,0
DA:102,0
DA:103,10
DA:104,0
DA:105,0
DA:106,0
DA:107,10
DA:108,0
DA:109,0
DA:110,0
DA:111,10
DA:112,0
DA:113,0
DA:114,0
DA:115,0
DA:116,0
DA:117,0
DA:118,0
DA:119,0
DA:121,10
DA:122,10
DA:123,9
DA:124,9
DA:125,9
DA:126,9
DA:128,1
DA:129,1
DA:130,2
DA:132,1
DA:133,1
DA:134,1
DA:135,1
DA:136,1
DA:137,10
DA:140,0
DA:141,0
DA:142,0
DA:146,10
DA:147,10
DA:148,0
DA:149,10
DA:150,10
BRDA:24,0,0,20
BRDA:24,0,1,10
BRDA:27,0,0,0
BRDA:27,0,1,20
BRDA:37,0,0,0
BRDA:37,0,1,10
BRDA:40,0,0,19
BRDA:40,0,1,9
BRDA:42,0,0,1
BRDA:42,0,1,18
BRDA:42,1,2,0
BRDA:42,1,3,18
BRDA:43,0,0,0
BRDA:43,0,1,18
BRDA:43,1,2,0
BRDA:43,1,3,18
BRDA:44,0,0,0
BRDA:44,0,1,18
BRDA:75,0,0,1
BRDA:75,0,1,10
BRDA:79,0,0,0
BRDA:79,0,1,10
BRDA:83,0,0,0
BRDA:83,0,1,10
BRDA:91,0,0,0
BRDA:91,0,1,10
BRDA:99,0,0,9
BRDA:99,0,1,1
BRDA:99,1,2,0
BRDA:99,1,3,9
BRDA:103,0,0,9
BRDA:103,0,1,1
BRDA:103,1,2,0
BRDA:103,1,3,9
BRDA:107,0,0,9
BRDA:107,0,1,1
BRDA:107,1,2,0
BRDA:107,1,3,9
BRDA:111,0,0,0
BRDA:111,0,1,10
BRDA:117,0,0,-
BRDA:117,0,1,-
BRDA:122,0,0,0
BRDA:122,0,1,10
BRDA:122,1,2,9
BRDA:122,1,3,1
BRDA:129,0,0,2
BRDA:129,0,1,1
BRDA:134,0,0,1
BRDA:134,0,1,0
BRDA:147,0,0,0
BRDA:147,0,1,10
BRF:52
BRH:34
LF:97
LH:64
end_of_record
SF:/Users/runner/work/Draxul/Draxul/libs/draxul-font/src/text_service.cpp
FN:73,_ZN6draxul11TextServiceC2Ev
FN:77,_ZN6draxul11TextServiceD2Ev
FN:79,_ZN6draxul11TextServiceC2EOS0_
FN:81,_ZN6draxul11TextServiceaSEOS0_
FN:84,_ZN6draxul11TextService10initializeEff
FN:89,_ZN6draxul11TextService10initializeERKNS_17TextServiceConfigEff
FN:96,_ZN6draxul11TextService8shutdownEv
FN:102,_ZN6draxul11TextService14set_point_sizeEf
FN:108,_ZNK6draxul11TextService10point_sizeEv
FN:113,_ZNK6draxul11TextService7metricsEv
FN:118,_ZNK6draxul11TextService17primary_font_pathEv
FN:123,_ZN6draxul11TextService15resolve_clusterERKNSt3__112basic_stringIcNS1_11char_traitsIcEENS1_9allocatorIcEEEEbb
FN:128,_ZN6draxul11TextService18ligature_cell_spanERKNSt3__112basic_stringIcNS1_11char_traitsIcEENS1_9allocatorIcEEEEbb
FN:133,_ZNK6draxul11TextService11atlas_dirtyEv
FN:138,_ZN6draxul11TextService17clear_atlas_dirtyEv
FN:143,_ZNK6draxul11TextService10atlas_dataEv
FN:148,_ZNK6draxul11TextService11atlas_widthEv
FN:153,_ZNK6draxul11TextService12atlas_heightEv
FN:158,_ZNK6draxul11TextService16atlas_dirty_rectEv
FN:164,_ZNK6draxul11TextService17atlas_usage_ratioEv
FN:169,_ZNK6draxul11TextService17atlas_glyph_countEv
FN:174,_ZNK6draxul11TextService17atlas_reset_countEv
FN:179,_ZNK6draxul11TextService22font_choice_cache_sizeEv
FN:184,_ZN6draxul11TextService19consume_atlas_resetEv
FN:24,_ZN6draxul11TextService4Impl10initializeEff
FN:40,_ZN6draxul11TextService4Impl8shutdownEv
FN:47,_ZN6draxul11TextService4Impl14set_point_sizeEf
FN:62,_ZN6draxul11TextService4Impl15resolve_clusterERKNSt3__112basic_stringIcNS2_11char_traitsIcEENS2_9allocatorIcEEEEbb
FN:67,_ZN6draxul11TextService4Impl18ligature_cell_spanERKNSt3__112basic_stringIcNS2_11char_traitsIcEENS2_9allocatorIcEEEEbb
FNDA:235,_ZN6draxul11TextServiceC2Ev
FNDA:235,_ZN6draxul11TextServiceD2Ev
FNDA:0,_ZN6draxul11TextServiceC2EOS0_
FNDA:0,_ZN6draxul11TextServiceaSEOS0_
FNDA:0,_ZN6draxul11TextService10initializeEff
FNDA:255,_ZN6draxul11TextService10initializeERKNS_17TextServiceConfigEff
FNDA:87,_ZN6draxul11TextService8shutdownEv
FNDA:21,_ZN6draxul11TextService14set_point_sizeEf
FNDA:92,_ZNK6draxul11TextService10point_sizeEv
FNDA:311,_ZNK6draxul11TextService7metricsEv
FNDA:32,_ZNK6draxul11TextService17primary_font_pathEv
FNDA:262,_ZN6draxul11TextService15resolve_clusterERKNSt3__112basic_stringIcNS1_11char_traitsIcEENS1_9allocatorIcEEEEbb
FNDA:11,_ZN6draxul11TextService18ligature_cell_spanERKNSt3__112basic_stringIcNS1_11char_traitsIcEENS1_9allocatorIcEEEEbb
FNDA:176,_ZNK6draxul11TextService11atlas_dirtyEv
FNDA:174,_ZN6draxul11TextService17clear_atlas_dirtyEv
FNDA:204,_ZNK6draxul11TextService10atlas_dataEv
FNDA:205,_ZNK6draxul11TextService11atlas_widthEv
FNDA:202,_ZNK6draxul11TextService12atlas_heightEv
FNDA:3,_ZNK6draxul11TextService16atlas_dirty_rectEv
FNDA:4,_ZNK6draxul11TextService17atlas_usage_ratioEv
FNDA:5,_ZNK6draxul11TextService17atlas_glyph_countEv
FNDA:4,_ZNK6draxul11TextService17atlas_reset_countEv
FNDA:32,_ZNK6draxul11TextService22font_choice_cache_sizeEv
FNDA:173,_ZN6draxul11TextService19consume_atlas_resetEv
FNDA:255,_ZN6draxul11TextService4Impl10initializeEff
FNDA:87,_ZN6draxul11TextService4Impl8shutdownEv
FNDA:21,_ZN6draxul11TextService4Impl14set_point_sizeEf
FNDA:262,_ZN6draxul11TextService4Impl15resolve_clusterERKNSt3__112basic_stringIcNS2_11char_traitsIcEENS2_9allocatorIcEEEEbb
FNDA:11,_ZN6draxul11TextService4Impl18ligature_cell_spanERKNSt3__112basic_stringIcNS2_11char_traitsIcEENS2_9allocatorIcEEEEbb
FNF:29
FNH:26
DA:24,255
DA:25,255
DA:26,4
DA:28,251
DA:29,251
DA:30,251
DA:31,251
DA:33,251
DA:34,0
DA:36,251
DA:37,251
DA:40,87
DA:41,87
DA:42,87
DA:43,87
DA:44,87
DA:47,21
DA:48,21
DA:49,21
DA:50,0
DA:52,21
DA:53,0
DA:55,21
DA:56,21
DA:57,21
DA:58,21
DA:59,21
DA:62,262
DA:63,262
DA:64,262
DA:67,11
DA:68,11
DA:69,11
DA:73,235
DA:74,235
DA:75,235
DA:77,235
DA:79,0
DA:81,0
DA:84,0
DA:85,0
DA:86,0
DA:89,255
DA:90,255
DA:91,255
DA:92,255
DA:93,255
DA:96,87
DA:97,87
DA:98,87
DA:99,87
DA:102,21
DA:103,21
DA:104,21
DA:105,21
DA:108,92
DA:109,92
DA:110,92
DA:113,311
DA:114,311
DA:115,311
DA:118,32
DA:119,32
DA:120,32
DA:123,262
DA:124,262
DA:125,262
DA:128,11
DA:129,11
DA:130,11
DA:133,176
DA:134,176
DA:135,176
DA:138,174
DA:139,174
DA:140,174
DA:143,204
DA:144,204
DA:145,204
DA:148,205
DA:149,205
DA:150,205
DA:153,202
DA:154,202
DA:155,202
DA:158,3
DA:159,3
DA:160,3
DA:161,3
DA:164,4
DA:165,4
DA:166,4
DA:169,5
DA:170,5
DA:171,5
DA:174,4
DA:175,4
DA:176,4
DA:179,32
DA:180,32
DA:181,32
DA:184,173
DA:185,173
DA:186,173
BRDA:25,0,0,4
BRDA:25,0,1,251
BRDA:33,0,0,0
BRDA:33,0,1,251
BRDA:49,0,0,0
BRDA:49,0,1,21
BRDA:52,0,0,0
BRDA:52,0,1,21
BRF:8
BRH:5
LF:104
LH:96
end_of_record
SF:/Users/runner/work/Draxul/Draxul/libs/draxul-font/src/text_shaper.cpp
FN:11,_ZN6draxul10TextShaperC2EOS0_
FN:17,_ZN6draxul10TextShaperaSEOS0_
FN:34,_ZN6draxul10TextShaperD2Ev
FN:40,_ZN6draxul10TextShaper10initializeEP9hb_font_tb
FN:49,_ZN6draxul10TextShaper8shutdownEv
FN:59,_ZN6draxul10TextShaper5shapeERKNSt3__112basic_stringIcNS1_11char_traitsIcEENS1_9allocatorIcEEEE
FNDA:0,_ZN6draxul10TextShaperC2EOS0_
FNDA:0,_ZN6draxul10TextShaperaSEOS0_
FNDA:3894,_ZN6draxul10TextShaperD2Ev
FNDA:2074,_ZN6draxul10TextShaper10initializeEP9hb_font_tb
FNDA:6538,_ZN6draxul10TextShaper8shutdownEv
FNDA:361,_ZN6draxul10TextShaper5shapeERKNSt3__112basic_stringIcNS1_11char_traitsIcEENS1_9allocatorIcEEEE
FNF:6
FNH:4
DA:11,0
DA:12,0
DA:13,0
DA:14,0
DA:17,0
DA:18,0
DA:19,0
DA:20,0
DA:22,0
DA:24,0
DA:25,0
DA:27,0
DA:28,0
DA:30,0
DA:31,0
DA:34,3894
DA:35,3894
DA:36,3894
DA:37,3894
DA:40,2074
DA:41,2074
DA:42,2074
DA:43,2074
DA:44,2074
DA:45,2074
DA:46,2074
DA:49,6538
DA:50,6538
DA:51,6538
DA:52,2074
DA:53,2074
DA:54,2074
DA:55,2074
DA:56,6538
DA:59,361
DA:60,361
DA:61,361
DA:62,361
DA:63,0
DA:65,361
DA:66,361
DA:67,361
DA:69,361
DA:70,361
DA:71,361
DA:72,361
DA:73,361
DA:74,361
DA:75,361
DA:76,361
DA:77,361
DA:79,361
DA:80,361
DA:81,361
DA:83,361
DA:84,1581
DA:85,1220
DA:86,1220
DA:87,1220
DA:88,1220
DA:89,1220
DA:90,1220
DA:91,1220
DA:93,361
DA:94,361
BRDA:19,0,0,-
BRDA:19,0,1,-
BRDA:51,0,0,2074
BRDA:51,0,1,4464
BRDA:62,0,0,0
BRDA:62,0,1,361
BRDA:62,1,2,0
BRDA:62,1,3,361
BRDA:76,0,0,351
BRDA:76,0,1,10
BRDA:77,0,0,351
BRDA:77,0,1,10
BRDA:84,0,0,1220
BRDA:84,0,1,361
BRF:14
BRH:10
LF:65
LH:49
end_of_record
SF:/Users/runner/work/Draxul/Draxul/libs/draxul-geometry/src/building_generator.cpp
FN:188,_ZN6draxul24generate_draxul_buildingERKNS_20DraxulBuildingParamsE
FN:272,_ZN6draxul22generate_sidewalk_ringEiffffRKN3glm3vecILi3EfLNS0_9qualifierE0EEE
FN:199,building_generator.cpp:_ZZN6draxul24generate_draxul_buildingERKNS_20DraxulBuildingParamsEENK3$_0clERKNS_19DraxulBuildingLevelE
FN:36,building_generator.cpp:_ZN6draxul12_GLOBAL__N_117make_ring_contourEiff
FN:75,building_generator.cpp:_ZN6draxul12_GLOBAL__N_117append_side_stripERNS_12GeometryMeshERKNS0_11RingContourES5_fffRKN3glm3vecILi3EfLNS6_9qualifierE0EEEj
FN:31,building_generator.cpp:_ZN6draxul12_GLOBAL__N_119can_append_verticesERKNS_12GeometryMeshEm
FN:137,building_generator.cpp:_ZN6draxul12_GLOBAL__N_110append_capERNS_12GeometryMeshERKNS0_11RingContourEfbRKN3glm3vecILi3EfLNS6_9qualifierE0EEEfj
FNDA:8,_ZN6draxul24generate_draxul_buildingERKNS_20DraxulBuildingParamsE
FNDA:2,_ZN6draxul22generate_sidewalk_ringEiffffRKN3glm3vecILi3EfLNS0_9qualifierE0EEE
FNDA:13,building_generator.cpp:_ZZN6draxul24generate_draxul_buildingERKNS_20DraxulBuildingParamsEENK3$_0clERKNS_19DraxulBuildingLevelE
FNDA:20,building_generator.cpp:_ZN6draxul12_GLOBAL__N_117make_ring_contourEiff
FNDA:39,building_generator.cpp:_ZN6draxul12_GLOBAL__N_117append_side_stripERNS_12GeometryMeshERKNS0_11RingContourES5_fffRKN3glm3vecILi3EfLNS6_9qualifierE0EEEj
FNDA:196,building_generator.cpp:_ZN6draxul12_GLOBAL__N_119can_append_verticesERKNS_12GeometryMeshEm
FNDA:16,building_generator.cpp:_ZN6draxul12_GLOBAL__N_110append_capERNS_12GeometryMeshERKNS0_11RingContourEfbRKN3glm3vecILi3EfLNS6_9qualifierE0EEEfj
FNF:7
FNH:7
DA:31,196
DA:32,196
DA:33,196
DA:36,20
DA:37,20
DA:38,20
DA:39,20
DA:40,20
DA:41,20
DA:43,20
DA:44,20
DA:45,16
DA:46,16
DA:47,16
DA:48,16
DA:49,16
DA:50,16
DA:51,4
DA:52,4
DA:53,26
DA:54,22
DA:55,22
DA:56,22
DA:57,22
DA:58,22
DA:59,22
DA:60,4
DA:62,20
DA:63,106
DA:64,86
DA:65,86
DA:66,86
DA:67,86
DA:68,86
DA:69,20
DA:70,20
DA:71,20
DA:75,39
DA:76,39
DA:77,39
DA:78,0
DA:80,39
DA:81,219
DA:82,180
DA:83,180
DA:84,0
DA:86,180
DA:87,180
DA:88,180
DA:89,180
DA:90,180
DA:92,180
DA:93,180
DA:94,180
DA:95,180
DA:97,180
DA:98,180
DA:99,180
DA:100,0
DA:101,180
DA:103,180
DA:104,180
DA:105,180
DA:106,180
DA:108,180
DA:109,180
DA:110,180
DA:111,180
DA:112,180
DA:113,180
DA:114,180
DA:115,720
DA:116,720
DA:117,720
DA:118,720
DA:119,720
DA:120,720
DA:121,720
DA:122,720
DA:123,720
DA:124,720
DA:126,180
DA:127,180
DA:128,180
DA:129,180
DA:130,180
DA:131,180
DA:132,180
DA:133,39
DA:137,16
DA:138,16
DA:139,16
DA:140,0
DA:142,16
DA:143,16
DA:144,16
DA:145,16
DA:146,16
DA:147,16
DA:148,16
DA:149,16
DA:150,16
DA:152,16
DA:153,16
DA:154,70
DA:155,70
DA:156,70
DA:157,70
DA:158,70
DA:159,70
DA:160,70
DA:161,70
DA:162,70
DA:163,70
DA:165,16
DA:166,86
DA:167,70
DA:168,70
DA:169,70
DA:170,70
DA:171,35
DA:172,35
DA:173,35
DA:174,35
DA:175,35
DA:176,35
DA:177,35
DA:178,35
DA:179,35
DA:180,35
DA:181,35
DA:182,70
DA:183,16
DA:188,8
DA:189,8
DA:190,8
DA:191,8
DA:192,8
DA:193,8
DA:195,8
DA:196,8
DA:197,8
DA:198,8
DA:199,13
DA:200,8
DA:201,8
DA:202,0
DA:204,8
DA:205,8
DA:206,13
DA:207,8
DA:209,8
DA:210,8
DA:211,8
DA:213,8
DA:214,8
DA:216,8
DA:217,8
DA:218,13
DA:219,13
DA:220,13
DA:221,13
DA:222,13
DA:223,13
DA:224,13
DA:225,13
DA:226,13
DA:227,13
DA:228,13
DA:229,13
DA:230,13
DA:231,13
DA:232,13
DA:233,13
DA:234,13
DA:235,13
DA:236,13
DA:237,13
DA:238,13
DA:239,13
DA:240,13
DA:241,13
DA:242,13
DA:243,13
DA:244,13
DA:245,13
DA:246,13
DA:247,13
DA:248,13
DA:250,8
DA:251,8
DA:252,8
DA:253,8
DA:254,8
DA:255,8
DA:256,8
DA:257,8
DA:258,8
DA:259,8
DA:260,8
DA:261,8
DA:262,8
DA:263,8
DA:264,8
DA:265,8
DA:266,8
DA:267,8
DA:272,2
DA:273,2
DA:274,2
DA:275,2
DA:276,2
DA:277,2
DA:278,0
DA:280,2
DA:281,2
DA:282,2
DA:284,2
DA:285,10
DA:286,8
DA:287,8
DA:288,8
DA:290,8
DA:291,8
DA:292,8
DA:293,8
DA:294,8
DA:296,8
DA:297,32
DA:298,32
DA:299,32
DA:300,32
DA:301,32
DA:302,32
DA:304,8
DA:305,8
DA:306,8
DA:307,8
DA:310,8
DA:311,8
DA:312,8
DA:313,8
DA:314,8
DA:315,8
DA:316,8
DA:318,2
DA:319,2
BRDA:44,0,0,16
BRDA:44,0,1,4
BRDA:53,0,0,22
BRDA:53,0,1,4
BRDA:63,0,0,86
BRDA:63,0,1,20
BRDA:77,0,0,0
BRDA:77,0,1,39
BRDA:77,1,2,0
BRDA:77,1,3,39
BRDA:81,0,0,180
BRDA:81,0,1,39
BRDA:83,0,0,0
BRDA:83,0,1,180
BRDA:99,0,0,0
BRDA:99,0,1,180
BRDA:109,0,0,720
BRDA:109,0,1,180
BRDA:139,0,0,0
BRDA:139,0,1,16
BRDA:139,1,2,0
BRDA:139,1,3,16
BRDA:145,0,0,8
BRDA:145,0,1,8
BRDA:153,0,0,70
BRDA:153,0,1,16
BRDA:166,0,0,70
BRDA:166,0,1,16
BRDA:170,0,0,35
BRDA:170,0,1,35
BRDA:201,0,0,0
BRDA:201,0,1,8
BRDA:205,0,0,13
BRDA:205,0,1,8
BRDA:217,0,0,13
BRDA:217,0,1,8
BRDA:277,0,0,0
BRDA:277,0,1,2
BRDA:277,1,2,0
BRDA:277,1,3,2
BRDA:285,0,0,8
BRDA:285,0,1,2
BRDA:296,0,0,32
BRDA:296,0,1,8
BRF:44
BRH:35
LF:248
LH:242
end_of_record
SF:/Users/runner/work/Draxul/Draxul/libs/draxul-geometry/src/primitive_meshes.cpp
FN:44,_ZN6draxul24build_unit_cube_geometryEv
FN:19,primitive_meshes.cpp:_ZN6draxul12_GLOBAL__N_111append_quadERNS_12GeometryMeshERKNSt3__15arrayIN3glm3vecILi3EfLNS5_9qualifierE0EEELm4EEERKS8_SD_RKNS4_INS6_ILi2EfLS7_0EEELm4EEE
FNDA:3,_ZN6draxul24build_unit_cube_geometryEv
FNDA:18,primitive_meshes.cpp:_ZN6draxul12_GLOBAL__N_111append_quadERNS_12GeometryMeshERKNSt3__15arrayIN3glm3vecILi3EfLNS5_9qualifierE0EEELm4EEERKS8_SD_RKNS4_INS6_ILi2EfLS7_0EEELm4EEE
FNF:2
FNH:2
DA:19,18
DA:20,18
DA:21,18
DA:22,90
DA:23,72
DA:24,72
DA:25,72
DA:26,72
DA:27,72
DA:28,72
DA:29,72
DA:30,72
DA:31,72
DA:33,18
DA:34,18
DA:35,18
DA:36,18
DA:37,18
DA:38,18
DA:39,18
DA:44,3
DA:45,3
DA:46,3
DA:47,3
DA:48,3
DA:50,3
DA:52,3
DA:53,3
DA:54,3
DA:55,3
DA:56,3
DA:57,3
DA:58,3
DA:59,3
DA:60,3
DA:61,3
DA:62,3
DA:63,3
DA:64,3
DA:65,3
DA:66,3
DA:67,3
DA:68,3
DA:69,3
DA:70,3
DA:71,3
DA:72,3
DA:73,3
DA:74,3
DA:75,3
DA:76,3
DA:77,3
DA:78,3
DA:79,3
DA:80,3
DA:81,3
DA:82,3
DA:83,3
DA:84,3
DA:85,3
DA:86,3
DA:87,3
DA:88,3
DA:89,3
DA:90,3
DA:91,3
DA:92,3
DA:93,3
DA:95,3
DA:96,3
BRDA:22,0,0,72
BRDA:22,0,1,18
BRF:2
BRH:2
LF:70
LH:70
end_of_record
SF:/Users/runner/work/Draxul/Draxul/libs/draxul-geometry/src/roof_sign_generator.cpp
FN:97,_ZN6draxul25generate_draxul_roof_signERKNS_20DraxulRoofSignParamsE
FN:32,roof_sign_generator.cpp:_ZN6draxul12_GLOBAL__N_117make_sign_contourEif
FN:68,roof_sign_generator.cpp:_ZN6draxul12_GLOBAL__N_111append_quadERNS_12GeometryMeshERKNSt3__15arrayIN3glm3vecILi3EfLNS5_9qualifierE0EEELm4EEERKS8_SD_RKNS4_INS6_ILi2EfLS7_0EEELm4EEEfSD_
FN:27,roof_sign_generator.cpp:_ZN6draxul12_GLOBAL__N_119can_append_verticesERKNS_12GeometryMeshEm
FNDA:5,_ZN6draxul25generate_draxul_roof_signERKNS_20DraxulRoofSignParamsE
FNDA:10,roof_sign_generator.cpp:_ZN6draxul12_GLOBAL__N_117make_sign_contourEif
FNDA:92,roof_sign_generator.cpp:_ZN6draxul12_GLOBAL__N_111append_quadERNS_12GeometryMeshERKNSt3__15arrayIN3glm3vecILi3EfLNS5_9qualifierE0EEELm4EEERKS8_SD_RKNS4_INS6_ILi2EfLS7_0EEELm4EEEfSD_
FNDA:92,roof_sign_generator.cpp:_ZN6draxul12_GLOBAL__N_119can_append_verticesERKNS_12GeometryMeshEm
FNF:4
FNH:4
DA:27,92
DA:28,92
DA:29,92
DA:32,10
DA:33,10
DA:34,10
DA:35,10
DA:36,10
DA:38,10
DA:39,10
DA:40,6
DA:41,6
DA:42,6
DA:43,6
DA:44,6
DA:45,6
DA:46,4
DA:47,4
DA:48,26
DA:49,22
DA:50,22
DA:51,22
DA:52,22
DA:53,22
DA:54,4
DA:56,10
DA:57,10
DA:68,92
DA:69,92
DA:70,92
DA:71,0
DA:73,92
DA:74,460
DA:75,368
DA:76,368
DA:77,368
DA:78,368
DA:79,368
DA:80,368
DA:81,368
DA:82,368
DA:83,368
DA:84,368
DA:86,92
DA:87,92
DA:88,92
DA:89,92
DA:90,92
DA:91,92
DA:92,92
DA:97,5
DA:98,5
DA:99,5
DA:100,5
DA:101,5
DA:102,5
DA:103,5
DA:105,5
DA:106,5
DA:107,5
DA:109,5
DA:110,5
DA:111,5
DA:113,28
DA:114,23
DA:115,23
DA:116,23
DA:117,23
DA:118,23
DA:119,23
DA:121,23
DA:122,23
DA:123,0
DA:125,23
DA:126,23
DA:127,23
DA:129,23
DA:130,23
DA:131,23
DA:132,23
DA:133,23
DA:134,23
DA:135,23
DA:136,23
DA:137,23
DA:138,23
DA:139,23
DA:140,23
DA:141,23
DA:142,23
DA:143,23
DA:144,23
DA:145,23
DA:146,23
DA:148,23
DA:149,23
DA:150,23
DA:151,23
DA:152,23
DA:153,23
DA:154,23
DA:155,23
DA:156,23
DA:157,23
DA:158,23
DA:159,23
DA:160,23
DA:161,23
DA:162,23
DA:163,23
DA:164,23
DA:165,23
DA:167,23
DA:168,23
DA:169,23
DA:170,23
DA:171,23
DA:172,23
DA:173,23
DA:174,23
DA:175,23
DA:176,23
DA:177,23
DA:178,23
DA:179,23
DA:180,23
DA:181,23
DA:182,23
DA:183,23
DA:184,23
DA:186,23
DA:187,23
DA:188,23
DA:189,23
DA:190,23
DA:191,23
DA:192,23
DA:193,23
DA:194,23
DA:195,23
DA:196,23
DA:197,23
DA:198,23
DA:199,23
DA:200,23
DA:201,23
DA:202,23
DA:203,23
DA:204,23
DA:206,5
DA:207,5
BRDA:39,0,0,6
BRDA:39,0,1,4
BRDA:48,0,0,22
BRDA:48,0,1,4
BRDA:70,0,0,0
BRDA:70,0,1,92
BRDA:74,0,0,368
BRDA:74,0,1,92
BRDA:113,0,0,23
BRDA:113,0,1,5
BRDA:122,0,0,0
BRDA:122,0,1,23
BRF:12
BRH:10
LF:151
LH:149
end_of_record
SF:/Users/runner/work/Draxul/Draxul/libs/draxul-geometry/src/tree_generator.cpp
FN:904,_ZN6draxul25make_tree_params_from_ageEf
FN:934,_ZN6draxul27generate_draxul_tree_meshesERKNS_16DraxulTreeParamsE
FN:991,_ZN6draxul20generate_draxul_treeERKNS_16DraxulTreeParamsE
FN:707,tree_generator.cpp:_ZN6draxul12_GLOBAL__N_113append_branchERNS_12GeometryMeshES2_RKNS_16DraxulTreeParamsERKN3glm3vecILi3EfLNS6_9qualifierE0EEESB_fffijbPKNS0_16BranchAttachmentE
FN:374,tree_generator.cpp:_ZN6draxul12_GLOBAL__N_119build_branch_framesERKNS_16DraxulTreeParamsERKN3glm3vecILi3EfLNS4_9qualifierE0EEES9_fffij
FN:341,tree_generator.cpp:_ZN6draxul12_GLOBAL__N_120build_ring_distancesERKNS_16DraxulTreeParamsEff
FN:87,tree_generator.cpp:_ZN6draxul12_GLOBAL__N_115orthogonal_unitERKN3glm3vecILi3EfLNS1_9qualifierE0EEE
FN:95,tree_generator.cpp:_ZN6draxul12_GLOBAL__N_113project_basisERKN3glm3vecILi3EfLNS1_9qualifierE0EEES6_
FN:471,tree_generator.cpp:_ZN6draxul12_GLOBAL__N_119append_branch_ringsERNS_12GeometryMeshERKNS_16DraxulTreeParamsERKNSt3__16vectorINS0_11BranchFrameENS6_9allocatorIS8_EEEEPKNS0_16BranchAttachmentEjRjSH_i
FN:135,tree_generator.cpp:_ZN6draxul12_GLOBAL__N_122shortest_segment_deltaEiii
FN:125,tree_generator.cpp:_ZN6draxul12_GLOBAL__N_112wrap_segmentEii
FN:103,tree_generator.cpp:_ZN6draxul12_GLOBAL__N_121bark_color_for_vertexERKNS_16DraxulTreeParamsEfjj
FN:866,tree_generator.cpp:_ZN6draxul12_GLOBAL__N_110append_capERNS_12GeometryMeshERKNS_16DraxulTreeParamsEjiRKN3glm3vecILi3EfLNS6_9qualifierE0EEESB_fb
FN:580,tree_generator.cpp:_ZN6draxul12_GLOBAL__N_120append_branch_leavesERNS_12GeometryMeshERKNS_16DraxulTreeParamsERKNSt3__16vectorINS0_11BranchFrameENS6_9allocatorIS8_EEEEij
FN:288,tree_generator.cpp:_ZN6draxul12_GLOBAL__N_124append_double_sided_quadERNS_12GeometryMeshERKN3glm3vecILi3EfLNS3_9qualifierE0EEES8_S8_S8_S8_RKNS4_ILi4EfLS5_0EEE
FN:299,tree_generator.cpp:_ZZN6draxul12_GLOBAL__N_124append_double_sided_quadERNS_12GeometryMeshERKN3glm3vecILi3EfLNS3_9qualifierE0EEES8_S8_S8_S8_RKNS4_ILi4EfLS5_0EEEENK3$_0clES8_S8_RKNS4_ILi2EfLS5_0EEES8_
FN:110,tree_generator.cpp:_ZN6draxul12_GLOBAL__N_119leaf_color_for_quadERKNS_16DraxulTreeParamsEjj
FN:79,tree_generator.cpp:_ZN6draxul12_GLOBAL__N_111hash_to_intEyjjii
FN:65,tree_generator.cpp:_ZN6draxul12_GLOBAL__N_118hash_to_unit_floatEyjj
FN:118,tree_generator.cpp:_ZN6draxul12_GLOBAL__N_119can_append_verticesERKNS_12GeometryMeshEm
FN:143,tree_generator.cpp:_ZN6draxul12_GLOBAL__N_117ring_vertex_indexEjiii
FN:155,tree_generator.cpp:_ZN6draxul12_GLOBAL__N_117build_arc_indicesEjiiiib
FN:176,tree_generator.cpp:_ZN6draxul12_GLOBAL__N_126append_double_sided_bridgeERNS_12GeometryMeshERKNSt3__16vectorIjNS3_9allocatorIjEEEES9_
FN:209,tree_generator.cpp:_ZN6draxul12_GLOBAL__N_124append_attachment_bridgeERNS_12GeometryMeshERKNS0_16BranchAttachmentEji
FN:247,tree_generator.cpp:_ZN6draxul12_GLOBAL__N_123prepend_attachment_ringERNSt3__16vectorINS0_11BranchFrameENS1_9allocatorIS3_EEEEfRKNS0_16BranchAttachmentE
FNDA:15,_ZN6draxul25make_tree_params_from_ageEf
FNDA:14,_ZN6draxul27generate_draxul_tree_meshesERKNS_16DraxulTreeParamsE
FNDA:4,_ZN6draxul20generate_draxul_treeERKNS_16DraxulTreeParamsE
FNDA:219,tree_generator.cpp:_ZN6draxul12_GLOBAL__N_113append_branchERNS_12GeometryMeshES2_RKNS_16DraxulTreeParamsERKN3glm3vecILi3EfLNS6_9qualifierE0EEESB_fffijbPKNS0_16BranchAttachmentE
FNDA:199,tree_generator.cpp:_ZN6draxul12_GLOBAL__N_119build_branch_framesERKNS_16DraxulTreeParamsERKN3glm3vecILi3EfLNS4_9qualifierE0EEES9_fffij
FNDA:199,tree_generator.cpp:_ZN6draxul12_GLOBAL__N_120build_ring_distancesERKNS_16DraxulTreeParamsEff
FNDA:412,tree_generator.cpp:_ZN6draxul12_GLOBAL__N_115orthogonal_unitERKN3glm3vecILi3EfLNS1_9qualifierE0EEE
FNDA:3721,tree_generator.cpp:_ZN6draxul12_GLOBAL__N_113project_basisERKN3glm3vecILi3EfLNS1_9qualifierE0EEES6_
FNDA:199,tree_generator.cpp:_ZN6draxul12_GLOBAL__N_119append_branch_ringsERNS_12GeometryMeshERKNS_16DraxulTreeParamsERKNSt3__16vectorINS0_11BranchFrameENS6_9allocatorIS8_EEEEPKNS0_16BranchAttachmentEjRjSH_i
FNDA:0,tree_generator.cpp:_ZN6draxul12_GLOBAL__N_122shortest_segment_deltaEiii
FNDA:0,tree_generator.cpp:_ZN6draxul12_GLOBAL__N_112wrap_segmentEii
FNDA:49899,tree_generator.cpp:_ZN6draxul12_GLOBAL__N_121bark_color_for_vertexERKNS_16DraxulTreeParamsEfjj
FNDA:213,tree_generator.cpp:_ZN6draxul12_GLOBAL__N_110append_capERNS_12GeometryMeshERKNS_16DraxulTreeParamsEjiRKN3glm3vecILi3EfLNS6_9qualifierE0EEESB_fb
FNDA:199,tree_generator.cpp:_ZN6draxul12_GLOBAL__N_120append_branch_leavesERNS_12GeometryMeshERKNS_16DraxulTreeParamsERKNSt3__16vectorINS0_11BranchFrameENS6_9allocatorIS8_EEEEij
FNDA:861,tree_generator.cpp:_ZN6draxul12_GLOBAL__N_124append_double_sided_quadERNS_12GeometryMeshERKN3glm3vecILi3EfLNS3_9qualifierE0EEES8_S8_S8_S8_RKNS4_ILi4EfLS5_0EEE
FNDA:6888,tree_generator.cpp:_ZZN6draxul12_GLOBAL__N_124append_double_sided_quadERNS_12GeometryMeshERKN3glm3vecILi3EfLNS3_9qualifierE0EEES8_S8_S8_S8_RKNS4_ILi4EfLS5_0EEEENK3$_0clES8_S8_RKNS4_ILi2EfLS5_0EEES8_
FNDA:861,tree_generator.cpp:_ZN6draxul12_GLOBAL__N_119leaf_color_for_quadERKNS_16DraxulTreeParamsEjj
FNDA:929,tree_generator.cpp:_ZN6draxul12_GLOBAL__N_111hash_to_intEyjjii
FNDA:65799,tree_generator.cpp:_ZN6draxul12_GLOBAL__N_118hash_to_unit_floatEyjj
FNDA:1276,tree_generator.cpp:_ZN6draxul12_GLOBAL__N_119can_append_verticesERKNS_12GeometryMeshEm
FNDA:0,tree_generator.cpp:_ZN6draxul12_GLOBAL__N_117ring_vertex_indexEjiii
FNDA:0,tree_generator.cpp:_ZN6draxul12_GLOBAL__N_117build_arc_indicesEjiiiib
FNDA:0,tree_generator.cpp:_ZN6draxul12_GLOBAL__N_126append_double_sided_bridgeERNS_12GeometryMeshERKNSt3__16vectorIjNS3_9allocatorIjEEEES9_
FNDA:0,tree_generator.cpp:_ZN6draxul12_GLOBAL__N_124append_attachment_bridgeERNS_12GeometryMeshERKNS0_16BranchAttachmentEji
FNDA:0,tree_generator.cpp:_ZN6draxul12_GLOBAL__N_123prepend_attachment_ringERNSt3__16vectorINS0_11BranchFrameENS1_9allocatorIS3_EEEEfRKNS0_16BranchAttachmentE
FNF:25
FNH:18
DA:65,65799
DA:66,65799
DA:67,65799
DA:68,65799
DA:69,65799
DA:70,65799
DA:71,65799
DA:72,65799
DA:73,65799
DA:74,65799
DA:75,65799
DA:76,65799
DA:79,929
DA:80,929
DA:81,0
DA:82,929
DA:83,929
DA:84,929
DA:87,412
DA:88,412
DA:89,412
DA:90,412
DA:91,412
DA:92,412
DA:95,3721
DA:96,3721
DA:97,3721
DA:98,0
DA:99,3721
DA:100,3721
DA:103,49899
DA:104,49899
DA:105,49899
DA:106,49899
DA:107,49899
DA:110,861
DA:111,861
DA:112,861
DA:113,861
DA:114,861
DA:115,861
DA:118,1276
DA:119,1276
DA:120,0
DA:121,1276
DA:122,1276
DA:125,0
DA:126,0
DA:127,0
DA:128,0
DA:129,0
DA:130,0
DA:131,0
DA:132,0
DA:135,0
DA:136,0
DA:137,0
DA:138,0
DA:139,0
DA:140,0
DA:143,0
DA:144,0
DA:145,0
DA:146,0
DA:155,0
DA:156,0
DA:157,0
DA:158,0
DA:159,0
DA:160,0
DA:161,0
DA:162,0
DA:163,0
DA:164,0
DA:165,0
DA:166,0
DA:167,0
DA:168,0
DA:169,0
DA:170,0
DA:176,0
DA:177,0
DA:178,0
DA:179,0
DA:180,0
DA:181,0
DA:182,0
DA:183,0
DA:184,0
DA:185,0
DA:186,0
DA:187,0
DA:188,0
DA:189,0
DA:190,0
DA:191,0
DA:192,0
DA:193,0
DA:194,0
DA:195,0
DA:196,0
DA:197,0
DA:198,0
DA:199,0
DA:200,0
DA:201,0
DA:202,0
DA:209,0
DA:210,0
DA:211,0
DA:212,0
DA:213,0
DA:214,0
DA:215,0
DA:216,0
DA:217,0
DA:218,0
DA:219,0
DA:220,0
DA:221,0
DA:222,0
DA:223,0
DA:224,0
DA:225,0
DA:226,0
DA:227,0
DA:228,0
DA:229,0
DA:230,0
DA:231,0
DA:232,0
DA:233,0
DA:234,0
DA:235,0
DA:236,0
DA:237,0
DA:238,0
DA:239,0
DA:240,0
DA:241,0
DA:247,0
DA:248,0
DA:249,0
DA:250,0
DA:251,0
DA:252,0
DA:253,0
DA:254,0
DA:255,0
DA:256,0
DA:257,0
DA:258,0
DA:259,0
DA:260,0
DA:261,0
DA:262,0
DA:263,0
DA:264,0
DA:265,0
DA:266,0
DA:267,0
DA:268,0
DA:269,0
DA:270,0
DA:271,0
DA:272,0
DA:273,0
DA:274,0
DA:275,0
DA:276,0
DA:277,0
DA:278,0
DA:288,861
DA:289,861
DA:290,861
DA:291,0
DA:293,861
DA:294,861
DA:295,861
DA:296,861
DA:297,861
DA:299,6888
DA:300,6888
DA:301,6888
DA:302,6888
DA:303,6888
DA:304,6888
DA:305,6888
DA:306,6888
DA:307,6888
DA:309,861
DA:310,861
DA:311,861
DA:312,861
DA:314,861
DA:315,861
DA:316,861
DA:317,861
DA:318,861
DA:319,861
DA:320,861
DA:321,861
DA:323,861
DA:324,861
DA:325,861
DA:326,861
DA:327,861
DA:328,861
DA:329,861
DA:330,861
DA:331,861
DA:332,861
DA:333,861
DA:334,861
DA:335,861
DA:336,861
DA:337,861
DA:338,861
DA:341,199
DA:342,199
DA:343,199
DA:344,199
DA:345,199
DA:347,199
DA:348,3920
DA:349,3721
DA:350,3721
DA:351,3721
DA:352,3721
DA:353,3721
DA:354,3721
DA:355,3721
DA:356,3721
DA:357,3721
DA:358,3721
DA:360,199
DA:361,0
DA:362,199
DA:363,199
DA:374,199
DA:375,199
DA:376,199
DA:377,199
DA:378,199
DA:380,199
DA:381,199
DA:383,199
DA:384,199
DA:385,199
DA:386,199
DA:387,199
DA:388,199
DA:389,199
DA:390,199
DA:391,199
DA:392,199
DA:393,199
DA:394,199
DA:396,199
DA:397,199
DA:398,199
DA:399,199
DA:401,199
DA:402,199
DA:403,199
DA:404,199
DA:405,199
DA:406,199
DA:408,4119
DA:409,3920
DA:410,3920
DA:411,3920
DA:412,3920
DA:413,3721
DA:414,3721
DA:415,3721
DA:416,3721
DA:417,3721
DA:418,3920
DA:419,3920
DA:420,3522
DA:421,3522
DA:422,3522
DA:423,1490
DA:424,1490
DA:425,1490
DA:426,1490
DA:427,1490
DA:428,1490
DA:429,1490
DA:430,1490
DA:431,1490
DA:432,1490
DA:433,1490
DA:434,1490
DA:435,1490
DA:436,1490
DA:437,1490
DA:438,1490
DA:439,1490
DA:440,3522
DA:441,3522
DA:442,3522
DA:443,3522
DA:444,3920
DA:445,3920
DA:447,3920
DA:448,3920
DA:449,3920
DA:450,3920
DA:451,3920
DA:452,3920
DA:453,3920
DA:454,3920
DA:455,3920
DA:456,3920
DA:457,3920
DA:459,199
DA:460,199
DA:471,199
DA:472,199
DA:473,199
DA:474,199
DA:475,0
DA:477,199
DA:478,199
DA:479,199
DA:480,4119
DA:481,3920
DA:482,3920
DA:483,3920
DA:484,3920
DA:485,3920
DA:486,3920
DA:487,3920
DA:488,3920
DA:489,49686
DA:490,45766
DA:491,45766
DA:492,45766
DA:493,45766
DA:494,45766
DA:495,45766
DA:496,0
DA:497,0
DA:498,0
DA:499,0
DA:500,0
DA:501,0
DA:502,0
DA:503,0
DA:504,0
DA:505,0
DA:506,0
DA:507,0
DA:508,0
DA:509,0
DA:510,0
DA:512,45766
DA:513,45766
DA:515,45766
DA:516,45766
DA:517,45766
DA:518,45766
DA:519,45766
DA:520,45766
DA:521,45766
DA:522,45766
DA:523,45766
DA:524,45766
DA:525,45766
DA:526,45766
DA:527,45766
DA:528,3920
DA:529,3920
DA:530,3920
DA:531,3920
DA:532,3920
DA:533,3920
DA:534,3920
DA:535,3920
DA:536,3920
DA:538,3920
DA:539,3920
DA:540,3920
DA:541,3920
DA:542,3920
DA:543,3920
DA:544,3920
DA:545,3920
DA:546,3920
DA:547,3920
DA:548,3920
DA:549,3920
DA:550,3920
DA:551,3920
DA:553,3920
DA:554,3721
DA:555,47182
DA:556,43461
DA:557,43461
DA:558,43461
DA:559,43461
DA:560,43461
DA:562,43461
DA:563,43461
DA:564,43461
DA:565,43461
DA:566,43461
DA:567,43461
DA:568,43461
DA:569,3721
DA:570,199
DA:571,199
DA:572,199
DA:580,199
DA:581,199
DA:582,199
DA:583,11
DA:585,188
DA:586,188
DA:587,188
DA:588,188
DA:589,3545
DA:590,3357
DA:591,3357
DA:592,3357
DA:593,3357
DA:594,3357
DA:595,3357
DA:596,376
DA:598,2981
DA:599,2981
DA:600,2981
DA:601,2981
DA:602,2981
DA:603,2981
DA:604,2981
DA:605,2981
DA:606,2981
DA:607,2120
DA:609,861
DA:610,861
DA:611,861
DA:612,861
DA:613,861
DA:614,861
DA:615,861
DA:616,861
DA:617,861
DA:618,861
DA:619,861
DA:620,861
DA:621,861
DA:622,861
DA:623,861
DA:624,861
DA:625,861
DA:626,861
DA:627,861
DA:628,861
DA:629,861
DA:630,861
DA:631,861
DA:632,861
DA:633,861
DA:634,861
DA:635,861
DA:636,0
DA:637,861
DA:638,861
DA:639,861
DA:640,861
DA:641,861
DA:643,861
DA:644,861
DA:645,861
DA:646,861
DA:647,861
DA:648,861
DA:649,861
DA:650,861
DA:651,861
DA:652,861
DA:653,861
DA:654,861
DA:655,861
DA:656,861
DA:657,861
DA:658,861
DA:659,861
DA:660,861
DA:661,861
DA:662,861
DA:663,861
DA:665,861
DA:666,861
DA:667,861
DA:668,861
DA:669,861
DA:670,861
DA:672,861
DA:673,861
DA:674,861
DA:675,861
DA:676,861
DA:677,861
DA:678,861
DA:679,861
DA:680,861
DA:681,861
DA:682,188
DA:707,219
DA:708,219
DA:709,219
DA:710,0
DA:711,219
DA:712,20
DA:714,199
DA:715,199
DA:716,199
DA:717,199
DA:718,199
DA:719,199
DA:720,199
DA:721,199
DA:722,199
DA:723,199
DA:724,0
DA:726,199
DA:727,199
DA:728,199
DA:729,199
DA:730,199
DA:731,199
DA:732,199
DA:733,199
DA:734,199
DA:735,199
DA:736,199
DA:737,199
DA:738,0
DA:740,199
DA:741,14
DA:742,14
DA:743,14
DA:744,14
DA:745,14
DA:746,14
DA:747,14
DA:748,14
DA:749,14
DA:750,14
DA:751,14
DA:753,199
DA:754,199
DA:755,199
DA:756,199
DA:757,199
DA:758,199
DA:759,199
DA:760,199
DA:761,199
DA:763,199
DA:765,199
DA:766,199
DA:767,199
DA:768,131
DA:769,131
DA:770,131
DA:772,68
DA:773,68
DA:774,68
DA:775,68
DA:776,68
DA:777,68
DA:778,68
DA:779,1
DA:781,272
DA:782,205
DA:783,205
DA:784,205
DA:785,205
DA:786,205
DA:787,205
DA:788,205
DA:789,205
DA:790,205
DA:791,205
DA:792,205
DA:793,205
DA:794,205
DA:795,205
DA:796,205
DA:797,205
DA:798,205
DA:799,205
DA:800,205
DA:802,205
DA:803,205
DA:804,205
DA:805,205
DA:806,205
DA:807,205
DA:808,205
DA:809,205
DA:810,205
DA:811,205
DA:812,205
DA:813,205
DA:814,205
DA:815,205
DA:816,205
DA:817,205
DA:818,205
DA:820,205
DA:821,205
DA:822,205
DA:823,205
DA:824,205
DA:825,205
DA:826,205
DA:827,205
DA:828,205
DA:829,205
DA:830,205
DA:831,205
DA:832,205
DA:833,205
DA:834,205
DA:835,205
DA:836,205
DA:837,205
DA:838,205
DA:839,205
DA:841,205
DA:842,205
DA:843,205
DA:844,205
DA:845,205
DA:846,205
DA:847,205
DA:848,205
DA:849,205
DA:850,205
DA:851,205
DA:852,205
DA:853,205
DA:854,205
DA:855,67
DA:866,213
DA:867,213
DA:868,213
DA:869,0
DA:871,213
DA:872,213
DA:873,213
DA:874,213
DA:875,213
DA:876,213
DA:878,213
DA:879,213
DA:881,2651
DA:882,2438
DA:883,2438
DA:884,2438
DA:885,2438
DA:886,133
DA:887,133
DA:888,133
DA:889,133
DA:890,133
DA:891,2305
DA:892,2305
DA:893,2305
DA:894,2305
DA:895,2305
DA:896,2305
DA:897,2438
DA:898,213
DA:899,213
DA:904,15
DA:905,15
DA:906,15
DA:907,15
DA:908,15
DA:910,15
DA:911,15
DA:912,15
DA:913,15
DA:914,15
DA:915,15
DA:916,15
DA:917,15
DA:918,15
DA:919,15
DA:920,15
DA:921,15
DA:922,15
DA:923,15
DA:924,15
DA:925,15
DA:926,15
DA:927,15
DA:928,15
DA:929,15
DA:930,15
DA:931,15
DA:934,14
DA:935,14
DA:936,14
DA:938,14
DA:939,14
DA:940,14
DA:941,14
DA:942,14
DA:943,14
DA:944,14
DA:945,14
DA:946,14
DA:947,14
DA:948,14
DA:949,14
DA:950,14
DA:951,14
DA:952,14
DA:953,14
DA:954,14
DA:955,14
DA:956,14
DA:957,14
DA:958,14
DA:959,14
DA:960,14
DA:961,14
DA:962,14
DA:963,14
DA:965,14
DA:966,14
DA:967,14
DA:968,14
DA:969,14
DA:970,14
DA:971,14
DA:972,14
DA:974,14
DA:975,14
DA:976,14
DA:977,14
DA:978,14
DA:979,14
DA:980,14
DA:981,14
DA:982,14
DA:983,14
DA:984,14
DA:985,14
DA:987,14
DA:988,14
DA:991,4
DA:992,4
DA:993,4
DA:994,4
DA:995,4
DA:996,1
DA:997,3
DA:998,0
DA:1000,3
DA:1001,3
DA:1002,3
DA:1003,3
DA:1004,3
DA:1005,3
DA:1006,3
DA:1007,552
DA:1008,3
DA:1009,3
BRDA:80,0,0,0
BRDA:80,0,1,929
BRDA:88,0,0,344
BRDA:88,0,1,68
BRDA:97,0,0,0
BRDA:97,0,1,3721
BRDA:119,0,0,0
BRDA:119,0,1,1276
BRDA:126,0,0,-
BRDA:126,0,1,-
BRDA:129,0,0,-
BRDA:129,0,1,-
BRDA:137,0,0,-
BRDA:137,0,1,-
BRDA:290,0,0,0
BRDA:290,0,1,861
BRDA:348,0,0,3721
BRDA:348,0,1,199
BRDA:350,0,0,3721
BRDA:350,0,1,0
BRDA:356,0,0,3721
BRDA:356,0,1,0
BRDA:360,0,0,0
BRDA:360,0,1,199
BRDA:393,0,0,14
BRDA:393,0,1,185
BRDA:394,0,0,185
BRDA:394,0,1,14
BRDA:396,0,0,14
BRDA:396,0,1,185
BRDA:408,0,0,3920
BRDA:408,0,1,199
BRDA:411,0,0,3920
BRDA:411,0,1,0
BRDA:412,0,0,3721
BRDA:412,0,1,199
BRDA:419,0,0,3721
BRDA:419,0,1,199
BRDA:419,1,2,3522
BRDA:419,1,3,199
BRDA:422,0,0,1490
BRDA:422,0,1,2032
BRDA:474,0,0,0
BRDA:474,0,1,199
BRDA:480,0,0,3920
BRDA:480,0,1,199
BRDA:487,0,0,0
BRDA:487,0,1,3920
BRDA:487,1,2,-
BRDA:487,1,3,-
BRDA:487,2,4,-
BRDA:487,2,5,-
BRDA:488,0,0,-
BRDA:488,0,1,-
BRDA:489,0,0,45766
BRDA:489,0,1,3920
BRDA:495,0,0,0
BRDA:495,0,1,45766
BRDA:501,0,0,-
BRDA:501,0,1,-
BRDA:504,0,0,-
BRDA:504,0,1,-
BRDA:529,0,0,3920
BRDA:529,0,1,0
BRDA:553,0,0,3721
BRDA:553,0,1,199
BRDA:555,0,0,43461
BRDA:555,0,1,3721
BRDA:582,0,0,0
BRDA:582,0,1,199
BRDA:582,1,2,0
BRDA:582,1,3,199
BRDA:582,2,4,11
BRDA:582,2,5,188
BRDA:589,0,0,3357
BRDA:589,0,1,188
BRDA:592,0,0,43
BRDA:592,0,1,3314
BRDA:595,0,0,376
BRDA:595,0,1,2981
BRDA:598,0,0,21
BRDA:598,0,1,2960
BRDA:606,0,0,2120
BRDA:606,0,1,861
BRDA:635,0,0,0
BRDA:635,0,1,861
BRDA:639,0,0,861
BRDA:639,0,1,0
BRDA:709,0,0,0
BRDA:709,0,1,219
BRDA:711,0,0,0
BRDA:711,0,1,219
BRDA:711,1,2,20
BRDA:711,1,3,199
BRDA:723,0,0,0
BRDA:723,0,1,199
BRDA:729,0,0,0
BRDA:729,0,1,199
BRDA:740,0,0,14
BRDA:740,0,1,185
BRDA:765,0,0,68
BRDA:765,0,1,131
BRDA:766,0,0,0
BRDA:766,0,1,131
BRDA:767,0,0,63
BRDA:767,0,1,68
BRDA:778,0,0,1
BRDA:778,0,1,67
BRDA:781,0,0,205
BRDA:781,0,1,67
BRDA:787,0,0,16
BRDA:787,0,1,189
BRDA:826,0,0,16
BRDA:826,0,1,189
BRDA:868,0,0,0
BRDA:868,0,1,213
BRDA:881,0,0,2438
BRDA:881,0,1,213
BRDA:885,0,0,133
BRDA:885,0,1,2305
BRDA:920,0,0,2
BRDA:920,0,1,13
BRDA:929,0,0,1
BRDA:929,0,1,14
BRDA:995,0,0,1
BRDA:995,0,1,3
BRDA:997,0,0,0
BRDA:997,0,1,3
BRDA:1006,0,0,552
BRDA:1006,0,1,3
BRF:130
BRH:91
LF:786
LH:633
end_of_record
SF:/Users/runner/work/Draxul/Draxul/libs/draxul-grid/include/draxul/attribute_cache.h
FN:118,_ZNK6draxul14AttributeCache4sizeEv
FN:30,_ZN6draxul14AttributeCache13get_or_insertERKNS_6HlAttrERNS_14HighlightTableERb
FN:87,_ZN6draxul14AttributeCache7compactERKNSt3__113unordered_mapItNS_6HlAttrENS1_4hashItEENS1_8equal_toItEENS1_9allocatorINS1_4pairIKtS3_EEEEEERNS_14HighlightTableE
FN:112,_ZN6draxul14AttributeCache5clearEv
FN:123,_ZNK6draxul14AttributeCache7next_idEv
FN:58,terminal_host_base.cpp:_ZN6draxul14AttributeCache13get_or_insertIZNS_16TerminalHostBase7attr_idEvE3$_0EEtRKNS_6HlAttrERNS_14HighlightTableEOT_
FNDA:9,_ZNK6draxul14AttributeCache4sizeEv
FNDA:206020,_ZN6draxul14AttributeCache13get_or_insertERKNS_6HlAttrERNS_14HighlightTableERb
FNDA:3,_ZN6draxul14AttributeCache7compactERKNSt3__113unordered_mapItNS_6HlAttrENS1_4hashItEENS1_8equal_toItEENS1_9allocatorINS1_4pairIKtS3_EEEEEERNS_14HighlightTableE
FNDA:146,_ZN6draxul14AttributeCache5clearEv
FNDA:3,_ZNK6draxul14AttributeCache7next_idEv
FNDA:146006,terminal_host_base.cpp:_ZN6draxul14AttributeCache13get_or_insertIZNS_16TerminalHostBase7attr_idEvE3$_0EEtRKNS_6HlAttrERNS_14HighlightTableEOT_
FNF:6
FNH:6
DA:30,206020
DA:31,206020
DA:32,206020
DA:33,206020
DA:34,80642
DA:36,125378
DA:37,125378
DA:38,205
DA:40,125173
DA:41,2
DA:42,2
DA:43,2
DA:44,2
DA:46,125171
DA:47,125171
DA:48,125171
DA:49,125171
DA:50,125173
DA:58,146006
DA:59,146006
DA:60,146006
DA:61,146006
DA:62,146005
DA:64,1
DA:67,1
DA:68,1
DA:69,0
DA:72,1
DA:73,1
DA:74,1
DA:75,1
DA:76,1
DA:87,3
DA:88,3
DA:89,3
DA:91,3
DA:92,3
DA:93,3
DA:94,2
DA:95,2
DA:96,2
DA:97,2
DA:98,2
DA:99,2
DA:100,2
DA:102,3
DA:104,3
DA:105,3
DA:106,3
DA:108,3
DA:109,3
DA:112,146
DA:113,146
DA:114,146
DA:115,146
DA:118,9
DA:119,9
DA:120,9
DA:123,3
DA:124,3
DA:125,3
BRDA:31,0,0,80669
BRDA:31,0,1,125351
BRDA:31,1,2,80648
BRDA:31,1,3,21
BRDA:31,2,4,80648
BRDA:31,2,5,0
BRDA:32,0,0,80645
BRDA:32,0,1,3
BRDA:32,1,2,80644
BRDA:32,1,3,1
BRDA:32,2,4,80643
BRDA:32,2,5,1
BRDA:33,0,0,80643
BRDA:33,0,1,0
BRDA:33,1,2,80642
BRDA:33,1,3,1
BRDA:33,2,4,80642
BRDA:33,2,5,0
BRDA:37,0,0,205
BRDA:37,0,1,125173
BRDA:40,0,0,2
BRDA:40,0,1,125171
BRDA:61,0,0,146005
BRDA:61,0,1,1
BRDA:68,0,0,0
BRDA:68,0,1,1
BRDA:93,0,0,2
BRDA:93,0,1,3
BRF:28
BRH:24
LF:61
LH:60
end_of_record
SF:/Users/runner/work/Draxul/Draxul/libs/draxul-grid/include/draxul/grid.h
FN:131,_ZN6draxul8CellTextC2Ev
FN:217,_ZNK6draxul4Grid16dirty_cell_countEv
FN:134,_ZN6draxul8CellTextC2ENSt3__117basic_string_viewIcNS1_11char_traitsIcEEEE
FN:139,_ZN6draxul8CellText6assignENSt3__117basic_string_viewIcNS1_11char_traitsIcEEEE
FN:152,_ZNK6draxul8CellText4viewEv
FN:156,_ZNK6draxul8CellText5emptyEv
FN:161,_ZNK6draxul8CellTexteqERKS0_
FN:167,_ZNK6draxul8CellTexteqENSt3__117basic_string_viewIcNS1_11char_traitsIcEEEE
FN:193,_ZNK6draxul4Grid4colsEv
FN:197,_ZNK6draxul4Grid4rowsEv
FN:202,_ZNK6draxul4Grid9sink_colsEv
FN:206,_ZNK6draxul4Grid9sink_rowsEv
FN:21,_ZN6draxul6detail25is_utf8_continuation_byteEh
FN:26,_ZN6draxul6detail28utf8_next_codepoint_two_byteEPKhmmRm
FN:37,_ZN6draxul6detail30utf8_next_codepoint_three_byteEPKhmmRm
FN:56,_ZN6draxul6detail29utf8_next_codepoint_four_byteEPKhmmRm
FN:78,_ZN6draxul6detail19utf8_next_codepointENSt3__117basic_string_viewIcNS1_11char_traitsIcEEEEmmRm
FN:105,_ZN6draxul6detail24utf8_valid_prefix_lengthENSt3__117basic_string_viewIcNS1_11char_traitsIcEEEEm
FN:241,terminal_host_base.cpp:_ZN6draxul4Grid19remap_highlight_idsIRZNS_16TerminalHostBase16compact_attr_idsEvE3$_1EEvOT_
FNDA:200369930,_ZN6draxul8CellTextC2Ev
FNDA:191,_ZNK6draxul4Grid16dirty_cell_countEv
FNDA:0,_ZN6draxul8CellTextC2ENSt3__117basic_string_viewIcNS1_11char_traitsIcEEEE
FNDA:100457702,_ZN6draxul8CellText6assignENSt3__117basic_string_viewIcNS1_11char_traitsIcEEEE
FNDA:218208,_ZNK6draxul8CellText4viewEv
FNDA:192858,_ZNK6draxul8CellText5emptyEv
FNDA:0,_ZNK6draxul8CellTexteqERKS0_
FNDA:193067,_ZNK6draxul8CellTexteqENSt3__117basic_string_viewIcNS1_11char_traitsIcEEEE
FNDA:194543,_ZNK6draxul4Grid4colsEv
FNDA:18,_ZNK6draxul4Grid4rowsEv
FNDA:18,_ZNK6draxul4Grid9sink_colsEv
FNDA:18,_ZNK6draxul4Grid9sink_rowsEv
FNDA:70,_ZN6draxul6detail25is_utf8_continuation_byteEh
FNDA:37,_ZN6draxul6detail28utf8_next_codepoint_two_byteEPKhmmRm
FNDA:37,_ZN6draxul6detail30utf8_next_codepoint_three_byteEPKhmmRm
FNDA:21,_ZN6draxul6detail29utf8_next_codepoint_four_byteEPKhmmRm
FNDA:133,_ZN6draxul6detail19utf8_next_codepointENSt3__117basic_string_viewIcNS1_11char_traitsIcEEEEmmRm
FNDA:7,_ZN6draxul6detail24utf8_valid_prefix_lengthENSt3__117basic_string_viewIcNS1_11char_traitsIcEEEEm
FNDA:1,terminal_host_base.cpp:_ZN6draxul4Grid19remap_highlight_idsIRZNS_16TerminalHostBase16compact_attr_idsEvE3$_1EEvOT_
FNF:19
FNH:17
DA:21,70
DA:22,70
DA:23,70
DA:26,37
DA:27,37
DA:28,0
DA:29,37
DA:30,37
DA:31,37
DA:32,0
DA:33,0
DA:34,37
DA:37,37
DA:38,37
DA:39,2
DA:41,35
DA:42,35
DA:43,35
DA:44,35
DA:45,35
DA:46,35
DA:47,35
DA:48,35
DA:49,19
DA:51,16
DA:52,16
DA:53,35
DA:56,21
DA:57,21
DA:58,2
DA:60,19
DA:61,19
DA:62,19
DA:63,19
DA:64,19
DA:65,19
DA:66,19
DA:67,0
DA:68,19
DA:69,0
DA:70,19
DA:71,0
DA:73,19
DA:74,19
DA:75,19
DA:78,133
DA:79,133
DA:80,0
DA:82,133
DA:83,133
DA:84,133
DA:86,133
DA:87,96
DA:88,96
DA:89,96
DA:90,96
DA:92,37
DA:93,0
DA:95,37
DA:96,16
DA:98,21
DA:99,19
DA:101,2
DA:102,21
DA:105,7
DA:106,7
DA:107,7
DA:108,7
DA:110,138
DA:111,133
DA:112,133
DA:113,133
DA:114,2
DA:115,131
DA:116,131
DA:117,131
DA:119,7
DA:120,7
DA:131,200369930
DA:134,0
DA:135,0
DA:136,0
DA:139,100457702
DA:141,100457702
DA:142,7
DA:143,100457702
DA:144,100457702
DA:145,100457702
DA:146,100457702
DA:147,100457702
DA:148,100457702
DA:149,100457702
DA:152,218208
DA:153,218208
DA:154,218208
DA:156,192858
DA:157,192858
DA:158,192858
DA:161,0
DA:162,0
DA:163,0
DA:167,193067
DA:168,193067
DA:169,193067
DA:193,194543
DA:194,194543
DA:195,194543
DA:197,18
DA:198,18
DA:199,18
DA:202,18
DA:203,18
DA:204,18
DA:206,18
DA:207,18
DA:208,18
DA:217,191
DA:218,191
DA:219,191
DA:241,1
DA:242,2
DA:243,1
DA:244,1
DA:245,1
DA:246,1
DA:247,1
DA:248,0
DA:249,0
DA:250,0
DA:251,1
BRDA:27,0,0,0
BRDA:27,0,1,37
BRDA:30,0,0,0
BRDA:30,0,1,37
BRDA:30,1,2,37
BRDA:30,1,3,0
BRDA:30,2,4,-
BRDA:30,2,5,-
BRDA:38,0,0,2
BRDA:38,0,1,35
BRDA:44,0,0,0
BRDA:44,0,1,35
BRDA:44,1,2,-
BRDA:44,1,3,-
BRDA:44,2,4,-
BRDA:44,2,5,-
BRDA:44,3,6,-
BRDA:44,3,7,-
BRDA:45,0,0,35
BRDA:45,0,1,0
BRDA:45,1,2,16
BRDA:45,1,3,19
BRDA:45,2,4,16
BRDA:45,2,5,0
BRDA:45,3,6,16
BRDA:45,3,7,0
BRDA:46,0,0,0
BRDA:46,0,1,19
BRDA:46,1,2,-
BRDA:46,1,3,-
BRDA:46,2,4,-
BRDA:46,2,5,-
BRDA:46,3,6,-
BRDA:46,3,7,-
BRDA:47,0,0,19
BRDA:47,0,1,0
BRDA:47,1,2,0
BRDA:47,1,3,19
BRDA:47,2,4,-
BRDA:47,2,5,-
BRDA:47,3,6,-
BRDA:47,3,7,-
BRDA:48,0,0,19
BRDA:48,0,1,16
BRDA:57,0,0,2
BRDA:57,0,1,19
BRDA:64,0,0,19
BRDA:64,0,1,0
BRDA:64,1,2,19
BRDA:64,1,3,0
BRDA:64,2,4,19
BRDA:64,2,5,0
BRDA:64,3,6,19
BRDA:64,3,7,0
BRDA:65,0,0,19
BRDA:65,0,1,0
BRDA:66,0,0,-
BRDA:66,0,1,-
BRDA:66,1,2,-
BRDA:66,1,3,-
BRDA:66,2,4,-
BRDA:66,2,5,-
BRDA:66,3,6,-
BRDA:66,3,7,-
BRDA:67,0,0,-
BRDA:67,0,1,-
BRDA:68,0,0,-
BRDA:68,0,1,-
BRDA:68,1,2,-
BRDA:68,1,3,-
BRDA:68,2,4,-
BRDA:68,2,5,-
BRDA:68,3,6,-
BRDA:68,3,7,-
BRDA:69,0,0,-
BRDA:69,0,1,-
BRDA:70,0,0,0
BRDA:70,0,1,19
BRDA:79,0,0,0
BRDA:79,0,1,133
BRDA:86,0,0,96
BRDA:86,0,1,37
BRDA:92,0,0,0
BRDA:92,0,1,37
BRDA:95,0,0,16
BRDA:95,0,1,21
BRDA:98,0,0,19
BRDA:98,0,1,2
BRDA:110,0,0,133
BRDA:110,0,1,5
BRDA:113,0,0,2
BRDA:113,0,1,131
BRDA:141,0,0,7
BRDA:141,0,1,100457695
BRDA:144,0,0,7
BRDA:144,0,1,100457695
BRDA:242,0,0,1
BRDA:242,0,1,1
BRDA:246,0,0,1
BRDA:246,0,1,0
BRF:100
BRH:43
LF:130
LH:113
end_of_record
SF:/Users/runner/work/Draxul/Draxul/libs/draxul-grid/src/grid.cpp
FN:134,_ZN6draxul4Grid6resizeEii
FN:154,_ZN6draxul4Grid5clearEv
FN:167,_ZN6draxul4Grid8set_cellEiiRKNSt3__112basic_stringIcNS1_11char_traitsIcEENS1_9allocatorIcEEEEtb
FN:220,_ZNK6draxul4Grid8get_cellEii
FN:227,_ZN6draxul4Grid6scrollEiiiiii
FN:291,_ZNK6draxul4Grid8is_dirtyEii
FN:298,_ZN6draxul4Grid10mark_dirtyEii
FN:307,_ZN6draxul4Grid14mark_all_dirtyEv
FN:317,_ZN6draxul4Grid11clear_dirtyEv
FN:327,_ZNK6draxul4Grid15get_dirty_cellsEv
FN:332,_ZN6draxul4Grid16mark_dirty_indexEi
FN:15,grid.cpp:_ZN6draxul12_GLOBAL__N_115make_blank_cellEv
FN:22,grid.cpp:_ZN6draxul12_GLOBAL__N_118clear_continuationERNS_4CellE
FN:45,grid.cpp:_ZN6draxul12_GLOBAL__N_111scroll_rowsERNSt3__16vectorINS_4CellENS1_9allocatorIS3_EEEENS0_11CellIndexerEiiiiiRKNS1_8functionIFviEEE
FN:92,grid.cpp:_ZN6draxul12_GLOBAL__N_111scroll_colsERNSt3__16vectorINS_4CellENS1_9allocatorIS3_EEEENS0_11CellIndexerEiiiiiRKNS1_8functionIFviEEE
FN:33,grid.cpp:_ZNK6draxul12_GLOBAL__N_111CellIndexerclEii
FN:255,grid.cpp:_ZZN6draxul4Grid6scrollEiiiiiiENK3$_0clEi
FNDA:389,_ZN6draxul4Grid6resizeEii
FNDA:400,_ZN6draxul4Grid5clearEv
FNDA:146369,_ZN6draxul4Grid8set_cellEiiRKNSt3__112basic_stringIcNS1_11char_traitsIcEENS1_9allocatorIcEEEEtb
FNDA:218915,_ZNK6draxul4Grid8get_cellEii
FNDA:76176,_ZN6draxul4Grid6scrollEiiiiii
FNDA:5,_ZNK6draxul4Grid8is_dirtyEii
FNDA:4,_ZN6draxul4Grid10mark_dirtyEii
FNDA:185,_ZN6draxul4Grid14mark_all_dirtyEv
FNDA:243,_ZN6draxul4Grid11clear_dirtyEv
FNDA:200,_ZNK6draxul4Grid15get_dirty_cellsEv
FNDA:100549494,_ZN6draxul4Grid16mark_dirty_indexEi
FNDA:100270162,grid.cpp:_ZN6draxul12_GLOBAL__N_115make_blank_cellEv
FNDA:3,grid.cpp:_ZN6draxul12_GLOBAL__N_118clear_continuationERNS_4CellE
FNDA:76163,grid.cpp:_ZN6draxul12_GLOBAL__N_111scroll_rowsERNSt3__16vectorINS_4CellENS1_9allocatorIS3_EEEENS0_11CellIndexerEiiiiiRKNS1_8functionIFviEEE
FNDA:9,grid.cpp:_ZN6draxul12_GLOBAL__N_111scroll_colsERNSt3__16vectorINS_4CellENS1_9allocatorIS3_EEEENS0_11CellIndexerEiiiiiRKNS1_8functionIFviEEE
FNDA:472501,grid.cpp:_ZNK6draxul12_GLOBAL__N_111CellIndexerclEii
FNDA:145660,grid.cpp:_ZZN6draxul4Grid6scrollEiiiiiiENK3$_0clEi
FNF:17
FNH:17
DA:15,100270162
DA:16,100270162
DA:17,100270162
DA:18,100270162
DA:19,100270162
DA:22,3
DA:23,3
DA:24,3
DA:25,3
DA:33,472501
DA:34,472501
DA:35,472501
DA:45,76163
DA:46,76163
DA:47,76158
DA:48,76598
DA:49,440
DA:50,35894
DA:51,35454
DA:52,35454
DA:53,35454
DA:54,35454
DA:55,440
DA:56,152327
DA:57,76169
DA:58,186270
DA:59,110101
DA:60,110101
DA:61,110101
DA:62,110101
DA:63,76169
DA:64,76158
DA:65,5
DA:66,5
DA:67,5
DA:68,16
DA:69,11
DA:70,51
DA:71,40
DA:72,40
DA:73,40
DA:74,40
DA:75,11
DA:76,12
DA:77,7
DA:78,33
DA:79,26
DA:80,26
DA:81,26
DA:82,26
DA:83,7
DA:84,5
DA:85,76163
DA:92,9
DA:93,9
DA:94,7
DA:95,14
DA:96,7
DA:97,28
DA:98,21
DA:99,21
DA:100,21
DA:101,21
DA:102,16
DA:103,9
DA:104,9
DA:105,9
DA:106,9
DA:107,7
DA:108,7
DA:109,2
DA:110,2
DA:111,2
DA:112,4
DA:113,2
DA:114,8
DA:115,6
DA:116,6
DA:117,6
DA:118,6
DA:119,5
DA:120,3
DA:121,3
DA:122,3
DA:123,3
DA:124,2
DA:125,2
DA:126,9
DA:134,389
DA:135,389
DA:136,389
DA:137,389
DA:138,2
DA:139,2
DA:140,2
DA:141,2
DA:142,2
DA:143,2
DA:144,2
DA:145,389
DA:146,389
DA:147,389
DA:148,389
DA:149,389
DA:150,389
DA:151,389
DA:154,400
DA:155,400
DA:156,400
DA:157,400
DA:158,400
DA:159,100160421
DA:160,100160021
DA:161,100160021
DA:162,100160021
DA:163,100160021
DA:164,400
DA:167,146369
DA:168,146369
DA:169,146369
DA:170,146369
DA:171,5
DA:173,146364
DA:174,146364
DA:175,0
DA:176,146364
DA:177,146364
DA:178,69600
DA:179,69600
DA:180,69600
DA:181,1
DA:182,1
DA:183,1
DA:184,1
DA:185,69600
DA:187,146364
DA:188,69683
DA:189,69683
DA:190,69683
DA:191,1
DA:192,1
DA:193,1
DA:194,1
DA:195,69683
DA:197,146364
DA:198,2
DA:199,146364
DA:200,146364
DA:201,146364
DA:202,146364
DA:203,146364
DA:204,146364
DA:205,146364
DA:207,146364
DA:208,19
DA:209,19
DA:210,19
DA:211,19
DA:212,19
DA:213,19
DA:214,19
DA:215,19
DA:216,19
DA:217,146364
DA:220,218915
DA:221,218915
DA:222,4
DA:223,218911
DA:224,218915
DA:227,76176
DA:228,76176
DA:229,76176
DA:230,76176
DA:231,0
DA:233,76176
DA:234,76176
DA:235,76176
DA:236,4
DA:237,4
DA:238,4
DA:239,4
DA:240,4
DA:241,4
DA:243,76172
DA:244,76172
DA:245,76172
DA:246,1
DA:247,1
DA:248,1
DA:249,1
DA:250,1
DA:251,76172
DA:252,76172
DA:254,76172
DA:255,145660
DA:257,76172
DA:258,76163
DA:259,76172
DA:260,9
DA:263,152808
DA:264,76636
DA:265,222296
DA:266,145660
DA:267,145660
DA:268,145660
DA:270,145660
DA:271,145660
DA:272,145660
DA:273,1
DA:274,1
DA:275,1
DA:276,1
DA:277,1
DA:279,145659
DA:280,145659
DA:281,145659
DA:282,2
DA:283,2
DA:284,2
DA:285,2
DA:286,145659
DA:287,76636
DA:288,76172
DA:291,5
DA:292,5
DA:293,4
DA:294,1
DA:295,5
DA:298,4
DA:299,4
DA:300,4
DA:301,4
DA:302,3
DA:303,1
DA:304,1
DA:307,185
DA:308,185
DA:309,185
DA:310,185
DA:311,185
DA:312,97609
DA:313,97424
DA:314,185
DA:317,243
DA:318,243
DA:319,243
DA:320,243
DA:321,100208
DA:322,243
DA:323,243
DA:324,243
DA:327,200
DA:328,200
DA:329,200
DA:332,100549494
DA:333,100549494
DA:334,100549494
DA:335,0
DA:337,100549494
DA:338,100549494
DA:340,100549494
DA:341,291767
DA:343,100257727
DA:344,100257727
DA:345,100257727
BRDA:46,0,0,76158
BRDA:46,0,1,5
BRDA:48,0,0,440
BRDA:48,0,1,76158
BRDA:50,0,0,35454
BRDA:50,0,1,440
BRDA:56,0,0,76169
BRDA:56,0,1,76158
BRDA:58,0,0,110101
BRDA:58,0,1,76169
BRDA:68,0,0,11
BRDA:68,0,1,5
BRDA:70,0,0,40
BRDA:70,0,1,11
BRDA:76,0,0,7
BRDA:76,0,1,5
BRDA:78,0,0,26
BRDA:78,0,1,7
BRDA:93,0,0,7
BRDA:93,0,1,2
BRDA:95,0,0,7
BRDA:95,0,1,7
BRDA:97,0,0,21
BRDA:97,0,1,7
BRDA:102,0,0,9
BRDA:102,0,1,7
BRDA:112,0,0,2
BRDA:112,0,1,2
BRDA:114,0,0,6
BRDA:114,0,1,2
BRDA:119,0,0,3
BRDA:119,0,1,2
BRDA:137,0,0,1
BRDA:137,0,1,388
BRDA:137,1,2,1
BRDA:137,1,3,387
BRDA:137,2,4,0
BRDA:137,2,5,387
BRDA:137,3,6,0
BRDA:137,3,7,387
BRDA:159,0,0,100160021
BRDA:159,0,1,400
BRDA:170,0,0,1
BRDA:170,0,1,146368
BRDA:170,1,2,2
BRDA:170,1,3,146366
BRDA:170,2,4,1
BRDA:170,2,5,146365
BRDA:170,3,6,1
BRDA:170,3,7,146364
BRDA:174,0,0,0
BRDA:174,0,1,146364
BRDA:177,0,0,69600
BRDA:177,0,1,76764
BRDA:180,0,0,1
BRDA:180,0,1,69599
BRDA:180,1,2,0
BRDA:180,1,3,69599
BRDA:187,0,0,69683
BRDA:187,0,1,76681
BRDA:190,0,0,1
BRDA:190,0,1,69682
BRDA:197,0,0,2
BRDA:197,0,1,146362
BRDA:207,0,0,21
BRDA:207,0,1,146343
BRDA:207,1,2,19
BRDA:207,1,3,2
BRDA:221,0,0,1
BRDA:221,0,1,218914
BRDA:221,1,2,2
BRDA:221,1,3,218912
BRDA:221,2,4,1
BRDA:221,2,5,218911
BRDA:221,3,6,0
BRDA:221,3,7,218911
BRDA:230,0,0,9
BRDA:230,0,1,76167
BRDA:230,1,2,0
BRDA:230,1,3,9
BRDA:233,0,0,76175
BRDA:233,0,1,1
BRDA:233,1,2,76174
BRDA:233,1,3,1
BRDA:233,2,4,76173
BRDA:233,2,5,1
BRDA:234,0,0,76173
BRDA:234,0,1,0
BRDA:234,1,2,76172
BRDA:234,1,3,1
BRDA:234,2,4,76172
BRDA:234,2,5,0
BRDA:235,0,0,4
BRDA:235,0,1,76172
BRDA:245,0,0,1
BRDA:245,0,1,76171
BRDA:245,1,2,0
BRDA:245,1,3,76171
BRDA:245,2,4,0
BRDA:245,2,5,76171
BRDA:245,3,6,0
BRDA:245,3,7,76171
BRDA:257,0,0,76163
BRDA:257,0,1,9
BRDA:259,0,0,9
BRDA:259,0,1,76163
BRDA:263,0,0,76636
BRDA:263,0,1,76172
BRDA:265,0,0,145660
BRDA:265,0,1,76636
BRDA:271,0,0,5
BRDA:271,0,1,145655
BRDA:272,0,0,0
BRDA:272,0,1,5
BRDA:272,1,2,1
BRDA:272,1,3,4
BRDA:280,0,0,6
BRDA:280,0,1,145653
BRDA:281,0,0,2
BRDA:281,0,1,4
BRDA:281,1,2,0
BRDA:281,1,3,4
BRDA:292,0,0,1
BRDA:292,0,1,4
BRDA:292,1,2,1
BRDA:292,1,3,3
BRDA:292,2,4,1
BRDA:292,2,5,2
BRDA:292,3,6,1
BRDA:292,3,7,1
BRDA:301,0,0,1
BRDA:301,0,1,3
BRDA:301,1,2,1
BRDA:301,1,3,2
BRDA:301,2,4,1
BRDA:301,2,5,1
BRDA:301,3,6,0
BRDA:301,3,7,1
BRDA:312,0,0,97424
BRDA:312,0,1,185
BRDA:320,0,0,100208
BRDA:320,0,1,243
BRDA:334,0,0,0
BRDA:334,0,1,100549494
BRDA:334,1,2,0
BRDA:334,1,3,100549494
BRDA:340,0,0,291767
BRDA:340,0,1,100257727
BRF:148
BRH:132
LF:266
LH:263
end_of_record
SF:/Users/runner/work/Draxul/Draxul/libs/draxul-gui/include/draxul/gui/tooltip.h
FN:33,_ZNK6draxul3gui13TooltipBitmap5validEv
FNDA:0,_ZNK6draxul3gui13TooltipBitmap5validEv
FNF:1
FNH:0
DA:33,0
DA:34,0
DA:35,0
DA:36,0
BRDA:34,0,0,-
BRDA:34,0,1,-
BRDA:34,1,2,-
BRDA:34,1,3,-
BRDA:35,0,0,-
BRDA:35,0,1,-
BRF:6
BRH:0
LF:4
LH:0
end_of_record
SF:/Users/runner/work/Draxul/Draxul/libs/draxul-gui/src/palette_renderer.cpp
FN:80,_ZN6draxul3gui14render_paletteERKNS0_16PaletteViewStateERNS_11TextServiceE
FN:35,palette_renderer.cpp:_ZN6draxul3gui12_GLOBAL__N_114compute_layoutERKNS0_16PaletteViewStateE
FN:107,palette_renderer.cpp:_ZZN6draxul3gui14render_paletteERKNS0_16PaletteViewStateERNS_11TextServiceEENK3$_0clEii
FN:58,palette_renderer.cpp:_ZN6draxul3gui12_GLOBAL__N_117is_match_positionERKNSt3__16vectorImNS2_9allocatorImEEEEm
FNDA:2,_ZN6draxul3gui14render_paletteERKNS0_16PaletteViewStateERNS_11TextServiceE
FNDA:2,palette_renderer.cpp:_ZN6draxul3gui12_GLOBAL__N_114compute_layoutERKNS0_16PaletteViewStateE
FNDA:1982,palette_renderer.cpp:_ZZN6draxul3gui14render_paletteERKNS0_16PaletteViewStateERNS_11TextServiceEENK3$_0clEii
FNDA:132,palette_renderer.cpp:_ZN6draxul3gui12_GLOBAL__N_117is_match_positionERKNSt3__16vectorImNS2_9allocatorImEEEEm
FNF:4
FNH:4
DA:35,2
DA:36,2
DA:37,2
DA:38,2
DA:39,2
DA:40,2
DA:42,2
DA:43,2
DA:46,2
DA:47,2
DA:48,1
DA:49,1
DA:50,0
DA:51,1
DA:52,1
DA:54,2
DA:55,2
DA:58,132
DA:59,132
DA:60,0
DA:61,0
DA:62,0
DA:63,0
DA:64,132
DA:65,132
DA:80,2
DA:81,2
DA:82,0
DA:84,2
DA:85,2
DA:91,2
DA:92,2
DA:95,2
DA:96,2
DA:99,2
DA:100,1200
DA:101,1200
DA:102,1200
DA:103,1200
DA:104,1200
DA:107,1982
DA:108,1982
DA:109,1982
DA:111,2
DA:112,2
DA:115,2
DA:116,2
DA:117,16
DA:118,14
DA:119,14
DA:120,14
DA:121,14
DA:122,14
DA:123,14
DA:127,574
DA:128,560
DA:129,560
DA:130,560
DA:131,560
DA:132,560
DA:135,14
DA:136,146
DA:137,132
DA:138,132
DA:139,132
DA:140,132
DA:141,132
DA:142,132
DA:143,132
DA:144,132
DA:147,14
DA:148,1
DA:149,1
DA:150,1
DA:151,1
DA:152,1
DA:153,7
DA:154,6
DA:155,6
DA:156,6
DA:157,6
DA:158,6
DA:159,6
DA:160,1
DA:161,1
DA:162,14
DA:165,2
DA:166,2
DA:167,2
DA:168,2
DA:169,82
DA:170,80
DA:171,80
DA:172,80
DA:173,80
DA:174,80
DA:175,2
DA:178,2
DA:179,2
DA:181,2
DA:182,2
DA:183,2
DA:186,2
DA:187,2
DA:188,2
DA:189,2
DA:190,0
DA:191,0
DA:192,0
DA:193,0
DA:194,0
DA:195,0
DA:198,2
DA:199,2
DA:200,2
DA:201,2
DA:202,2
DA:203,2
DA:204,2
DA:205,2
DA:208,2
DA:209,2
DA:210,32
DA:211,30
DA:212,1230
DA:213,1200
DA:214,1200
DA:215,1200
DA:216,1200
DA:217,1200
DA:218,1200
DA:219,1200
DA:220,1200
DA:221,1200
DA:222,1200
DA:223,1200
DA:224,1200
DA:225,30
DA:227,2
DA:228,2
BRDA:47,0,0,2
BRDA:47,0,1,0
BRDA:47,1,2,1
BRDA:47,1,3,1
BRDA:49,0,0,0
BRDA:49,0,1,1
BRDA:59,0,0,0
BRDA:59,0,1,132
BRDA:61,0,0,-
BRDA:61,0,1,-
BRDA:81,0,0,0
BRDA:81,0,1,2
BRDA:81,1,2,0
BRDA:81,1,3,2
BRDA:99,0,0,1200
BRDA:99,0,1,2
BRDA:117,0,0,14
BRDA:117,0,1,2
BRDA:123,0,0,2
BRDA:123,0,1,12
BRDA:127,0,0,560
BRDA:127,0,1,14
BRDA:136,0,0,132
BRDA:136,0,1,14
BRDA:141,0,0,0
BRDA:141,0,1,132
BRDA:147,0,0,1
BRDA:147,0,1,13
BRDA:151,0,0,1
BRDA:151,0,1,0
BRDA:153,0,0,6
BRDA:153,0,1,1
BRDA:169,0,0,80
BRDA:169,0,1,2
BRDA:189,0,0,0
BRDA:189,0,1,2
BRDA:199,0,0,2
BRDA:199,0,1,0
BRDA:210,0,0,30
BRDA:210,0,1,2
BRDA:212,0,0,1200
BRDA:212,0,1,30
BRF:42
BRH:31
LF:143
LH:131
end_of_record
SF:/Users/runner/work/Draxul/Draxul/libs/draxul-gui/src/tooltip.cpp
FN:105,_ZN6draxul3gui17rasterize_tooltipERNS_11TextServiceERKNS0_11TooltipDataE
FN:37,tooltip.cpp:_ZN6draxul3gui12_GLOBAL__N_114blit_text_lineERNS_11TextServiceERKNSt3__112basic_stringIcNS4_11char_traitsIcEENS4_9allocatorIcEEEEiiPhiihhh
FNDA:0,_ZN6draxul3gui17rasterize_tooltipERNS_11TextServiceERKNS0_11TooltipDataE
FNDA:0,tooltip.cpp:_ZN6draxul3gui12_GLOBAL__N_114blit_text_lineERNS_11TextServiceERKNSt3__112basic_stringIcNS4_11char_traitsIcEENS4_9allocatorIcEEEEiiPhiihhh
FNF:2
FNH:0
DA:37,0
DA:38,0
DA:39,0
DA:40,0
DA:42,0
DA:43,0
DA:44,0
DA:45,0
DA:46,0
DA:47,0
DA:48,0
DA:49,0
DA:50,0
DA:52,0
DA:53,0
DA:54,0
DA:55,0
DA:56,0
DA:57,0
DA:58,0
DA:59,0
DA:61,0
DA:62,0
DA:63,0
DA:64,0
DA:65,0
DA:66,0
DA:68,0
DA:69,0
DA:70,0
DA:71,0
DA:72,0
DA:73,0
DA:75,0
DA:76,0
DA:77,0
DA:78,0
DA:79,0
DA:80,0
DA:82,0
DA:83,0
DA:84,0
DA:86,0
DA:88,0
DA:89,0
DA:90,0
DA:91,0
DA:92,0
DA:93,0
DA:94,0
DA:95,0
DA:97,0
DA:98,0
DA:99,0
DA:105,0
DA:106,0
DA:107,0
DA:108,0
DA:109,0
DA:112,0
DA:113,0
DA:114,0
DA:115,0
DA:116,0
DA:117,0
DA:118,0
DA:120,0
DA:121,0
DA:122,0
DA:123,0
DA:124,0
DA:126,0
DA:127,0
DA:128,0
DA:129,0
DA:132,0
DA:133,0
DA:134,0
DA:135,0
DA:136,0
DA:137,0
DA:138,0
DA:139,0
DA:142,0
DA:143,0
DA:144,0
DA:145,0
DA:146,0
DA:149,0
DA:150,0
DA:151,0
DA:152,0
DA:153,0
DA:154,0
DA:155,0
DA:158,0
DA:159,0
DA:160,0
DA:161,0
DA:162,0
DA:163,0
DA:165,0
DA:166,0
BRDA:42,0,0,-
BRDA:42,0,1,-
BRDA:46,0,0,-
BRDA:46,0,1,-
BRDA:46,1,2,-
BRDA:46,1,3,-
BRDA:55,0,0,-
BRDA:55,0,1,-
BRDA:55,1,2,-
BRDA:55,1,3,-
BRDA:55,2,4,-
BRDA:55,2,5,-
BRDA:68,0,0,-
BRDA:68,0,1,-
BRDA:72,0,0,-
BRDA:72,0,1,-
BRDA:72,1,2,-
BRDA:72,1,3,-
BRDA:72,2,4,-
BRDA:72,2,5,-
BRDA:72,3,6,-
BRDA:72,3,7,-
BRDA:75,0,0,-
BRDA:75,0,1,-
BRDA:79,0,0,-
BRDA:79,0,1,-
BRDA:79,1,2,-
BRDA:79,1,3,-
BRDA:79,2,4,-
BRDA:79,2,5,-
BRDA:79,3,6,-
BRDA:79,3,7,-
BRDA:83,0,0,-
BRDA:83,0,1,-
BRDA:114,0,0,-
BRDA:114,0,1,-
BRDA:132,0,0,-
BRDA:132,0,1,-
BRDA:143,0,0,-
BRDA:143,0,1,-
BRF:40
BRH:0
LF:103
LH:0
end_of_record
SF:/Users/runner/work/Draxul/Draxul/libs/draxul-host/include/draxul/alt_screen_manager.h
FN:32,_ZNK6draxul16AltScreenManager13in_alt_screenEv
FN:79,terminal_host_base.cpp:_ZNK6draxul16AltScreenManager19for_each_saved_cellIZNS_16TerminalHostBase16compact_attr_idsEvE3$_0EEvOT_
FN:86,terminal_host_base.cpp:_ZN6draxul16AltScreenManager25remap_saved_highlight_idsIRZNS_16TerminalHostBase16compact_attr_idsEvE3$_1EEvOT_
FNDA:76293,_ZNK6draxul16AltScreenManager13in_alt_screenEv
FNDA:1,terminal_host_base.cpp:_ZNK6draxul16AltScreenManager19for_each_saved_cellIZNS_16TerminalHostBase16compact_attr_idsEvE3$_0EEvOT_
FNDA:1,terminal_host_base.cpp:_ZN6draxul16AltScreenManager25remap_saved_highlight_idsIRZNS_16TerminalHostBase16compact_attr_idsEvE3$_1EEvOT_
FNF:3
FNH:3
DA:32,76293
DA:33,76293
DA:34,76293
DA:79,1
DA:80,1
DA:81,0
DA:82,1
DA:86,1
DA:87,1
DA:88,0
DA:89,1
BRDA:80,0,0,0
BRDA:80,0,1,1
BRDA:87,0,0,0
BRDA:87,0,1,1
BRF:4
BRH:2
LF:11
LH:9
end_of_record
SF:/Users/runner/work/Draxul/Draxul/libs/draxul-host/include/draxul/clipboard_util.h
FN:18,_ZN6draxul24clipboard_params_to_textERKNSt3__16vectorINS_10MpackValueENS0_9allocatorIS2_EEEE
FN:37,_ZN6draxul26clipboard_text_to_responseERKNSt3__112basic_stringIcNS0_11char_traitsIcEENS0_9allocatorIcEEEE
FNDA:5,_ZN6draxul24clipboard_params_to_textERKNSt3__16vectorINS_10MpackValueENS0_9allocatorIS2_EEEE
FNDA:5,_ZN6draxul26clipboard_text_to_responseERKNSt3__112basic_stringIcNS0_11char_traitsIcEENS0_9allocatorIcEEEE
FNF:2
FNH:2
DA:18,5
DA:19,5
DA:20,2
DA:22,3
DA:23,3
DA:24,8
DA:25,5
DA:26,5
DA:27,2
DA:28,5
DA:29,5
DA:30,5
DA:31,3
DA:32,5
DA:37,5
DA:38,5
DA:39,5
DA:40,7
DA:41,7
DA:42,7
DA:43,7
DA:44,5
DA:45,5
DA:46,5
DA:47,5
DA:48,2
DA:49,2
DA:50,2
DA:51,5
DA:52,0
DA:54,5
DA:55,5
BRDA:19,0,0,1
BRDA:19,0,1,4
BRDA:19,1,2,1
BRDA:19,1,3,3
BRDA:24,0,0,5
BRDA:24,0,1,3
BRDA:26,0,0,2
BRDA:26,0,1,3
BRDA:28,0,0,5
BRDA:28,0,1,0
BRDA:40,0,0,7
BRDA:40,0,1,0
BRDA:43,0,0,5
BRDA:43,0,1,2
BRDA:51,0,0,0
BRDA:51,0,1,5
BRF:16
BRH:13
LF:32
LH:31
end_of_record
SF:/Users/runner/work/Draxul/Draxul/libs/draxul-host/include/draxul/grid_host_base.h
FN:70,_ZN6draxul12GridHostBase10highlightsEv
FN:104,_ZN6draxul12GridHostBase17set_content_readyEb
FN:66,_ZN6draxul12GridHostBase4gridEv
FN:74,_ZNK6draxul12GridHostBase10highlightsEv
FN:35,_ZNK6draxul12GridHostBase9grid_colsEv
FN:39,_ZNK6draxul12GridHostBase9grid_rowsEv
FN:54,_ZN6draxul12GridHostBase14launch_optionsEv
FN:58,_ZNK6draxul12GridHostBase14launch_optionsEv
FN:62,_ZNK6draxul12GridHostBase8viewportEv
FN:78,_ZN6draxul12GridHostBase13grid_pipelineEv
FN:82,_ZNK6draxul12GridHostBase9callbacksEv
FN:87,_ZNK6draxul12GridHostBase10cursor_colEv
FN:91,_ZNK6draxul12GridHostBase10cursor_rowEv
FNDA:146593,_ZN6draxul12GridHostBase10highlightsEv
FNDA:145,_ZN6draxul12GridHostBase17set_content_readyEb
FNDA:248187,_ZN6draxul12GridHostBase4gridEv
FNDA:1,_ZNK6draxul12GridHostBase10highlightsEv
FNDA:446164,_ZNK6draxul12GridHostBase9grid_colsEv
FNDA:77374,_ZNK6draxul12GridHostBase9grid_rowsEv
FNDA:16,_ZN6draxul12GridHostBase14launch_optionsEv
FNDA:0,_ZNK6draxul12GridHostBase14launch_optionsEv
FNDA:450,_ZNK6draxul12GridHostBase8viewportEv
FNDA:0,_ZN6draxul12GridHostBase13grid_pipelineEv
FNDA:623649,_ZNK6draxul12GridHostBase9callbacksEv
FNDA:21,_ZNK6draxul12GridHostBase10cursor_colEv
FNDA:24,_ZNK6draxul12GridHostBase10cursor_rowEv
FNF:13
FNH:11
DA:35,446164
DA:36,446164
DA:37,446164
DA:39,77374
DA:40,77374
DA:41,77374
DA:54,16
DA:55,16
DA:56,16
DA:58,0
DA:59,0
DA:60,0
DA:62,450
DA:63,450
DA:64,450
DA:66,248187
DA:67,248187
DA:68,248187
DA:70,146593
DA:71,146593
DA:72,146593
DA:74,1
DA:75,1
DA:76,1
DA:78,0
DA:79,0
DA:80,0
DA:82,623649
DA:83,623649
DA:84,623649
DA:85,623649
DA:87,21
DA:88,21
DA:89,21
DA:91,24
DA:92,24
DA:93,24
DA:104,145
DA:105,145
DA:106,145
BRDA:83,0,0,0
BRDA:83,0,1,623649
BRF:2
BRH:1
LF:40
LH:34
end_of_record
SF:/Users/runner/work/Draxul/Draxul/libs/draxul-host/include/draxul/host.h
FN:89,_ZN6draxul14IHostCallbacks21dispatch_to_nvim_hostENSt3__117basic_string_viewIcNS1_11char_traitsIcEEEE
FN:119,_ZN6draxul5IHost23on_font_metrics_changedEv
FN:123,_ZN6draxul5IHost18on_config_reloadedERKNS_16HostReloadConfigE
FN:128,_ZN6draxul5IHost4drawERNS_13IFrameContextE
FN:134,_ZN6draxul5IHost15on_focus_gainedEv
FN:138,_ZN6draxul5IHost13on_focus_lostEv
FN:143,_ZN6draxul5IHost6on_keyERKNS_8KeyEventE
FN:147,_ZN6draxul5IHost13on_text_inputERKNS_14TextInputEventE
FN:151,_ZN6draxul5IHost15on_text_editingERKNS_16TextEditingEventE
FN:155,_ZN6draxul5IHost15on_mouse_buttonERKNS_16MouseButtonEventE
FN:159,_ZN6draxul5IHost13on_mouse_moveERKNS_14MouseMoveEventE
FN:163,_ZN6draxul5IHost14on_mouse_wheelERKNS_15MouseWheelEventE
FN:173,_ZN6draxul5IHost17attach_imgui_hostERNS_10IImGuiHostE
FN:179,_ZN6draxul5IHost17set_scroll_offsetEf
FN:183,_ZN6draxul5IHost14set_imgui_fontERKNSt3__112basic_stringIcNS1_11char_traitsIcEENS1_9allocatorIcEEEEf
FN:110,_ZN6draxul5IHostD2Ev
FN:78,_ZN6draxul14IHostCallbacksD2Ev
FNDA:0,_ZN6draxul14IHostCallbacks21dispatch_to_nvim_hostENSt3__117basic_string_viewIcNS1_11char_traitsIcEEEE
FNDA:0,_ZN6draxul5IHost23on_font_metrics_changedEv
FNDA:0,_ZN6draxul5IHost18on_config_reloadedERKNS_16HostReloadConfigE
FNDA:2,_ZN6draxul5IHost4drawERNS_13IFrameContextE
FNDA:1,_ZN6draxul5IHost15on_focus_gainedEv
FNDA:2,_ZN6draxul5IHost13on_focus_lostEv
FNDA:0,_ZN6draxul5IHost6on_keyERKNS_8KeyEventE
FNDA:0,_ZN6draxul5IHost13on_text_inputERKNS_14TextInputEventE
FNDA:0,_ZN6draxul5IHost15on_text_editingERKNS_16TextEditingEventE
FNDA:0,_ZN6draxul5IHost15on_mouse_buttonERKNS_16MouseButtonEventE
FNDA:0,_ZN6draxul5IHost13on_mouse_moveERKNS_14MouseMoveEventE
FNDA:0,_ZN6draxul5IHost14on_mouse_wheelERKNS_15MouseWheelEventE
FNDA:7,_ZN6draxul5IHost17attach_imgui_hostERNS_10IImGuiHostE
FNDA:2,_ZN6draxul5IHost17set_scroll_offsetEf
FNDA:6,_ZN6draxul5IHost14set_imgui_fontERKNSt3__112basic_stringIcNS1_11char_traitsIcEENS1_9allocatorIcEEEEf
FNDA:214,_ZN6draxul5IHostD2Ev
FNDA:190,_ZN6draxul14IHostCallbacksD2Ev
FNF:17
FNH:8
DA:78,190
DA:89,0
DA:90,0
DA:91,0
DA:110,214
DA:119,0
DA:121,0
DA:123,0
DA:125,0
DA:128,2
DA:130,2
DA:134,1
DA:136,1
DA:138,2
DA:140,2
DA:143,0
DA:145,0
DA:147,0
DA:149,0
DA:151,0
DA:153,0
DA:155,0
DA:157,0
DA:159,0
DA:161,0
DA:163,0
DA:165,0
DA:173,7
DA:174,7
DA:179,2
DA:181,2
DA:183,6
DA:185,6
BRF:0
BRH:0
LF:33
LH:14
end_of_record
SF:/Users/runner/work/Draxul/Draxul/libs/draxul-host/include/draxul/mouse_reporter.h
FN:37,_ZNK6draxul13MouseReporter4modeEv
FNDA:12,_ZNK6draxul13MouseReporter4modeEv
FNF:1
FNH:1
DA:37,12
DA:38,12
DA:39,12
BRF:0
BRH:0
LF:3
LH:3
end_of_record
SF:/Users/runner/work/Draxul/Draxul/libs/draxul-host/include/draxul/scrollback_buffer.h
FN:60,_ZNK6draxul16ScrollbackBuffer4colsEv
FN:54,_ZNK6draxul16ScrollbackBuffer4sizeEv
FN:93,scrollback_ring_wrap_tests.cpp:_ZNK6draxul16ScrollbackBuffer13for_each_cellIZL22CATCH2_INTERNAL_TEST_4vE3$_0EEvOT_
FN:66,_ZNK6draxul16ScrollbackBuffer6offsetEv
FN:71,_ZNK6draxul16ScrollbackBuffer16is_scrolled_backEv
FN:93,local_terminal_host.cpp:_ZNK6draxul16ScrollbackBuffer13for_each_cellIZNS_17LocalTerminalHost22collect_extra_attr_idsERNSt3__113unordered_mapItNS_6HlAttrENS3_4hashItEENS3_8equal_toItEENS3_9allocatorINS3_4pairIKtS5_EEEEEEE3$_0EEvOT_
FN:106,_ZN6draxul16ScrollbackBuffer19remap_highlight_idsIRKNSt3__18functionIFttEEEEEvOT_
FNDA:45283,_ZNK6draxul16ScrollbackBuffer4colsEv
FNDA:16,_ZNK6draxul16ScrollbackBuffer4sizeEv
FNDA:1,scrollback_ring_wrap_tests.cpp:_ZNK6draxul16ScrollbackBuffer13for_each_cellIZL22CATCH2_INTERNAL_TEST_4vE3$_0EEvOT_
FNDA:4,_ZNK6draxul16ScrollbackBuffer6offsetEv
FNDA:4,_ZNK6draxul16ScrollbackBuffer16is_scrolled_backEv
FNDA:0,local_terminal_host.cpp:_ZNK6draxul16ScrollbackBuffer13for_each_cellIZNS_17LocalTerminalHost22collect_extra_attr_idsERNSt3__113unordered_mapItNS_6HlAttrENS3_4hashItEENS3_8equal_toItEENS3_9allocatorINS3_4pairIKtS5_EEEEEEE3$_0EEvOT_
FNDA:0,_ZN6draxul16ScrollbackBuffer19remap_highlight_idsIRKNSt3__18functionIFttEEEEEvOT_
FNF:6
FNH:5
DA:54,16
DA:55,16
DA:56,16
DA:60,45283
DA:61,45283
DA:62,45283
DA:66,4
DA:67,4
DA:68,4
DA:71,4
DA:72,4
DA:73,4
DA:93,1
DA:94,2001
DA:95,2000
DA:96,2000
DA:97,2000
DA:98,20000
DA:99,2000
DA:100,1
DA:106,0
DA:107,0
DA:108,0
DA:109,0
DA:110,0
DA:111,0
BRDA:94,0,0,2000
BRDA:94,0,1,1
BRDA:94,1,2,-
BRDA:94,1,3,-
BRDA:97,0,0,20000
BRDA:97,0,1,2000
BRDA:97,1,2,-
BRDA:97,1,3,-
BRDA:107,0,0,-
BRDA:107,0,1,-
BRDA:109,0,0,-
BRDA:109,0,1,-
BRF:8
BRH:4
LF:26
LH:20
end_of_record
SF:/Users/runner/work/Draxul/Draxul/libs/draxul-host/include/draxul/selection_manager.h
FN:41,_ZNK6draxul16SelectionManager9is_activeEv
FNDA:6,_ZNK6draxul16SelectionManager9is_activeEv
FNF:1
FNH:1
DA:41,6
DA:42,6
DA:43,6
BRF:0
BRH:0
LF:3
LH:3
end_of_record
SF:/Users/runner/work/Draxul/Draxul/libs/draxul-host/include/draxul/terminal_host_base.h
FN:38,_ZN6draxul16TerminalHostBase8shutdownEv
FN:34,_ZNK6draxul16TerminalHostBase10is_runningEv
FN:30,_ZNK6draxul16TerminalHostBase10init_errorEv
FN:42,_ZN6draxul16TerminalHostBase13request_closeEv
FN:64,_ZN6draxul16TerminalHostBase24do_process_request_closeEv
FN:93,_ZN6draxul16TerminalHostBase20on_line_scrolled_offEi
FN:101,_ZN6draxul16TerminalHostBase21on_mouse_mode_changedEib
FN:81,_ZNK6draxul16TerminalHostBase15attr_cache_sizeEv
FN:73,_ZN6draxul16TerminalHostBase14set_init_errorENSt3__112basic_stringIcNS1_11char_traitsIcEENS1_9allocatorIcEEEE
FN:77,_ZNK6draxul16TerminalHostBase8vt_stateEv
FN:85,_ZNK6draxul16TerminalHostBase10attr_cacheEv
FNDA:0,_ZN6draxul16TerminalHostBase8shutdownEv
FNDA:3,_ZNK6draxul16TerminalHostBase10is_runningEv
FNDA:0,_ZNK6draxul16TerminalHostBase10init_errorEv
FNDA:0,_ZN6draxul16TerminalHostBase13request_closeEv
FNDA:0,_ZN6draxul16TerminalHostBase24do_process_request_closeEv
FNDA:76132,_ZN6draxul16TerminalHostBase20on_line_scrolled_offEi
FNDA:0,_ZN6draxul16TerminalHostBase21on_mouse_mode_changedEib
FNDA:1,_ZNK6draxul16TerminalHostBase15attr_cache_sizeEv
FNDA:0,_ZN6draxul16TerminalHostBase14set_init_errorENSt3__112basic_stringIcNS1_11char_traitsIcEENS1_9allocatorIcEEEE
FNDA:12,_ZNK6draxul16TerminalHostBase8vt_stateEv
FNDA:0,_ZNK6draxul16TerminalHostBase10attr_cacheEv
FNF:11
FNH:4
DA:30,0
DA:31,0
DA:32,0
DA:34,3
DA:35,3
DA:36,3
DA:38,0
DA:39,0
DA:40,0
DA:42,0
DA:43,0
DA:44,0
DA:64,0
DA:65,0
DA:66,0
DA:73,0
DA:74,0
DA:75,0
DA:77,12
DA:78,12
DA:79,12
DA:81,1
DA:82,1
DA:83,1
DA:85,0
DA:86,0
DA:87,0
DA:93,76132
DA:95,76132
DA:101,0
DA:103,0
BRF:0
BRH:0
LF:31
LH:11
end_of_record
SF:/Users/runner/work/Draxul/Draxul/libs/draxul-host/src/alt_screen_manager.cpp
FN:11,_ZN6draxul16AltScreenManagerC2ENS0_13GridAccessorsE
FN:17,_ZN6draxul16AltScreenManager5enterEiiRiS1_Rb
FN:43,_ZN6draxul16AltScreenManager5leaveERiS1_RbS1_S1_
FN:76,_ZN6draxul16AltScreenManager15resize_snapshotEiiii
FN:104,_ZN6draxul16AltScreenManager18clamp_saved_cursorEii
FN:111,_ZN6draxul16AltScreenManager5resetEv
FNDA:145,_ZN6draxul16AltScreenManagerC2ENS0_13GridAccessorsE
FNDA:7,_ZN6draxul16AltScreenManager5enterEiiRiS1_Rb
FNDA:4,_ZN6draxul16AltScreenManager5leaveERiS1_RbS1_S1_
FNDA:0,_ZN6draxul16AltScreenManager15resize_snapshotEiiii
FNDA:0,_ZN6draxul16AltScreenManager18clamp_saved_cursorEii
FNDA:145,_ZN6draxul16AltScreenManager5resetEv
FNF:6
FNH:4
DA:11,145
DA:12,145
DA:13,145
DA:17,7
DA:18,7
DA:19,7
DA:20,1
DA:22,6
DA:23,6
DA:25,6
DA:26,6
DA:27,6
DA:28,6
DA:29,6
DA:30,31
DA:31,324
DA:32,299
DA:34,6
DA:35,6
DA:36,6
DA:37,6
DA:38,6
DA:39,6
DA:43,4
DA:44,4
DA:45,4
DA:46,0
DA:48,4
DA:50,4
DA:51,4
DA:53,4
DA:54,4
DA:55,4
DA:57,16
DA:58,12
DA:59,96
DA:60,84
DA:61,84
DA:62,84
DA:63,84
DA:64,84
DA:65,12
DA:67,4
DA:68,4
DA:69,4
DA:70,4
DA:71,4
DA:72,4
DA:73,4
DA:76,0
DA:77,0
DA:78,0
DA:79,0
DA:81,0
DA:82,0
DA:83,0
DA:84,0
DA:85,0
DA:86,0
DA:87,0
DA:88,0
DA:89,0
DA:90,0
DA:91,0
DA:92,0
DA:93,0
DA:94,0
DA:95,0
DA:96,0
DA:97,0
DA:98,0
DA:99,0
DA:100,0
DA:101,0
DA:104,0
DA:105,0
DA:106,0
DA:107,0
DA:108,0
DA:111,145
DA:112,145
DA:113,145
DA:114,145
DA:115,145
DA:116,145
DA:117,145
BRDA:19,0,0,1
BRDA:19,0,1,6
BRDA:30,0,0,25
BRDA:30,0,1,6
BRDA:31,0,0,299
BRDA:31,0,1,25
BRDA:45,0,0,0
BRDA:45,0,1,4
BRDA:57,0,0,12
BRDA:57,0,1,4
BRDA:59,0,0,84
BRDA:59,0,1,12
BRDA:62,0,0,84
BRDA:62,0,1,0
BRDA:78,0,0,-
BRDA:78,0,1,-
BRDA:78,1,2,-
BRDA:78,1,3,-
BRDA:83,0,0,-
BRDA:83,0,1,-
BRDA:85,0,0,-
BRDA:85,0,1,-
BRDA:88,0,0,-
BRDA:88,0,1,-
BRDA:88,1,2,-
BRDA:88,1,3,-
BRDA:91,0,0,-
BRDA:91,0,1,-
BRF:28
BRH:12
LF:86
LH:55
end_of_record
SF:/Users/runner/work/Draxul/Draxul/libs/draxul-host/src/grid_host_base.cpp
FN:15,_ZN6draxul12GridHostBase10initializeERKNS_11HostContextERNS_14IHostCallbacksE
FN:43,_ZN6draxul12GridHostBase12set_viewportERKNS_12HostViewportE
FN:55,_ZN6draxul12GridHostBase17set_scroll_offsetEf
FN:61,_ZN6draxul12GridHostBase4drawERNS_13IFrameContextE
FN:67,_ZN6draxul12GridHostBase15on_focus_gainedEv
FN:73,_ZN6draxul12GridHostBase13on_focus_lostEv
FN:79,_ZN6draxul12GridHostBase23on_font_metrics_changedEv
FN:90,_ZN6draxul12GridHostBase18on_config_reloadedERKNS_16HostReloadConfigE
FN:97,_ZNK6draxul12GridHostBase13next_deadlineEv
FN:102,_ZNK6draxul12GridHostBase18default_backgroundEv
FN:107,_ZNK6draxul12GridHostBase13runtime_stateEv
FN:115,_ZNK6draxul12GridHostBase11debug_stateEv
FN:125,_ZNK6draxul12GridHostBase6windowEv
FN:131,_ZNK6draxul12GridHostBase8rendererEv
FN:137,_ZNK6draxul12GridHostBase12text_serviceEv
FN:143,_ZN6draxul12GridHostBase15apply_grid_sizeEii
FN:160,_ZN6draxul12GridHostBase17force_full_redrawEv
FN:169,_ZN6draxul12GridHostBase10flush_gridEv
FN:190,_ZN6draxul12GridHostBase17set_overlay_cellsENSt3__14spanIKNS_10CellUpdateELm18446744073709551615EEE
FN:196,_ZN6draxul12GridHostBase13mark_activityEv
FN:201,_ZN6draxul12GridHostBase20advance_cursor_blinkENSt3__16chrono10time_pointINS2_12steady_clockENS2_8durationIxNS1_5ratioILl1ELl1000000000EEEEEEE
FN:210,_ZN6draxul12GridHostBase19set_cursor_positionEii
FN:221,_ZN6draxul12GridHostBase16set_cursor_styleERKNS_11CursorStyleERKNS_11BlinkTimingEb
FN:232,_ZN6draxul12GridHostBase15set_cursor_busyEb
FN:241,_ZNK6draxul12GridHostBase22dependencies_availableENSt3__117basic_string_viewIcNS1_11char_traitsIcEEEE
FN:254,_ZN6draxul12GridHostBase23apply_cursor_visibilityEv
FN:266,_ZN6draxul12GridHostBase20restart_cursor_blinkENSt3__16chrono10time_pointINS2_12steady_clockENS2_8durationIxNS1_5ratioILl1ELl1000000000EEEEEEE
FN:273,_ZNK6draxul12GridHostBase22update_text_input_areaEv
FN:284,_ZN6draxul12GridHostBase24refresh_renderer_metricsEv
FNDA:150,_ZN6draxul12GridHostBase10initializeERKNS_11HostContextERNS_14IHostCallbacksE
FNDA:2,_ZN6draxul12GridHostBase12set_viewportERKNS_12HostViewportE
FNDA:0,_ZN6draxul12GridHostBase17set_scroll_offsetEf
FNDA:0,_ZN6draxul12GridHostBase4drawERNS_13IFrameContextE
FNDA:0,_ZN6draxul12GridHostBase15on_focus_gainedEv
FNDA:0,_ZN6draxul12GridHostBase13on_focus_lostEv
FNDA:1,_ZN6draxul12GridHostBase23on_font_metrics_changedEv
FNDA:0,_ZN6draxul12GridHostBase18on_config_reloadedERKNS_16HostReloadConfigE
FNDA:0,_ZNK6draxul12GridHostBase13next_deadlineEv
FNDA:0,_ZNK6draxul12GridHostBase18default_backgroundEv
FNDA:0,_ZNK6draxul12GridHostBase13runtime_stateEv
FNDA:0,_ZNK6draxul12GridHostBase11debug_stateEv
FNDA:7,_ZNK6draxul12GridHostBase6windowEv
FNDA:100,_ZNK6draxul12GridHostBase8rendererEv
FNDA:0,_ZNK6draxul12GridHostBase12text_serviceEv
FNDA:296,_ZN6draxul12GridHostBase15apply_grid_sizeEii
FNDA:171,_ZN6draxul12GridHostBase17force_full_redrawEv
FNDA:171,_ZN6draxul12GridHostBase10flush_gridEv
FNDA:74,_ZN6draxul12GridHostBase17set_overlay_cellsENSt3__14spanIKNS_10CellUpdateELm18446744073709551615EEE
FNDA:76758,_ZN6draxul12GridHostBase13mark_activityEv
FNDA:0,_ZN6draxul12GridHostBase20advance_cursor_blinkENSt3__16chrono10time_pointINS2_12steady_clockENS2_8durationIxNS1_5ratioILl1ELl1000000000EEEEEEE
FNDA:311271,_ZN6draxul12GridHostBase19set_cursor_positionEii
FNDA:148,_ZN6draxul12GridHostBase16set_cursor_styleERKNS_11CursorStyleERKNS_11BlinkTimingEb
FNDA:0,_ZN6draxul12GridHostBase15set_cursor_busyEb
FNDA:935474,_ZNK6draxul12GridHostBase22dependencies_availableENSt3__117basic_string_viewIcNS1_11char_traitsIcEEEE
FNDA:311590,_ZN6draxul12GridHostBase23apply_cursor_visibilityEv
FNDA:311419,_ZN6draxul12GridHostBase20restart_cursor_blinkENSt3__16chrono10time_pointINS2_12steady_clockENS2_8durationIxNS1_5ratioILl1ELl1000000000EEEEEEE
FNDA:311567,_ZNK6draxul12GridHostBase22update_text_input_areaEv
FNDA:150,_ZN6draxul12GridHostBase24refresh_renderer_metricsEv
FNF:29
FNH:17
DA:15,150
DA:16,150
DA:17,150
DA:18,150
DA:19,150
DA:20,150
DA:21,150
DA:22,150
DA:23,150
DA:24,150
DA:27,150
DA:30,150
DA:31,150
DA:33,150
DA:34,150
DA:35,150
DA:36,150
DA:37,150
DA:38,150
DA:39,150
DA:40,150
DA:43,2
DA:44,2
DA:45,2
DA:46,2
DA:47,1
DA:48,1
DA:49,1
DA:50,1
DA:51,1
DA:52,1
DA:55,0
DA:56,0
DA:57,0
DA:58,0
DA:61,0
DA:62,0
DA:63,0
DA:64,0
DA:67,0
DA:68,0
DA:69,0
DA:70,0
DA:73,0
DA:74,0
DA:75,0
DA:76,0
DA:79,1
DA:80,1
DA:81,1
DA:82,1
DA:83,0
DA:84,0
DA:85,0
DA:86,0
DA:87,0
DA:90,0
DA:91,0
DA:92,0
DA:93,0
DA:94,0
DA:97,0
DA:98,0
DA:99,0
DA:102,0
DA:103,0
DA:104,0
DA:107,0
DA:108,0
DA:109,0
DA:110,0
DA:111,0
DA:112,0
DA:115,0
DA:116,0
DA:117,0
DA:118,0
DA:119,0
DA:120,0
DA:121,0
DA:122,0
DA:125,7
DA:126,7
DA:127,7
DA:128,7
DA:131,100
DA:132,100
DA:133,100
DA:134,100
DA:137,0
DA:138,0
DA:139,0
DA:140,0
DA:143,296
DA:144,296
DA:145,296
DA:146,1
DA:147,295
DA:148,295
DA:149,295
DA:150,295
DA:151,295
DA:152,295
DA:153,295
DA:154,295
DA:155,295
DA:156,295
DA:157,295
DA:160,171
DA:161,171
DA:162,171
DA:163,0
DA:164,171
DA:165,171
DA:166,171
DA:169,171
DA:170,171
DA:171,171
DA:172,0
DA:173,171
DA:174,171
DA:175,171
DA:176,171
DA:177,171
DA:178,171
DA:179,171
DA:180,171
DA:181,146
DA:182,146
DA:183,146
DA:184,146
DA:185,171
DA:186,171
DA:187,171
DA:190,74
DA:191,74
DA:192,74
DA:193,74
DA:196,76758
DA:197,76758
DA:198,76758
DA:201,0
DA:202,0
DA:203,0
DA:204,0
DA:205,0
DA:206,0
DA:207,0
DA:210,311271
DA:211,311271
DA:212,311271
DA:213,0
DA:214,311271
DA:215,311271
DA:216,311271
DA:217,311271
DA:218,311271
DA:221,148
DA:222,148
DA:223,148
DA:224,0
DA:225,148
DA:226,148
DA:227,148
DA:228,148
DA:229,148
DA:232,0
DA:233,0
DA:234,0
DA:235,0
DA:236,0
DA:237,0
DA:238,0
DA:241,935474
DA:242,935474
DA:243,0
DA:244,935474
DA:245,935471
DA:247,3
DA:248,3
DA:249,3
DA:250,3
DA:251,935474
DA:254,311590
DA:255,311590
DA:256,311590
DA:257,0
DA:258,311590
DA:259,311590
DA:260,311590
DA:261,311590
DA:262,311590
DA:263,311590
DA:266,311419
DA:267,311419
DA:268,311419
DA:269,311419
DA:270,311419
DA:273,311567
DA:274,311567
DA:275,311567
DA:276,0
DA:277,311567
DA:278,311567
DA:279,311567
DA:280,311567
DA:281,311567
DA:284,150
DA:285,150
DA:286,150
DA:287,0
DA:288,150
DA:289,150
DA:290,150
DA:291,150
BRDA:46,0,0,1
BRDA:46,0,1,1
BRDA:48,0,0,1
BRDA:48,0,1,0
BRDA:56,0,0,-
BRDA:56,0,1,-
BRDA:62,0,0,-
BRDA:62,0,1,-
BRDA:68,0,0,-
BRDA:68,0,1,-
BRDA:74,0,0,-
BRDA:74,0,1,-
BRDA:81,0,0,1
BRDA:81,0,1,0
BRDA:92,0,0,-
BRDA:92,0,1,-
BRDA:126,0,0,0
BRDA:126,0,1,7
BRDA:132,0,0,0
BRDA:132,0,1,100
BRDA:138,0,0,-
BRDA:138,0,1,-
BRDA:145,0,0,1
BRDA:145,0,1,295
BRDA:152,0,0,295
BRDA:152,0,1,0
BRDA:162,0,0,0
BRDA:162,0,1,171
BRDA:171,0,0,0
BRDA:171,0,1,171
BRDA:178,0,0,171
BRDA:178,0,1,0
BRDA:180,0,0,146
BRDA:180,0,1,25
BRDA:191,0,0,74
BRDA:191,0,1,0
BRDA:203,0,0,-
BRDA:203,0,1,-
BRDA:212,0,0,0
BRDA:212,0,1,311271
BRDA:223,0,0,0
BRDA:223,0,1,148
BRDA:234,0,0,-
BRDA:234,0,1,-
BRDA:242,0,0,0
BRDA:242,0,1,935474
BRDA:242,1,2,0
BRDA:242,1,3,935474
BRDA:242,2,4,0
BRDA:242,2,5,935474
BRDA:242,3,6,0
BRDA:242,3,7,935474
BRDA:244,0,0,935450
BRDA:244,0,1,24
BRDA:244,1,2,21
BRDA:244,1,3,3
BRDA:256,0,0,0
BRDA:256,0,1,311590
BRDA:258,0,0,311578
BRDA:258,0,1,12
BRDA:259,0,0,311578
BRDA:259,0,1,12
BRDA:260,0,0,311590
BRDA:260,0,1,0
BRDA:275,0,0,0
BRDA:275,0,1,311567
BRDA:286,0,0,0
BRDA:286,0,1,150
BRF:68
BRH:33
LF:215
LH:143
end_of_record
SF:/Users/runner/work/Draxul/Draxul/libs/draxul-host/src/host_factory.cpp
FN:19,_ZN6draxul11create_hostENS_8HostKindE
FNDA:4,_ZN6draxul11create_hostENS_8HostKindE
FNF:1
FNH:1
DA:19,4
DA:20,4
DA:21,4
DA:22,4
DA:23,4
DA:24,4
DA:25,0
DA:29,0
DA:30,0
DA:31,0
DA:32,0
DA:33,0
DA:34,0
DA:38,0
DA:39,0
DA:40,0
DA:41,0
DA:42,4
DA:43,0
DA:44,4
BRDA:21,0,0,0
BRDA:21,0,1,4
BRDA:23,0,0,4
BRDA:23,0,1,0
BRDA:25,0,0,0
BRDA:25,0,1,4
BRDA:31,0,0,0
BRDA:31,0,1,4
BRDA:32,0,0,0
BRDA:32,0,1,4
BRDA:34,0,0,0
BRDA:34,0,1,4
BRDA:40,0,0,0
BRDA:40,0,1,4
BRF:14
BRH:7
LF:20
LH:8
end_of_record
SF:/Users/runner/work/Draxul/Draxul/libs/draxul-host/src/local_terminal_host.cpp
FN:73,_ZN6draxul17LocalTerminalHostC2Ev
FN:107,_ZN6draxul17LocalTerminalHost4pumpEv
FN:134,_ZN6draxul17LocalTerminalHost6on_keyERKNS_8KeyEventE
FN:142,_ZN6draxul17LocalTerminalHost13on_text_inputERKNS_14TextInputEventE
FN:150,_ZN6draxul17LocalTerminalHost15dispatch_actionENSt3__117basic_string_viewIcNS1_11char_traitsIcEEEE
FN:172,_ZN6draxul17LocalTerminalHost15on_mouse_buttonERKNS_16MouseButtonEventE
FN:189,_ZN6draxul17LocalTerminalHost13on_mouse_moveERKNS_14MouseMoveEventE
FN:200,_ZN6draxul17LocalTerminalHost14on_mouse_wheelERKNS_15MouseWheelEventE
FN:219,_ZN6draxul17LocalTerminalHost19on_viewport_changedEv
FN:244,_ZN6draxul17LocalTerminalHost20reset_terminal_stateEv
FN:257,_ZN6draxul17LocalTerminalHost20on_line_scrolled_offEi
FN:274,_ZN6draxul17LocalTerminalHost21on_mouse_mode_changedEib
FN:284,_ZNK6draxul17LocalTerminalHost13pixel_to_cellEii
FN:304,_ZN6draxul17LocalTerminalHost22collect_extra_attr_idsERNSt3__113unordered_mapItNS_6HlAttrENS1_4hashItEENS1_8equal_toItEENS1_9allocatorINS1_4pairIKtS3_EEEEEE
FN:313,_ZN6draxul17LocalTerminalHost25remap_extra_highlight_idsERKNSt3__18functionIFttEEE
FN:86,local_terminal_host.cpp:_ZZN6draxul17LocalTerminalHostC1EvENK3$_1clEv
FN:88,local_terminal_host.cpp:_ZZZN6draxul17LocalTerminalHostC1EvENK3$_1clEvENKUlNSt3__16vectorINS_10CellUpdateENS2_9allocatorIS4_EEEEE_clES7_
FN:91,local_terminal_host.cpp:_ZZZN6draxul17LocalTerminalHostC1EvENK3$_1clEvENKUliiE_clEii
FN:94,local_terminal_host.cpp:_ZZZN6draxul17LocalTerminalHostC1EvENK3$_1clEvENKUlvE_clEv
FN:95,local_terminal_host.cpp:_ZZZN6draxul17LocalTerminalHostC1EvENK3$_1clEvENKUlvE0_clEv
FN:96,local_terminal_host.cpp:_ZZZN6draxul17LocalTerminalHostC1EvENK3$_1clEvENKUlvE1_clEv
FN:74,local_terminal_host.cpp:_ZZN6draxul17LocalTerminalHostC1EvENK3$_2clEv
FN:76,local_terminal_host.cpp:_ZZZN6draxul17LocalTerminalHostC1EvENK3$_2clEvENKUlvE_clEv
FN:77,local_terminal_host.cpp:_ZZZN6draxul17LocalTerminalHostC1EvENK3$_2clEvENKUlvE0_clEv
FN:78,local_terminal_host.cpp:_ZZZN6draxul17LocalTerminalHostC1EvENK3$_2clEvENKUliiE_clEii
FN:79,local_terminal_host.cpp:_ZZZN6draxul17LocalTerminalHostC1EvENK3$_2clEvENKUliiRKNS_4CellEE_clEiiS4_
FN:82,local_terminal_host.cpp:_ZZZN6draxul17LocalTerminalHostC1EvENK3$_2clEvENKUlvE1_clEv
FN:83,local_terminal_host.cpp:_ZZZN6draxul17LocalTerminalHostC1EvENK3$_2clEvENKUlvE2_clEv
FN:27,local_terminal_host.cpp:_ZN6draxul12_GLOBAL__N_121capture_grid_snapshotERKNS_4GridEii
FN:42,local_terminal_host.cpp:_ZN6draxul12_GLOBAL__N_121restore_grid_snapshotERNS_4GridEiiRKNS0_12GridSnapshotE
FN:21,local_terminal_host.cpp:_ZNK6draxul12_GLOBAL__N_112GridSnapshot5emptyEv
FN:73,local_terminal_host.cpp:_ZZN6draxul17LocalTerminalHostC1EvENK3$_0clENSt3__117basic_string_viewIcNS2_11char_traitsIcEEEE
FN:305,local_terminal_host.cpp:_ZZN6draxul17LocalTerminalHost22collect_extra_attr_idsERNSt3__113unordered_mapItNS_6HlAttrENS1_4hashItEENS1_8equal_toItEENS1_9allocatorINS1_4pairIKtS3_EEEEEEENK3$_0clERKNS_4CellE
FNDA:24,_ZN6draxul17LocalTerminalHostC2Ev
FNDA:0,_ZN6draxul17LocalTerminalHost4pumpEv
FNDA:0,_ZN6draxul17LocalTerminalHost6on_keyERKNS_8KeyEventE
FNDA:0,_ZN6draxul17LocalTerminalHost13on_text_inputERKNS_14TextInputEventE
FNDA:6,_ZN6draxul17LocalTerminalHost15dispatch_actionENSt3__117basic_string_viewIcNS1_11char_traitsIcEEEE
FNDA:29,_ZN6draxul17LocalTerminalHost15on_mouse_buttonERKNS_16MouseButtonEventE
FNDA:16,_ZN6draxul17LocalTerminalHost13on_mouse_moveERKNS_14MouseMoveEventE
FNDA:1,_ZN6draxul17LocalTerminalHost14on_mouse_wheelERKNS_15MouseWheelEventE
FNDA:25,_ZN6draxul17LocalTerminalHost19on_viewport_changedEv
FNDA:24,_ZN6draxul17LocalTerminalHost20reset_terminal_stateEv
FNDA:5,_ZN6draxul17LocalTerminalHost20on_line_scrolled_offEi
FNDA:19,_ZN6draxul17LocalTerminalHost21on_mouse_mode_changedEib
FNDA:46,_ZNK6draxul17LocalTerminalHost13pixel_to_cellEii
FNDA:0,_ZN6draxul17LocalTerminalHost22collect_extra_attr_idsERNSt3__113unordered_mapItNS_6HlAttrENS1_4hashItEENS1_8equal_toItEENS1_9allocatorINS1_4pairIKtS3_EEEEEE
FNDA:0,_ZN6draxul17LocalTerminalHost25remap_extra_highlight_idsERKNSt3__18functionIFttEEE
FNDA:24,local_terminal_host.cpp:_ZZN6draxul17LocalTerminalHostC1EvENK3$_1clEv
FNDA:74,local_terminal_host.cpp:_ZZZN6draxul17LocalTerminalHostC1EvENK3$_1clEvENKUlNSt3__16vectorINS_10CellUpdateENS2_9allocatorIS4_EEEEE_clES7_
FNDA:24694,local_terminal_host.cpp:_ZZZN6draxul17LocalTerminalHostC1EvENK3$_1clEvENKUliiE_clEii
FNDA:831,local_terminal_host.cpp:_ZZZN6draxul17LocalTerminalHostC1EvENK3$_1clEvENKUlvE_clEv
FNDA:0,local_terminal_host.cpp:_ZZZN6draxul17LocalTerminalHostC1EvENK3$_1clEvENKUlvE0_clEv
FNDA:16,local_terminal_host.cpp:_ZZZN6draxul17LocalTerminalHostC1EvENK3$_1clEvENKUlvE1_clEv
FNDA:24,local_terminal_host.cpp:_ZZN6draxul17LocalTerminalHostC1EvENK3$_2clEv
FNDA:0,local_terminal_host.cpp:_ZZZN6draxul17LocalTerminalHostC1EvENK3$_2clEvENKUlvE_clEv
FNDA:0,local_terminal_host.cpp:_ZZZN6draxul17LocalTerminalHostC1EvENK3$_2clEvENKUlvE0_clEv
FNDA:0,local_terminal_host.cpp:_ZZZN6draxul17LocalTerminalHostC1EvENK3$_2clEvENKUliiE_clEii
FNDA:0,local_terminal_host.cpp:_ZZZN6draxul17LocalTerminalHostC1EvENK3$_2clEvENKUliiRKNS_4CellEE_clEiiS4_
FNDA:0,local_terminal_host.cpp:_ZZZN6draxul17LocalTerminalHostC1EvENK3$_2clEvENKUlvE1_clEv
FNDA:0,local_terminal_host.cpp:_ZZZN6draxul17LocalTerminalHostC1EvENK3$_2clEvENKUlvE2_clEv
FNDA:25,local_terminal_host.cpp:_ZN6draxul12_GLOBAL__N_121capture_grid_snapshotERKNS_4GridEii
FNDA:25,local_terminal_host.cpp:_ZN6draxul12_GLOBAL__N_121restore_grid_snapshotERNS_4GridEiiRKNS0_12GridSnapshotE
FNDA:25,local_terminal_host.cpp:_ZNK6draxul12_GLOBAL__N_112GridSnapshot5emptyEv
FNDA:19,local_terminal_host.cpp:_ZZN6draxul17LocalTerminalHostC1EvENK3$_0clENSt3__117basic_string_viewIcNS2_11char_traitsIcEEEE
FNDA:0,local_terminal_host.cpp:_ZZN6draxul17LocalTerminalHost22collect_extra_attr_idsERNSt3__113unordered_mapItNS_6HlAttrENS1_4hashItEENS1_8equal_toItEENS1_9allocatorINS1_4pairIKtS3_EEEEEEENK3$_0clERKNS_4CellE
FNF:33
FNH:20
DA:21,25
DA:22,25
DA:23,25
DA:27,25
DA:28,25
DA:29,25
DA:30,25
DA:31,25
DA:32,25
DA:33,28
DA:34,3
DA:35,15
DA:36,12
DA:37,3
DA:38,25
DA:39,25
DA:42,25
DA:43,25
DA:44,25
DA:45,24
DA:47,1
DA:48,1
DA:49,1
DA:50,1
DA:52,4
DA:53,3
DA:54,15
DA:55,12
DA:56,12
DA:57,12
DA:58,0
DA:59,12
DA:60,0
DA:61,12
DA:62,12
DA:63,3
DA:64,1
DA:73,24
DA:74,24
DA:75,24
DA:76,24
DA:77,24
DA:78,24
DA:79,24
DA:80,0
DA:81,0
DA:82,24
DA:83,24
DA:84,24
DA:85,24
DA:86,24
DA:87,24
DA:88,74
DA:89,74
DA:90,74
DA:91,24694
DA:92,24694
DA:93,24694
DA:94,831
DA:95,24
DA:96,24
DA:97,24
DA:98,24
DA:99,24
DA:100,24
DA:107,0
DA:108,0
DA:109,0
DA:110,0
DA:111,0
DA:112,0
DA:113,0
DA:114,0
DA:120,0
DA:121,0
DA:122,0
DA:123,0
DA:125,0
DA:126,0
DA:128,0
DA:129,0
DA:130,0
DA:131,0
DA:134,0
DA:135,0
DA:136,0
DA:137,0
DA:138,0
DA:139,0
DA:142,0
DA:143,0
DA:144,0
DA:145,0
DA:146,0
DA:147,0
DA:150,6
DA:151,6
DA:152,6
DA:153,5
DA:154,5
DA:155,5
DA:156,5
DA:157,5
DA:158,5
DA:159,5
DA:160,1
DA:161,1
DA:162,0
DA:163,0
DA:164,0
DA:165,1
DA:172,29
DA:173,29
DA:174,29
DA:176,29
DA:177,13
DA:179,16
DA:180,9
DA:181,9
DA:182,9
DA:183,9
DA:184,7
DA:185,7
DA:186,7
DA:189,16
DA:190,16
DA:191,16
DA:193,16
DA:194,5
DA:196,11
DA:197,11
DA:200,1
DA:201,1
DA:202,1
DA:203,1
DA:204,1
DA:205,1
DA:206,1
DA:207,1
DA:208,1
DA:210,0
DA:211,0
DA:212,0
DA:219,25
DA:220,25
DA:221,25
DA:222,25
DA:223,25
DA:224,25
DA:225,25
DA:226,0
DA:228,25
DA:230,25
DA:231,24
DA:232,1
DA:233,0
DA:234,25
DA:236,25
DA:238,25
DA:239,25
DA:240,25
DA:241,25
DA:244,24
DA:245,24
DA:246,24
DA:247,24
DA:248,24
DA:249,24
DA:250,24
DA:257,5
DA:258,5
DA:259,5
DA:260,5
DA:261,5
DA:262,5
DA:263,385
DA:264,380
DA:265,5
DA:266,5
DA:267,5
DA:274,19
DA:275,19
DA:276,19
DA:277,19
DA:284,46
DA:285,46
DA:286,46
DA:287,46
DA:288,46
DA:289,0
DA:290,46
DA:291,0
DA:292,46
DA:293,46
DA:294,46
DA:295,46
DA:296,46
DA:297,46
DA:304,0
DA:305,0
DA:306,0
DA:307,0
DA:308,0
DA:309,0
DA:310,0
DA:313,0
DA:314,0
DA:315,0
BRDA:22,0,0,24
BRDA:22,0,1,1
BRDA:22,1,2,0
BRDA:22,1,3,1
BRDA:22,2,4,0
BRDA:22,2,5,1
BRDA:33,0,0,3
BRDA:33,0,1,25
BRDA:35,0,0,12
BRDA:35,0,1,3
BRDA:44,0,0,24
BRDA:44,0,1,1
BRDA:52,0,0,3
BRDA:52,0,1,1
BRDA:54,0,0,12
BRDA:54,0,1,3
BRDA:57,0,0,0
BRDA:57,0,1,12
BRDA:59,0,0,0
BRDA:59,0,1,12
BRDA:59,1,2,-
BRDA:59,1,3,-
BRDA:110,0,0,-
BRDA:110,0,1,-
BRDA:112,0,0,-
BRDA:112,0,1,-
BRDA:122,0,0,-
BRDA:122,0,1,-
BRDA:126,0,0,-
BRDA:126,0,1,-
BRDA:136,0,0,-
BRDA:136,0,1,-
BRDA:136,1,2,-
BRDA:136,1,3,-
BRDA:144,0,0,-
BRDA:144,0,1,-
BRDA:144,1,2,-
BRDA:144,1,3,-
BRDA:152,0,0,6
BRDA:152,0,1,0
BRDA:152,1,2,5
BRDA:152,1,3,1
BRDA:155,0,0,5
BRDA:155,0,1,0
BRDA:160,0,0,1
BRDA:160,0,1,0
BRDA:162,0,0,-
BRDA:162,0,1,-
BRDA:162,1,2,-
BRDA:162,1,3,-
BRDA:176,0,0,13
BRDA:176,0,1,16
BRDA:179,0,0,16
BRDA:179,0,1,0
BRDA:179,1,2,9
BRDA:179,1,3,7
BRDA:184,0,0,7
BRDA:184,0,1,0
BRDA:193,0,0,5
BRDA:193,0,1,11
BRDA:202,0,0,1
BRDA:202,0,1,0
BRDA:205,0,0,1
BRDA:205,0,1,0
BRDA:211,0,0,-
BRDA:211,0,1,-
BRDA:225,0,0,1
BRDA:225,0,1,24
BRDA:225,1,2,0
BRDA:225,1,3,1
BRDA:230,0,0,24
BRDA:230,0,1,1
BRDA:232,0,0,0
BRDA:232,0,1,1
BRDA:260,0,0,5
BRDA:260,0,1,0
BRDA:263,0,0,380
BRDA:263,0,1,5
BRDA:288,0,0,0
BRDA:288,0,1,46
BRDA:290,0,0,0
BRDA:290,0,1,46
BRDA:306,0,0,-
BRDA:306,0,1,-
BRF:84
BRH:42
LF:256
LH:190
end_of_record
SF:/Users/runner/work/Draxul/Draxul/libs/draxul-host/src/mouse_reporter.cpp
FN:29,_ZN6draxul13MouseReporterC2ENSt3__18functionIFvNS1_17basic_string_viewIcNS1_11char_traitsIcEEEEEEE
FN:34,_ZN6draxul13MouseReporter8set_modeEib
FN:56,_ZN6draxul13MouseReporter9on_buttonEibiii
FN:84,_ZNK6draxul13MouseReporter7on_moveEiii
FN:113,_ZNK6draxul13MouseReporter8on_wheelEiiii
FN:120,_ZN6draxul13MouseReporter5resetEv
FN:128,_ZNK6draxul13MouseReporter11send_reportEibii
FN:16,mouse_reporter.cpp:_ZN6draxul12_GLOBAL__N_121apply_mouse_modifiersEii
FNDA:69,_ZN6draxul13MouseReporterC2ENSt3__18functionIFvNS1_17basic_string_viewIcNS1_11char_traitsIcEEEEEEE
FNDA:87,_ZN6draxul13MouseReporter8set_modeEib
FNDA:64,_ZN6draxul13MouseReporter9on_buttonEibiii
FNDA:27,_ZNK6draxul13MouseReporter7on_moveEiii
FNDA:5,_ZNK6draxul13MouseReporter8on_wheelEiiii
FNDA:25,_ZN6draxul13MouseReporter5resetEv
FNDA:61,_ZNK6draxul13MouseReporter11send_reportEibii
FNDA:61,mouse_reporter.cpp:_ZN6draxul12_GLOBAL__N_121apply_mouse_modifiersEii
FNF:8
FNH:8
DA:16,61
DA:17,61
DA:18,4
DA:19,61
DA:20,1
DA:21,61
DA:22,6
DA:23,61
DA:24,61
DA:29,69
DA:30,69
DA:31,69
DA:34,87
DA:35,87
DA:36,87
DA:37,87
DA:38,35
DA:39,35
DA:40,35
DA:41,12
DA:42,12
DA:43,12
DA:44,13
DA:45,13
DA:46,13
DA:47,26
DA:48,26
DA:49,26
DA:50,1
DA:51,1
DA:52,87
DA:53,87
DA:56,64
DA:57,64
DA:59,64
DA:60,64
DA:61,62
DA:62,62
DA:63,47
DA:64,15
DA:65,15
DA:66,62
DA:68,64
DA:69,18
DA:71,46
DA:72,46
DA:73,2
DA:75,44
DA:76,44
DA:77,8
DA:79,44
DA:80,44
DA:81,46
DA:84,27
DA:85,27
DA:87,27
DA:88,11
DA:89,16
DA:90,4
DA:94,12
DA:95,24
DA:96,21
DA:97,21
DA:98,9
DA:99,9
DA:100,9
DA:101,9
DA:102,21
DA:104,12
DA:105,12
DA:106,12
DA:107,12
DA:108,12
DA:109,12
DA:110,16
DA:113,5
DA:114,5
DA:115,5
DA:116,5
DA:117,5
DA:120,25
DA:121,25
DA:122,25
DA:123,25
DA:124,25
DA:125,25
DA:128,61
DA:129,61
DA:130,61
DA:131,35
DA:132,35
DA:133,35
DA:134,35
DA:135,35
DA:136,35
DA:137,35
DA:138,26
DA:139,24
DA:140,24
DA:141,24
DA:142,24
DA:143,24
DA:144,24
DA:145,24
DA:146,24
DA:147,24
DA:148,24
DA:149,61
BRDA:17,0,0,4
BRDA:17,0,1,57
BRDA:19,0,0,1
BRDA:19,0,1,60
BRDA:21,0,0,6
BRDA:21,0,1,55
BRDA:38,0,0,35
BRDA:38,0,1,52
BRDA:39,0,0,34
BRDA:39,0,1,1
BRDA:41,0,0,12
BRDA:41,0,1,75
BRDA:42,0,0,12
BRDA:42,0,1,0
BRDA:44,0,0,13
BRDA:44,0,1,74
BRDA:45,0,0,11
BRDA:45,0,1,2
BRDA:47,0,0,26
BRDA:47,0,1,61
BRDA:50,0,0,1
BRDA:50,0,1,86
BRDA:60,0,0,63
BRDA:60,0,1,1
BRDA:60,1,2,62
BRDA:60,1,3,1
BRDA:62,0,0,47
BRDA:62,0,1,15
BRDA:68,0,0,18
BRDA:68,0,1,46
BRDA:72,0,0,1
BRDA:72,0,1,45
BRDA:72,1,2,1
BRDA:72,1,3,44
BRDA:76,0,0,8
BRDA:76,0,1,36
BRDA:87,0,0,9
BRDA:87,0,1,18
BRDA:87,1,2,2
BRDA:87,1,3,16
BRDA:89,0,0,11
BRDA:89,0,1,5
BRDA:89,1,2,4
BRDA:89,1,3,7
BRDA:95,0,0,21
BRDA:95,0,1,3
BRDA:97,0,0,9
BRDA:97,0,1,12
BRDA:104,0,0,5
BRDA:104,0,1,7
BRDA:104,1,2,3
BRDA:104,1,3,2
BRDA:130,0,0,35
BRDA:130,0,1,26
BRDA:134,0,0,32
BRDA:134,0,1,3
BRDA:135,0,0,35
BRDA:135,0,1,0
BRDA:138,0,0,25
BRDA:138,0,1,1
BRDA:138,1,2,24
BRDA:138,1,3,1
BRF:62
BRH:60
LF:108
LH:108
end_of_record
SF:/Users/runner/work/Draxul/Draxul/libs/draxul-host/src/nvim_host.cpp
FN:25,_ZN6draxul8NvimHost15initialize_hostEv
FN:68,_ZNK6draxul8NvimHost10is_runningEv
FN:77,_ZNK6draxul8NvimHost10init_errorEv
FN:82,_ZN6draxul8NvimHost8shutdownEv
FN:94,_ZN6draxul8NvimHost4pumpEv
FN:112,_ZN6draxul8NvimHost6on_keyERKNS_8KeyEventE
FN:117,_ZN6draxul8NvimHost13on_text_inputERKNS_14TextInputEventE
FN:122,_ZN6draxul8NvimHost15on_text_editingERKNS_16TextEditingEventE
FN:127,_ZN6draxul8NvimHost15on_mouse_buttonERKNS_16MouseButtonEventE
FN:132,_ZN6draxul8NvimHost13on_mouse_moveERKNS_14MouseMoveEventE
FN:137,_ZN6draxul8NvimHost14on_mouse_wheelERKNS_15MouseWheelEventE
FN:142,_ZN6draxul8NvimHost15dispatch_actionENSt3__117basic_string_viewIcNS1_11char_traitsIcEEEE
FN:210,_ZN6draxul8NvimHost13request_closeEv
FN:216,_ZN6draxul8NvimHost19on_viewport_changedEv
FN:241,_ZN6draxul8NvimHost28on_font_metrics_changed_implEv
FN:255,_ZN6draxul8NvimHost9attach_uiEv
FN:276,_ZN6draxul8NvimHost24execute_startup_commandsEv
FN:292,_ZN6draxul8NvimHost24setup_clipboard_providerEv
FN:324,_ZN6draxul8NvimHost20queue_resize_requestEiiPKc
FN:329,_ZN6draxul8NvimHost8on_flushEv
FN:342,_ZN6draxul8NvimHost7on_busyEb
FN:348,_ZN6draxul8NvimHost20refresh_cursor_styleEv
FN:383,_ZNK6draxul8NvimHost20current_blink_timingEv
FN:393,_ZNK6draxul8NvimHost18handle_rpc_requestERKNSt3__112basic_stringIcNS1_11char_traitsIcEENS1_9allocatorIcEEEERKNS1_6vectorINS_10MpackValueENS5_ISB_EEEE
FN:401,_ZNK6draxul8NvimHost20handle_clipboard_setERKNSt3__16vectorINS_10MpackValueENS1_9allocatorIS3_EEEE
FN:406,_ZN6draxul8NvimHost17wire_ui_callbacksEv
FN:40,nvim_host.cpp:_ZZN6draxul8NvimHost15initialize_hostEvENK3$_0clEv
FN:43,nvim_host.cpp:_ZZN6draxul8NvimHost15initialize_hostEvENK3$_1clERKNSt3__112basic_stringIcNS2_11char_traitsIcEENS2_9allocatorIcEEEERKNS2_6vectorINS_10MpackValueENS6_ISC_EEEE
FN:411,nvim_host.cpp:_ZZN6draxul8NvimHost17wire_ui_callbacksEvENK3$_0clEv
FN:412,nvim_host.cpp:_ZZN6draxul8NvimHost17wire_ui_callbacksEvENK3$_1clEii
FN:416,nvim_host.cpp:_ZZN6draxul8NvimHost17wire_ui_callbacksEvENK3$_2clEii
FN:417,nvim_host.cpp:_ZZN6draxul8NvimHost17wire_ui_callbacksEvENK3$_3clEi
FN:418,nvim_host.cpp:_ZZN6draxul8NvimHost17wire_ui_callbacksEvENK3$_4clERKNSt3__112basic_stringIcNS2_11char_traitsIcEENS2_9allocatorIcEEEERKNS_10MpackValueE
FN:17,nvim_host.cpp:_ZN6draxul12_GLOBAL__N_115apply_ui_optionERNS_9UiOptionsERKNSt3__112basic_stringIcNS3_11char_traitsIcEENS3_9allocatorIcEEEERKNS_10MpackValueE
FN:421,nvim_host.cpp:_ZZN6draxul8NvimHost17wire_ui_callbacksEvENK3$_5clEb
FN:422,nvim_host.cpp:_ZZN6draxul8NvimHost17wire_ui_callbacksEvENK3$_6clERKNSt3__112basic_stringIcNS2_11char_traitsIcEENS2_9allocatorIcEEEE
FNDA:4,_ZN6draxul8NvimHost15initialize_hostEv
FNDA:0,_ZNK6draxul8NvimHost10is_runningEv
FNDA:4,_ZNK6draxul8NvimHost10init_errorEv
FNDA:0,_ZN6draxul8NvimHost8shutdownEv
FNDA:0,_ZN6draxul8NvimHost4pumpEv
FNDA:0,_ZN6draxul8NvimHost6on_keyERKNS_8KeyEventE
FNDA:0,_ZN6draxul8NvimHost13on_text_inputERKNS_14TextInputEventE
FNDA:0,_ZN6draxul8NvimHost15on_text_editingERKNS_16TextEditingEventE
FNDA:0,_ZN6draxul8NvimHost15on_mouse_buttonERKNS_16MouseButtonEventE
FNDA:0,_ZN6draxul8NvimHost13on_mouse_moveERKNS_14MouseMoveEventE
FNDA:0,_ZN6draxul8NvimHost14on_mouse_wheelERKNS_15MouseWheelEventE
FNDA:0,_ZN6draxul8NvimHost15dispatch_actionENSt3__117basic_string_viewIcNS1_11char_traitsIcEEEE
FNDA:0,_ZN6draxul8NvimHost13request_closeEv
FNDA:4,_ZN6draxul8NvimHost19on_viewport_changedEv
FNDA:0,_ZN6draxul8NvimHost28on_font_metrics_changed_implEv
FNDA:0,_ZN6draxul8NvimHost9attach_uiEv
FNDA:0,_ZN6draxul8NvimHost24execute_startup_commandsEv
FNDA:0,_ZN6draxul8NvimHost24setup_clipboard_providerEv
FNDA:0,_ZN6draxul8NvimHost20queue_resize_requestEiiPKc
FNDA:0,_ZN6draxul8NvimHost8on_flushEv
FNDA:0,_ZN6draxul8NvimHost7on_busyEb
FNDA:0,_ZN6draxul8NvimHost20refresh_cursor_styleEv
FNDA:0,_ZNK6draxul8NvimHost20current_blink_timingEv
FNDA:0,_ZNK6draxul8NvimHost18handle_rpc_requestERKNSt3__112basic_stringIcNS1_11char_traitsIcEENS1_9allocatorIcEEEERKNS1_6vectorINS_10MpackValueENS5_ISB_EEEE
FNDA:0,_ZNK6draxul8NvimHost20handle_clipboard_setERKNSt3__16vectorINS_10MpackValueENS1_9allocatorIS3_EEEE
FNDA:0,_ZN6draxul8NvimHost17wire_ui_callbacksEv
FNDA:0,nvim_host.cpp:_ZZN6draxul8NvimHost15initialize_hostEvENK3$_0clEv
FNDA:0,nvim_host.cpp:_ZZN6draxul8NvimHost15initialize_hostEvENK3$_1clERKNSt3__112basic_stringIcNS2_11char_traitsIcEENS2_9allocatorIcEEEERKNS2_6vectorINS_10MpackValueENS6_ISC_EEEE
FNDA:0,nvim_host.cpp:_ZZN6draxul8NvimHost17wire_ui_callbacksEvENK3$_0clEv
FNDA:0,nvim_host.cpp:_ZZN6draxul8NvimHost17wire_ui_callbacksEvENK3$_1clEii
FNDA:0,nvim_host.cpp:_ZZN6draxul8NvimHost17wire_ui_callbacksEvENK3$_2clEii
FNDA:0,nvim_host.cpp:_ZZN6draxul8NvimHost17wire_ui_callbacksEvENK3$_3clEi
FNDA:0,nvim_host.cpp:_ZZN6draxul8NvimHost17wire_ui_callbacksEvENK3$_4clERKNSt3__112basic_stringIcNS2_11char_traitsIcEENS2_9allocatorIcEEEERKNS_10MpackValueE
FNDA:0,nvim_host.cpp:_ZN6draxul12_GLOBAL__N_115apply_ui_optionERNS_9UiOptionsERKNSt3__112basic_stringIcNS3_11char_traitsIcEENS3_9allocatorIcEEEERKNS_10MpackValueE
FNDA:0,nvim_host.cpp:_ZZN6draxul8NvimHost17wire_ui_callbacksEvENK3$_5clEb
FNDA:0,nvim_host.cpp:_ZZN6draxul8NvimHost17wire_ui_callbacksEvENK3$_6clERKNSt3__112basic_stringIcNS2_11char_traitsIcEENS2_9allocatorIcEEEE
FNF:36
FNH:3
DA:17,0
DA:18,0
DA:19,0
DA:20,0
DA:25,4
DA:26,4
DA:27,4
DA:28,4
DA:29,4
DA:30,4
DA:31,4
DA:32,4
DA:34,0
DA:35,0
DA:36,0
DA:37,0
DA:38,0
DA:40,0
DA:41,0
DA:42,0
DA:43,0
DA:44,0
DA:45,0
DA:47,0
DA:49,0
DA:50,0
DA:51,0
DA:53,0
DA:54,0
DA:55,0
DA:56,0
DA:57,0
DA:58,0
DA:59,0
DA:63,0
DA:64,0
DA:65,0
DA:68,0
DA:73,0
DA:74,0
DA:77,4
DA:78,4
DA:79,4
DA:82,0
DA:83,0
DA:84,0
DA:85,0
DA:87,0
DA:88,0
DA:89,0
DA:90,0
DA:91,0
DA:94,0
DA:95,0
DA:96,0
DA:97,0
DA:99,0
DA:100,0
DA:101,0
DA:102,0
DA:103,0
DA:104,0
DA:105,0
DA:106,0
DA:108,0
DA:109,0
DA:112,0
DA:113,0
DA:114,0
DA:117,0
DA:118,0
DA:119,0
DA:122,0
DA:123,0
DA:124,0
DA:127,0
DA:128,0
DA:129,0
DA:132,0
DA:133,0
DA:134,0
DA:137,0
DA:138,0
DA:139,0
DA:142,0
DA:143,0
DA:144,0
DA:145,0
DA:146,0
DA:147,0
DA:148,0
DA:149,0
DA:150,0
DA:151,0
DA:152,0
DA:153,0
DA:154,0
DA:155,0
DA:156,0
DA:157,0
DA:158,0
DA:160,0
DA:161,0
DA:162,0
DA:163,0
DA:164,0
DA:166,0
DA:167,0
DA:169,0
DA:170,0
DA:171,0
DA:172,0
DA:173,0
DA:174,0
DA:175,0
DA:176,0
DA:178,0
DA:179,0
DA:180,0
DA:181,0
DA:182,0
DA:183,0
DA:184,0
DA:185,0
DA:186,0
DA:187,0
DA:188,0
DA:189,0
DA:190,0
DA:191,0
DA:192,0
DA:193,0
DA:194,0
DA:195,0
DA:197,0
DA:198,0
DA:199,0
DA:200,0
DA:201,0
DA:202,0
DA:203,0
DA:204,0
DA:206,0
DA:207,0
DA:210,0
DA:211,0
DA:212,0
DA:213,0
DA:216,4
DA:217,4
DA:218,4
DA:219,4
DA:220,4
DA:221,4
DA:222,4
DA:223,4
DA:224,4
DA:225,4
DA:227,0
DA:228,0
DA:230,0
DA:231,0
DA:232,0
DA:233,0
DA:234,0
DA:235,0
DA:237,0
DA:238,0
DA:241,0
DA:242,0
DA:243,0
DA:244,0
DA:245,0
DA:246,0
DA:248,0
DA:249,0
DA:250,0
DA:251,0
DA:252,0
DA:255,0
DA:256,0
DA:257,0
DA:258,0
DA:259,0
DA:260,0
DA:261,0
DA:262,0
DA:263,0
DA:264,0
DA:265,0
DA:266,0
DA:267,0
DA:268,0
DA:269,0
DA:270,0
DA:271,0
DA:272,0
DA:273,0
DA:276,0
DA:277,0
DA:278,0
DA:279,0
DA:280,0
DA:281,0
DA:282,0
DA:283,0
DA:284,0
DA:285,0
DA:286,0
DA:287,0
DA:288,0
DA:289,0
DA:292,0
DA:293,0
DA:294,0
DA:295,0
DA:296,0
DA:298,0
DA:300,0
DA:301,0
DA:302,0
DA:303,0
DA:304,0
DA:305,0
DA:306,0
DA:307,0
DA:308,0
DA:309,0
DA:310,0
DA:311,0
DA:312,0
DA:313,0
DA:314,0
DA:316,0
DA:317,0
DA:318,0
DA:319,0
DA:320,0
DA:321,0
DA:324,0
DA:325,0
DA:326,0
DA:329,0
DA:330,0
DA:331,0
DA:332,0
DA:333,0
DA:334,0
DA:335,0
DA:336,0
DA:337,0
DA:338,0
DA:339,0
DA:342,0
DA:343,0
DA:344,0
DA:345,0
DA:348,0
DA:349,0
DA:350,0
DA:351,0
DA:352,0
DA:354,0
DA:355,0
DA:356,0
DA:357,0
DA:358,0
DA:359,0
DA:360,0
DA:361,0
DA:362,0
DA:367,0
DA:368,0
DA:369,0
DA:370,0
DA:371,0
DA:372,0
DA:373,0
DA:374,0
DA:375,0
DA:376,0
DA:377,0
DA:379,0
DA:380,0
DA:383,0
DA:384,0
DA:385,0
DA:386,0
DA:388,0
DA:389,0
DA:390,0
DA:393,0
DA:394,0
DA:395,0
DA:397,0
DA:398,0
DA:401,0
DA:402,0
DA:403,0
DA:406,0
DA:407,0
DA:408,0
DA:409,0
DA:410,0
DA:411,0
DA:412,0
DA:413,0
DA:414,0
DA:415,0
DA:416,0
DA:417,0
DA:418,0
DA:419,0
DA:420,0
DA:421,0
DA:422,0
DA:423,0
DA:424,0
DA:425,0
BRDA:18,0,0,-
BRDA:18,0,1,-
BRDA:18,1,2,-
BRDA:18,1,3,-
BRDA:19,0,0,-
BRDA:19,0,1,-
BRDA:27,0,0,0
BRDA:27,0,1,4
BRDA:28,0,0,4
BRDA:28,0,1,0
BRDA:34,0,0,-
BRDA:34,0,1,-
BRDA:54,0,0,-
BRDA:54,0,1,-
BRDA:56,0,0,-
BRDA:56,0,1,-
BRDA:73,0,0,-
BRDA:73,0,1,-
BRDA:73,1,2,-
BRDA:73,1,3,-
BRDA:84,0,0,-
BRDA:84,0,1,-
BRDA:96,0,0,-
BRDA:96,0,1,-
BRDA:100,0,0,-
BRDA:100,0,1,-
BRDA:102,0,0,-
BRDA:102,0,1,-
BRDA:104,0,0,-
BRDA:104,0,1,-
BRDA:144,0,0,-
BRDA:144,0,1,-
BRDA:146,0,0,-
BRDA:146,0,1,-
BRDA:160,0,0,-
BRDA:160,0,1,-
BRDA:166,0,0,-
BRDA:166,0,1,-
BRDA:171,0,0,-
BRDA:171,0,1,-
BRDA:172,0,0,-
BRDA:172,0,1,-
BRDA:172,1,2,-
BRDA:172,1,3,-
BRDA:172,2,4,-
BRDA:172,2,5,-
BRDA:197,0,0,-
BRDA:197,0,1,-
BRDA:211,0,0,-
BRDA:211,0,1,-
BRDA:221,0,0,4
BRDA:221,0,1,0
BRDA:221,1,2,-
BRDA:221,1,3,-
BRDA:227,0,0,-
BRDA:227,0,1,-
BRDA:227,1,2,-
BRDA:227,1,3,-
BRDA:231,0,0,-
BRDA:231,0,1,-
BRDA:250,0,0,-
BRDA:250,0,1,-
BRDA:250,1,2,-
BRDA:250,1,3,-
BRDA:266,0,0,-
BRDA:266,0,1,-
BRDA:278,0,0,-
BRDA:278,0,1,-
BRDA:281,0,0,-
BRDA:281,0,1,-
BRDA:295,0,0,-
BRDA:295,0,1,-
BRDA:295,1,2,-
BRDA:295,1,3,-
BRDA:295,2,4,-
BRDA:295,2,5,-
BRDA:333,0,0,-
BRDA:333,0,1,-
BRDA:333,1,2,-
BRDA:333,1,3,-
BRDA:335,0,0,-
BRDA:335,0,1,-
BRDA:355,0,0,-
BRDA:355,0,1,-
BRDA:355,1,2,-
BRDA:355,1,3,-
BRDA:360,0,0,-
BRDA:360,0,1,-
BRDA:367,0,0,-
BRDA:367,0,1,-
BRDA:367,1,2,-
BRDA:367,1,3,-
BRDA:367,2,4,-
BRDA:367,2,5,-
BRDA:385,0,0,-
BRDA:385,0,1,-
BRDA:385,1,2,-
BRDA:385,1,3,-
BRDA:394,0,0,-
BRDA:394,0,1,-
BRDA:423,0,0,-
BRDA:423,0,1,-
BRF:102
BRH:3
LF:339
LH:21
end_of_record
SF:/Users/runner/work/Draxul/Draxul/libs/draxul-host/src/nvim_host.h
FN:32,_ZNK6draxul8NvimHost9host_nameEv
FNDA:0,_ZNK6draxul8NvimHost9host_nameEv
FNF:1
FNH:0
DA:32,0
DA:33,0
DA:34,0
BRF:0
BRH:0
LF:3
LH:0
end_of_record
SF:/Users/runner/work/Draxul/Draxul/libs/draxul-host/src/scrollback_buffer.cpp
FN:11,_ZN6draxul16ScrollbackBufferC2ENS0_9CallbacksE
FN:16,_ZN6draxul16ScrollbackBuffer6resizeEi
FN:31,_ZN6draxul16ScrollbackBuffer15next_write_slotEv
FN:38,_ZN6draxul16ScrollbackBuffer11commit_pushEv
FN:46,_ZNK6draxul16ScrollbackBuffer3rowEi
FN:56,_ZN6draxul16ScrollbackBuffer6scrollEi
FN:79,_ZN6draxul16ScrollbackBuffer14scroll_to_liveEv
FN:88,_ZN6draxul16ScrollbackBuffer18save_live_snapshotEii
FN:99,_ZN6draxul16ScrollbackBuffer5resetEv
FN:110,_ZN6draxul16ScrollbackBuffer21restore_live_snapshotEv
FN:147,_ZN6draxul16ScrollbackBuffer14update_displayEv
FNDA:36,_ZN6draxul16ScrollbackBufferC2ENS0_9CallbacksE
FNDA:42,_ZN6draxul16ScrollbackBuffer6resizeEi
FNDA:4217,_ZN6draxul16ScrollbackBuffer15next_write_slotEv
FNDA:4216,_ZN6draxul16ScrollbackBuffer11commit_pushEv
FNDA:2013,_ZNK6draxul16ScrollbackBuffer3rowEi
FNDA:3,_ZN6draxul16ScrollbackBuffer6scrollEi
FNDA:0,_ZN6draxul16ScrollbackBuffer14scroll_to_liveEv
FNDA:2,_ZN6draxul16ScrollbackBuffer18save_live_snapshotEii
FNDA:25,_ZN6draxul16ScrollbackBuffer5resetEv
FNDA:1,_ZN6draxul16ScrollbackBuffer21restore_live_snapshotEv
FNDA:2,_ZN6draxul16ScrollbackBuffer14update_displayEv
FNF:11
FNH:10
DA:11,36
DA:12,36
DA:13,36
DA:16,42
DA:17,42
DA:18,42
DA:19,1
DA:20,41
DA:21,41
DA:22,41
DA:23,41
DA:24,41
DA:25,41
DA:26,41
DA:27,41
DA:28,41
DA:31,4217
DA:32,4217
DA:33,1
DA:34,4216
DA:35,4217
DA:38,4216
DA:39,4216
DA:40,4216
DA:41,4216
DA:42,4111
DA:43,4216
DA:46,2013
DA:47,2013
DA:50,2013
DA:51,2013
DA:52,2013
DA:53,2013
DA:56,3
DA:57,3
DA:58,3
DA:59,3
DA:60,3
DA:61,0
DA:63,3
DA:64,2
DA:65,2
DA:66,2
DA:67,2
DA:68,2
DA:70,3
DA:72,3
DA:73,1
DA:74,2
DA:75,2
DA:76,3
DA:79,0
DA:80,0
DA:81,0
DA:82,0
DA:83,0
DA:84,0
DA:85,0
DA:88,2
DA:89,2
DA:90,2
DA:91,2
DA:92,2
DA:93,50
DA:94,2208
DA:95,2160
DA:96,2
DA:99,25
DA:100,25
DA:101,25
DA:102,25
DA:103,25
DA:104,25
DA:105,25
DA:106,25
DA:107,25
DA:110,1
DA:111,1
DA:112,1
DA:113,1
DA:116,1
DA:117,25
DA:118,24
DA:119,264
DA:120,240
DA:121,240
DA:122,240
DA:123,240
DA:124,240
DA:125,240
DA:126,0
DA:127,0
DA:128,0
DA:129,0
DA:130,0
DA:131,0
DA:132,240
DA:134,24
DA:135,0
DA:136,0
DA:137,0
DA:138,0
DA:139,0
DA:140,24
DA:141,1
DA:142,1
DA:143,1
DA:144,1
DA:147,2
DA:148,2
DA:149,2
DA:150,2
DA:151,2
DA:152,2
DA:154,50
DA:155,48
DA:156,48
DA:157,48
DA:158,0
DA:159,0
DA:160,0
DA:161,0
DA:162,0
DA:163,0
DA:164,48
DA:165,13
DA:166,13
DA:167,13
DA:168,843
DA:169,830
DA:170,830
DA:171,830
DA:172,830
DA:173,830
DA:174,0
DA:175,0
DA:176,0
DA:177,0
DA:178,0
DA:179,0
DA:180,830
DA:181,13
DA:182,35
DA:183,35
DA:184,35
DA:185,35
DA:186,1365
DA:187,1330
DA:188,1330
DA:189,1330
DA:190,1330
DA:191,1330
DA:192,1330
DA:193,0
DA:194,0
DA:195,0
DA:196,0
DA:197,0
DA:198,0
DA:199,1330
DA:201,35
DA:202,0
DA:203,0
DA:204,0
DA:205,0
DA:206,0
DA:207,35
DA:208,48
DA:210,2
DA:211,2
DA:212,2
BRDA:18,0,0,1
BRDA:18,0,1,41
BRDA:32,0,0,1
BRDA:32,0,1,4216
BRDA:41,0,0,4111
BRDA:41,0,1,105
BRDA:47,0,0,2013
BRDA:47,0,1,0
BRDA:47,1,2,2013
BRDA:47,1,3,0
BRDA:47,2,4,0
BRDA:47,2,5,2013
BRDA:50,0,0,13
BRDA:50,0,1,2000
BRDA:60,0,0,0
BRDA:60,0,1,3
BRDA:63,0,0,2
BRDA:63,0,1,1
BRDA:63,1,2,2
BRDA:63,1,3,0
BRDA:72,0,0,1
BRDA:72,0,1,2
BRDA:81,0,0,-
BRDA:81,0,1,-
BRDA:93,0,0,48
BRDA:93,0,1,2
BRDA:94,0,0,2160
BRDA:94,0,1,48
BRDA:117,0,0,24
BRDA:117,0,1,1
BRDA:119,0,0,240
BRDA:119,0,1,24
BRDA:122,0,0,240
BRDA:122,0,1,0
BRDA:134,0,0,0
BRDA:134,0,1,24
BRDA:154,0,0,48
BRDA:154,0,1,2
BRDA:157,0,0,0
BRDA:157,0,1,48
BRDA:161,0,0,-
BRDA:161,0,1,-
BRDA:164,0,0,13
BRDA:164,0,1,35
BRDA:168,0,0,830
BRDA:168,0,1,13
BRDA:170,0,0,830
BRDA:170,0,1,0
BRDA:186,0,0,1330
BRDA:186,0,1,35
BRDA:189,0,0,1330
BRDA:189,0,1,0
BRDA:201,0,0,0
BRDA:201,0,1,35
BRF:54
BRH:39
LF:171
LH:129
end_of_record
SF:/Users/runner/work/Draxul/Draxul/libs/draxul-host/src/selection_manager.cpp
FN:11,_ZN6draxul16SelectionManagerC2ENS0_9CallbacksE
FN:16,_ZN6draxul16SelectionManager10begin_dragENS0_7GridPosE
FN:25,_ZN6draxul16SelectionManager8end_dragENS0_7GridPosE
FN:39,_ZN6draxul16SelectionManager11update_dragENS0_7GridPosE
FN:50,_ZN6draxul16SelectionManager5clearEv
FN:61,_ZNK6draxul16SelectionManager12extract_textEv
FN:102,_ZNK6draxul16SelectionManager14update_overlayEv
FNDA:24,_ZN6draxul16SelectionManagerC2ENS0_9CallbacksE
FNDA:9,_ZN6draxul16SelectionManager10begin_dragENS0_7GridPosE
FNDA:7,_ZN6draxul16SelectionManager8end_dragENS0_7GridPosE
FNDA:11,_ZN6draxul16SelectionManager11update_dragENS0_7GridPosE
FNDA:63,_ZN6draxul16SelectionManager5clearEv
FNDA:5,_ZNK6draxul16SelectionManager12extract_textEv
FNDA:11,_ZNK6draxul16SelectionManager14update_overlayEv
FNF:7
FNH:7
DA:11,24
DA:12,24
DA:13,24
DA:16,9
DA:17,9
DA:18,9
DA:19,9
DA:20,9
DA:21,9
DA:22,9
DA:25,7
DA:26,7
DA:27,7
DA:28,7
DA:29,7
DA:30,5
DA:31,5
DA:32,5
DA:33,5
DA:34,5
DA:35,2
DA:36,7
DA:39,11
DA:40,11
DA:41,11
DA:42,4
DA:43,7
DA:44,7
DA:45,7
DA:46,6
DA:47,7
DA:50,63
DA:51,63
DA:52,63
DA:53,63
DA:54,63
DA:55,63
DA:56,63
DA:57,5
DA:58,63
DA:61,5
DA:62,5
DA:63,5
DA:64,0
DA:66,5
DA:67,5
DA:68,5
DA:69,0
DA:70,0
DA:71,0
DA:72,0
DA:74,5
DA:75,5
DA:76,282
DA:77,277
DA:78,277
DA:79,277
DA:80,277
DA:81,24971
DA:82,24694
DA:83,24694
DA:84,24694
DA:85,24694
DA:86,24694
DA:87,24694
DA:88,277
DA:89,272
DA:91,272
DA:92,0
DA:93,272
DA:94,272
DA:95,277
DA:96,25
DA:97,20
DA:98,5
DA:99,5
DA:102,11
DA:103,11
DA:104,11
DA:105,0
DA:106,0
DA:107,0
DA:108,0
DA:110,11
DA:111,11
DA:112,11
DA:113,0
DA:114,0
DA:115,0
DA:116,0
DA:118,11
DA:119,11
DA:121,11
DA:122,11
DA:123,11
DA:124,567
DA:125,556
DA:126,556
DA:127,556
DA:128,49966
DA:129,49410
DA:130,49410
DA:131,49410
DA:132,49410
DA:133,49410
DA:134,49410
DA:135,49410
DA:136,49410
DA:137,556
DA:138,2
DA:139,556
DA:140,11
DA:141,2
DA:142,11
DA:144,11
DA:145,11
DA:146,11
BRDA:29,0,0,5
BRDA:29,0,1,2
BRDA:29,1,2,0
BRDA:29,1,3,2
BRDA:41,0,0,4
BRDA:41,0,1,7
BRDA:44,0,0,6
BRDA:44,0,1,1
BRDA:44,1,2,0
BRDA:44,1,3,1
BRDA:45,0,0,6
BRDA:45,0,1,1
BRDA:56,0,0,5
BRDA:56,0,1,58
BRDA:63,0,0,0
BRDA:63,0,1,5
BRDA:68,0,0,0
BRDA:68,0,1,5
BRDA:68,1,2,1
BRDA:68,1,3,4
BRDA:68,2,4,0
BRDA:68,2,5,1
BRDA:76,0,0,278
BRDA:76,0,1,4
BRDA:76,1,2,277
BRDA:76,1,3,1
BRDA:78,0,0,5
BRDA:78,0,1,272
BRDA:79,0,0,4
BRDA:79,0,1,273
BRDA:81,0,0,24696
BRDA:81,0,1,275
BRDA:81,1,2,24694
BRDA:81,1,3,2
BRDA:84,0,0,24694
BRDA:84,0,1,0
BRDA:88,0,0,273
BRDA:88,0,1,4
BRDA:88,1,2,272
BRDA:88,1,3,1
BRDA:91,0,0,272
BRDA:91,0,1,0
BRDA:91,1,2,0
BRDA:91,1,3,272
BRDA:96,0,0,25
BRDA:96,0,1,0
BRDA:96,1,2,20
BRDA:96,1,3,5
BRDA:104,0,0,0
BRDA:104,0,1,11
BRDA:112,0,0,0
BRDA:112,0,1,11
BRDA:112,1,2,2
BRDA:112,1,3,9
BRDA:112,2,4,0
BRDA:112,2,5,2
BRDA:124,0,0,558
BRDA:124,0,1,9
BRDA:124,1,2,556
BRDA:124,1,3,2
BRDA:126,0,0,11
BRDA:126,0,1,545
BRDA:127,0,0,9
BRDA:127,0,1,547
BRDA:128,0,0,49414
BRDA:128,0,1,552
BRDA:128,1,2,49410
BRDA:128,1,3,4
BRDA:137,0,0,4
BRDA:137,0,1,552
BRDA:137,1,2,2
BRDA:137,1,3,2
BRDA:140,0,0,2
BRDA:140,0,1,9
BRF:74
BRH:62
LF:117
LH:103
end_of_record
SF:/Users/runner/work/Draxul/Draxul/libs/draxul-host/src/shell_host_unix.cpp
FN:82,_ZN6draxul17create_shell_hostEv
FN:23,shell_host_unix.cpp:_ZN6draxul12_GLOBAL__N_19ShellHost15initialize_hostEv
FN:36,shell_host_unix.cpp:_ZZN6draxul12_GLOBAL__N_19ShellHost15initialize_hostEvENKUlvE_clEv
FN:17,shell_host_unix.cpp:_ZNK6draxul12_GLOBAL__N_19ShellHost9host_nameEv
FN:51,shell_host_unix.cpp:_ZN6draxul12_GLOBAL__N_19ShellHost16do_process_writeENSt3__117basic_string_viewIcNS2_11char_traitsIcEEEE
FN:55,shell_host_unix.cpp:_ZN6draxul12_GLOBAL__N_19ShellHost16do_process_drainEv
FN:59,shell_host_unix.cpp:_ZN6draxul12_GLOBAL__N_19ShellHost17do_process_resizeEii
FN:63,shell_host_unix.cpp:_ZNK6draxul12_GLOBAL__N_19ShellHost21do_process_is_runningEv
FN:67,shell_host_unix.cpp:_ZN6draxul12_GLOBAL__N_19ShellHost19do_process_shutdownEv
FN:71,shell_host_unix.cpp:_ZN6draxul12_GLOBAL__N_19ShellHost24do_process_request_closeEv
FNDA:0,_ZN6draxul17create_shell_hostEv
FNDA:0,shell_host_unix.cpp:_ZN6draxul12_GLOBAL__N_19ShellHost15initialize_hostEv
FNDA:0,shell_host_unix.cpp:_ZZN6draxul12_GLOBAL__N_19ShellHost15initialize_hostEvENKUlvE_clEv
FNDA:0,shell_host_unix.cpp:_ZNK6draxul12_GLOBAL__N_19ShellHost9host_nameEv
FNDA:0,shell_host_unix.cpp:_ZN6draxul12_GLOBAL__N_19ShellHost16do_process_writeENSt3__117basic_string_viewIcNS2_11char_traitsIcEEEE
FNDA:0,shell_host_unix.cpp:_ZN6draxul12_GLOBAL__N_19ShellHost16do_process_drainEv
FNDA:0,shell_host_unix.cpp:_ZN6draxul12_GLOBAL__N_19ShellHost17do_process_resizeEii
FNDA:0,shell_host_unix.cpp:_ZNK6draxul12_GLOBAL__N_19ShellHost21do_process_is_runningEv
FNDA:0,shell_host_unix.cpp:_ZN6draxul12_GLOBAL__N_19ShellHost19do_process_shutdownEv
FNDA:0,shell_host_unix.cpp:_ZN6draxul12_GLOBAL__N_19ShellHost24do_process_request_closeEv
FNF:10
FNH:0
DA:17,0
DA:18,0
DA:19,0
DA:23,0
DA:24,0
DA:25,0
DA:26,0
DA:27,0
DA:28,0
DA:29,0
DA:30,0
DA:32,0
DA:33,0
DA:34,0
DA:36,0
DA:37,0
DA:38,0
DA:39,0
DA:40,0
DA:41,0
DA:43,0
DA:44,0
DA:46,0
DA:47,0
DA:48,0
DA:51,0
DA:52,0
DA:53,0
DA:55,0
DA:56,0
DA:57,0
DA:59,0
DA:60,0
DA:61,0
DA:63,0
DA:64,0
DA:65,0
DA:67,0
DA:68,0
DA:69,0
DA:71,0
DA:72,0
DA:73,0
DA:82,0
DA:83,0
DA:84,0
DA:85,0
BRDA:18,0,0,-
BRDA:18,0,1,-
BRDA:33,0,0,-
BRDA:33,0,1,-
BRDA:34,0,0,-
BRDA:34,0,1,-
BRDA:36,0,0,-
BRDA:36,0,1,-
BRDA:43,0,0,-
BRDA:43,0,1,-
BRF:10
BRH:0
LF:48
LH:0
end_of_record
SF:/Users/runner/work/Draxul/Draxul/libs/draxul-host/src/terminal_host_base.cpp
FN:34,_ZN6draxul16TerminalHostBaseC2Ev
FN:56,_ZN6draxul16TerminalHostBase4pumpEv
FN:76,_ZN6draxul16TerminalHostBase6on_keyERKNS_8KeyEventE
FN:86,_ZN6draxul16TerminalHostBase13on_text_inputERKNS_14TextInputEventE
FN:92,_ZN6draxul16TerminalHostBase18on_config_reloadedERKNS_16HostReloadConfigE
FN:108,_ZN6draxul16TerminalHostBase15dispatch_actionENSt3__117basic_string_viewIcNS1_11char_traitsIcEEEE
FN:136,_ZN6draxul16TerminalHostBase19on_viewport_changedEv
FN:168,_ZN6draxul16TerminalHostBase28on_font_metrics_changed_implEv
FN:179,_ZN6draxul16TerminalHostBase20reset_terminal_stateEv
FN:200,_ZN6draxul16TerminalHostBase19update_cursor_styleEv
FN:215,_ZN6draxul16TerminalHostBase16enter_alt_screenEv
FN:224,_ZN6draxul16TerminalHostBase16leave_alt_screenEv
FN:234,_ZN6draxul16TerminalHostBase7attr_idEv
FN:241,_ZN6draxul16TerminalHostBase16compact_attr_idsEv
FN:285,_ZN6draxul16TerminalHostBase10clear_cellEii
FN:290,_ZN6draxul16TerminalHostBase7newlineEb
FN:315,_ZN6draxul16TerminalHostBase13write_clusterERKNSt3__112basic_stringIcNS1_11char_traitsIcEENS1_9allocatorIcEEEE
FN:358,_ZN6draxul16TerminalHostBase10erase_lineEi
FN:371,_ZN6draxul16TerminalHostBase13erase_displayEi
FN:400,_ZN6draxul16TerminalHostBase10on_osc_cwdERKNSt3__112basic_stringIcNS1_11char_traitsIcEENS1_9allocatorIcEEEE
FN:421,_ZN6draxul16TerminalHostBase22collect_extra_attr_idsERNSt3__113unordered_mapItNS_6HlAttrENS1_4hashItEENS1_8equal_toItEENS1_9allocatorINS1_4pairIKtS3_EEEEEE
FN:426,_ZN6draxul16TerminalHostBase25remap_extra_highlight_idsERKNSt3__18functionIFttEEE
FN:23,terminal_host_base.cpp:_ZN6draxul12_GLOBAL__N_128set_grid_cell_for_alt_screenERNS_4GridEiiRKNS_4CellE
FN:237,terminal_host_base.cpp:_ZZN6draxul16TerminalHostBase7attr_idEvENK3$_0clEv
FN:260,terminal_host_base.cpp:_ZZN6draxul16TerminalHostBase16compact_attr_idsEvENK3$_0clERKNS_4CellE
FN:272,terminal_host_base.cpp:_ZZN6draxul16TerminalHostBase16compact_attr_idsEvENK3$_1clEt
FNDA:145,_ZN6draxul16TerminalHostBaseC2Ev
FNDA:0,_ZN6draxul16TerminalHostBase4pumpEv
FNDA:38,_ZN6draxul16TerminalHostBase6on_keyERKNS_8KeyEventE
FNDA:0,_ZN6draxul16TerminalHostBase13on_text_inputERKNS_14TextInputEventE
FNDA:0,_ZN6draxul16TerminalHostBase18on_config_reloadedERKNS_16HostReloadConfigE
FNDA:2,_ZN6draxul16TerminalHostBase15dispatch_actionENSt3__117basic_string_viewIcNS1_11char_traitsIcEEEE
FNDA:146,_ZN6draxul16TerminalHostBase19on_viewport_changedEv
FNDA:0,_ZN6draxul16TerminalHostBase28on_font_metrics_changed_implEv
FNDA:145,_ZN6draxul16TerminalHostBase20reset_terminal_stateEv
FNDA:148,_ZN6draxul16TerminalHostBase19update_cursor_styleEv
FNDA:7,_ZN6draxul16TerminalHostBase16enter_alt_screenEv
FNDA:4,_ZN6draxul16TerminalHostBase16leave_alt_screenEv
FNDA:146006,_ZN6draxul16TerminalHostBase7attr_idEv
FNDA:1,_ZN6draxul16TerminalHostBase16compact_attr_idsEv
FNDA:41,_ZN6draxul16TerminalHostBase10clear_cellEii
FNDA:76593,_ZN6draxul16TerminalHostBase7newlineEb
FNDA:145965,_ZN6draxul16TerminalHostBase13write_clusterERKNSt3__112basic_stringIcNS1_11char_traitsIcEENS1_9allocatorIcEEEE
FNDA:2,_ZN6draxul16TerminalHostBase10erase_lineEi
FNDA:4,_ZN6draxul16TerminalHostBase13erase_displayEi
FNDA:8,_ZN6draxul16TerminalHostBase10on_osc_cwdERKNSt3__112basic_stringIcNS1_11char_traitsIcEENS1_9allocatorIcEEEE
FNDA:1,_ZN6draxul16TerminalHostBase22collect_extra_attr_idsERNSt3__113unordered_mapItNS_6HlAttrENS1_4hashItEENS1_8equal_toItEENS1_9allocatorINS1_4pairIKtS3_EEEEEE
FNDA:1,_ZN6draxul16TerminalHostBase25remap_extra_highlight_idsERKNSt3__18functionIFttEEE
FNDA:84,terminal_host_base.cpp:_ZN6draxul12_GLOBAL__N_128set_grid_cell_for_alt_screenERNS_4GridEiiRKNS_4CellE
FNDA:1,terminal_host_base.cpp:_ZZN6draxul16TerminalHostBase7attr_idEvENK3$_0clEv
FNDA:0,terminal_host_base.cpp:_ZZN6draxul16TerminalHostBase16compact_attr_idsEvENK3$_0clERKNS_4CellE
FNDA:1,terminal_host_base.cpp:_ZZN6draxul16TerminalHostBase16compact_attr_idsEvENK3$_1clEt
FNF:26
FNH:21
DA:23,84
DA:24,84
DA:25,84
DA:34,145
DA:35,145
DA:36,145
DA:37,145
DA:38,145
DA:39,145
DA:40,145
DA:41,145
DA:42,145
DA:43,145
DA:44,145
DA:45,145
DA:46,145
DA:47,145
DA:48,145
DA:49,145
DA:56,0
DA:57,0
DA:58,0
DA:59,0
DA:60,0
DA:63,0
DA:64,0
DA:65,0
DA:66,0
DA:67,0
DA:68,0
DA:70,0
DA:71,0
DA:72,0
DA:73,0
DA:76,38
DA:77,38
DA:78,38
DA:79,0
DA:80,38
DA:81,38
DA:82,38
DA:83,38
DA:86,0
DA:87,0
DA:88,0
DA:89,0
DA:92,0
DA:93,0
DA:95,0
DA:96,0
DA:98,0
DA:99,0
DA:100,0
DA:101,0
DA:102,0
DA:103,0
DA:104,0
DA:105,0
DA:108,2
DA:109,2
DA:110,2
DA:111,2
DA:112,2
DA:113,2
DA:114,1
DA:115,1
DA:116,1
DA:117,1
DA:118,1
DA:119,1
DA:120,1
DA:121,1
DA:122,1
DA:123,1
DA:124,1
DA:125,1
DA:126,2
DA:127,2
DA:128,0
DA:129,2
DA:136,146
DA:137,146
DA:138,146
DA:139,146
DA:140,146
DA:141,0
DA:146,146
DA:147,0
DA:150,0
DA:151,0
DA:152,0
DA:154,146
DA:155,146
DA:156,146
DA:157,146
DA:158,146
DA:159,146
DA:160,146
DA:161,146
DA:162,146
DA:163,146
DA:164,146
DA:165,146
DA:168,0
DA:169,0
DA:170,0
DA:171,0
DA:172,0
DA:179,145
DA:180,145
DA:181,145
DA:182,145
DA:183,145
DA:184,145
DA:185,145
DA:186,145
DA:187,145
DA:188,145
DA:189,145
DA:190,145
DA:191,145
DA:192,145
DA:193,145
DA:194,145
DA:195,145
DA:196,145
DA:197,145
DA:200,148
DA:201,148
DA:202,148
DA:203,148
DA:204,148
DA:205,148
DA:206,148
DA:207,148
DA:208,148
DA:215,7
DA:216,7
DA:217,7
DA:218,7
DA:219,7
DA:220,7
DA:221,7
DA:224,4
DA:225,4
DA:226,4
DA:227,4
DA:234,146006
DA:235,146006
DA:236,146006
DA:237,146006
DA:238,146006
DA:241,1
DA:242,1
DA:245,1
DA:246,1
DA:248,2
DA:249,1
DA:250,2
DA:251,1
DA:252,1
DA:253,1
DA:254,1
DA:255,0
DA:256,0
DA:257,1
DA:259,1
DA:260,1
DA:261,0
DA:262,0
DA:263,0
DA:264,0
DA:266,1
DA:269,1
DA:272,1
DA:273,1
DA:274,1
DA:275,0
DA:276,0
DA:277,1
DA:279,1
DA:280,1
DA:281,1
DA:282,1
DA:285,41
DA:286,41
DA:287,41
DA:290,76593
DA:291,76593
DA:292,76593
DA:293,65008
DA:294,76593
DA:296,76593
DA:297,76147
DA:300,76147
DA:301,76147
DA:302,76137
DA:303,76137
DA:304,76137
DA:305,76147
DA:306,76147
DA:307,446
DA:308,446
DA:309,446
DA:310,446
DA:311,76593
DA:312,76593
DA:315,145965
DA:316,145965
DA:317,145965
DA:319,145965
DA:320,65008
DA:321,65008
DA:322,65008
DA:323,65008
DA:325,145965
DA:328,145965
DA:329,0
DA:330,0
DA:331,0
DA:332,0
DA:333,0
DA:334,0
DA:335,0
DA:336,0
DA:337,0
DA:338,0
DA:339,0
DA:341,145965
DA:342,145965
DA:344,145965
DA:345,76611
DA:346,76611
DA:347,76611
DA:348,76611
DA:349,69354
DA:350,69354
DA:351,69354
DA:352,69354
DA:354,145965
DA:355,145965
DA:358,2
DA:359,2
DA:360,2
DA:361,2
DA:362,2
DA:363,1
DA:364,1
DA:365,0
DA:366,40
DA:367,38
DA:368,2
DA:371,4
DA:372,4
DA:373,4
DA:374,4
DA:375,4
DA:376,4
DA:377,4
DA:379,0
DA:380,0
DA:381,0
DA:382,0
DA:383,0
DA:384,0
DA:385,0
DA:386,0
DA:387,0
DA:388,0
DA:389,0
DA:390,0
DA:391,0
DA:392,0
DA:393,0
DA:400,8
DA:401,8
DA:404,8
DA:407,9
DA:408,1
DA:410,8
DA:411,8
DA:413,8
DA:414,8
DA:421,1
DA:423,1
DA:426,1
DA:428,1
BRDA:59,0,0,-
BRDA:59,0,1,-
BRDA:65,0,0,-
BRDA:65,0,1,-
BRDA:68,0,0,-
BRDA:68,0,1,-
BRDA:78,0,0,0
BRDA:78,0,1,38
BRDA:81,0,0,38
BRDA:81,0,1,0
BRDA:87,0,0,-
BRDA:87,0,1,-
BRDA:110,0,0,2
BRDA:110,0,1,0
BRDA:113,0,0,1
BRDA:113,0,1,1
BRDA:140,0,0,1
BRDA:140,0,1,145
BRDA:140,1,2,0
BRDA:140,1,3,1
BRDA:146,0,0,0
BRDA:146,0,1,146
BRDA:248,0,0,1
BRDA:248,0,1,1
BRDA:250,0,0,1
BRDA:250,0,1,1
BRDA:253,0,0,1
BRDA:253,0,1,0
BRDA:261,0,0,-
BRDA:261,0,1,-
BRDA:273,0,0,1
BRDA:273,0,1,0
BRDA:276,0,0,-
BRDA:276,0,1,-
BRDA:292,0,0,65008
BRDA:292,0,1,11585
BRDA:296,0,0,76147
BRDA:296,0,1,446
BRDA:300,0,0,76138
BRDA:300,0,1,9
BRDA:300,1,2,76137
BRDA:300,1,3,1
BRDA:301,0,0,76137
BRDA:301,0,1,0
BRDA:307,0,0,446
BRDA:307,0,1,0
BRDA:319,0,0,65012
BRDA:319,0,1,80953
BRDA:319,1,2,65008
BRDA:319,1,3,4
BRDA:328,0,0,0
BRDA:328,0,1,145965
BRDA:328,1,2,-
BRDA:328,1,3,-
BRDA:330,0,0,-
BRDA:330,0,1,-
BRDA:344,0,0,76611
BRDA:344,0,1,69354
BRDA:362,0,0,1
BRDA:362,0,1,1
BRDA:364,0,0,0
BRDA:364,0,1,1
BRDA:366,0,0,38
BRDA:366,0,1,2
BRDA:373,0,0,4
BRDA:373,0,1,0
BRDA:379,0,0,-
BRDA:379,0,1,-
BRDA:382,0,0,-
BRDA:382,0,1,-
BRDA:383,0,0,-
BRDA:383,0,1,-
BRDA:386,0,0,-
BRDA:386,0,1,-
BRDA:389,0,0,-
BRDA:389,0,1,-
BRDA:390,0,0,-
BRDA:390,0,1,-
BRDA:407,0,0,8
BRDA:407,0,1,1
BRDA:407,1,2,1
BRDA:407,1,3,7
BRDA:411,0,0,8
BRDA:411,0,1,0
BRDA:413,0,0,1
BRDA:413,0,1,7
BRF:86
BRH:45
LF:299
LH:220
end_of_record
SF:/Users/runner/work/Draxul/Draxul/libs/draxul-host/src/terminal_host_base_csi.cpp
FN:28,_ZN6draxul16TerminalHostBase14handle_controlEc
FN:53,_ZN6draxul16TerminalHostBase10handle_escEc
FN:104,_ZN6draxul16TerminalHostBase10handle_csiEcNSt3__117basic_string_viewIcNS1_11char_traitsIcEEEE
FN:185,_ZN6draxul16TerminalHostBase15csi_cursor_moveEcRKNSt3__16vectorIiNS1_9allocatorIiEEEE
FN:281,_ZN6draxul16TerminalHostBase9csi_eraseEcRKNSt3__16vectorIiNS1_9allocatorIiEEEE
FN:306,_ZN6draxul16TerminalHostBase10csi_scrollEcbRKNSt3__16vectorIiNS1_9allocatorIiEEEE
FN:331,_ZN6draxul16TerminalHostBase17csi_insert_deleteEcRKNSt3__16vectorIiNS1_9allocatorIiEEEE
FN:370,_ZN6draxul16TerminalHostBase7csi_sgrERKNSt3__16vectorIiNS1_9allocatorIiEEEE
FN:376,_ZN6draxul16TerminalHostBase8csi_modeEcbRKNSt3__16vectorIiNS1_9allocatorIiEEEE
FN:429,_ZN6draxul16TerminalHostBase7csi_dsrEbRKNSt3__16vectorIiNS1_9allocatorIiEEEE
FN:450,_ZN6draxul16TerminalHostBase6csi_daEbRKNSt3__16vectorIiNS1_9allocatorIiEEEE
FN:466,_ZN6draxul16TerminalHostBase11csi_marginsEbRKNSt3__16vectorIiNS1_9allocatorIiEEEE
FN:546,_ZN6draxul16TerminalHostBase10handle_oscENSt3__117basic_string_viewIcNS1_11char_traitsIcEEEE
FN:581,_ZN6draxul16TerminalHostBase14consume_outputENSt3__117basic_string_viewIcNS1_11char_traitsIcEEEE
FN:18,terminal_host_base_csi.cpp:_ZN12_GLOBAL__N_18param_orERKNSt3__16vectorIiNS0_9allocatorIiEEEEmi
FN:528,terminal_host_base_csi.cpp:_ZN6draxulL17extract_osc7_pathENSt3__117basic_string_viewIcNS0_11char_traitsIcEEEE
FN:492,terminal_host_base_csi.cpp:_ZN6draxulL14percent_decodeENSt3__117basic_string_viewIcNS0_11char_traitsIcEEEE
FN:502,terminal_host_base_csi.cpp:_ZZN6draxulL14percent_decodeENSt3__117basic_string_viewIcNS0_11char_traitsIcEEEEENK3$_0clEc
FNDA:23172,_ZN6draxul16TerminalHostBase14handle_controlEc
FNDA:6,_ZN6draxul16TerminalHostBase10handle_escEc
FNDA:65383,_ZN6draxul16TerminalHostBase10handle_csiEcNSt3__117basic_string_viewIcNS1_11char_traitsIcEEEE
FNDA:37,_ZN6draxul16TerminalHostBase15csi_cursor_moveEcRKNSt3__16vectorIiNS1_9allocatorIiEEEE
FNDA:7,_ZN6draxul16TerminalHostBase9csi_eraseEcRKNSt3__16vectorIiNS1_9allocatorIiEEEE
FNDA:2,_ZN6draxul16TerminalHostBase10csi_scrollEcbRKNSt3__16vectorIiNS1_9allocatorIiEEEE
FNDA:4,_ZN6draxul16TerminalHostBase17csi_insert_deleteEcRKNSt3__16vectorIiNS1_9allocatorIiEEEE
FNDA:65278,_ZN6draxul16TerminalHostBase7csi_sgrERKNSt3__16vectorIiNS1_9allocatorIiEEEE
FNDA:44,_ZN6draxul16TerminalHostBase8csi_modeEcbRKNSt3__16vectorIiNS1_9allocatorIiEEEE
FNDA:0,_ZN6draxul16TerminalHostBase7csi_dsrEbRKNSt3__16vectorIiNS1_9allocatorIiEEEE
FNDA:0,_ZN6draxul16TerminalHostBase6csi_daEbRKNSt3__16vectorIiNS1_9allocatorIiEEEE
FNDA:11,_ZN6draxul16TerminalHostBase11csi_marginsEbRKNSt3__16vectorIiNS1_9allocatorIiEEEE
FNDA:13,_ZN6draxul16TerminalHostBase10handle_oscENSt3__117basic_string_viewIcNS1_11char_traitsIcEEEE
FNDA:76758,_ZN6draxul16TerminalHostBase14consume_outputENSt3__117basic_string_viewIcNS1_11char_traitsIcEEEE
FNDA:113,terminal_host_base_csi.cpp:_ZN12_GLOBAL__N_18param_orERKNSt3__16vectorIiNS0_9allocatorIiEEEEmi
FNDA:10,terminal_host_base_csi.cpp:_ZN6draxulL17extract_osc7_pathENSt3__117basic_string_viewIcNS0_11char_traitsIcEEEE
FNDA:8,terminal_host_base_csi.cpp:_ZN6draxulL14percent_decodeENSt3__117basic_string_viewIcNS0_11char_traitsIcEEEE
FNDA:2,terminal_host_base_csi.cpp:_ZZN6draxulL14percent_decodeENSt3__117basic_string_viewIcNS0_11char_traitsIcEEEEENK3$_0clEc
FNF:18
FNH:16
DA:18,113
DA:19,113
DA:20,113
DA:28,23172
DA:29,23172
DA:30,23172
DA:31,11584
DA:32,11584
DA:33,11584
DA:34,11584
DA:35,11588
DA:36,11585
DA:37,11585
DA:38,11585
DA:39,3
DA:40,1
DA:41,1
DA:42,1
DA:43,1
DA:44,2
DA:45,2
DA:46,2
DA:47,2
DA:48,2
DA:49,23172
DA:50,23172
DA:53,6
DA:54,6
DA:55,6
DA:56,3
DA:57,3
DA:58,3
DA:59,3
DA:60,3
DA:61,3
DA:62,3
DA:63,3
DA:64,3
DA:65,3
DA:66,3
DA:67,3
DA:68,3
DA:69,0
DA:70,0
DA:71,0
DA:72,0
DA:73,0
DA:74,0
DA:75,0
DA:76,0
DA:77,0
DA:78,0
DA:79,0
DA:80,0
DA:81,0
DA:82,0
DA:83,0
DA:84,0
DA:85,0
DA:86,0
DA:87,0
DA:88,0
DA:89,0
DA:90,0
DA:91,0
DA:92,0
DA:93,0
DA:94,0
DA:95,0
DA:96,0
DA:97,0
DA:98,0
DA:99,0
DA:100,0
DA:101,6
DA:104,65383
DA:105,65383
DA:106,65383
DA:107,65383
DA:108,44
DA:110,65383
DA:111,65383
DA:112,325846
DA:113,325846
DA:114,325846
DA:115,325846
DA:116,325846
DA:119,325846
DA:120,325846
DA:121,325836
DA:122,325846
DA:123,325846
DA:124,65383
DA:125,260463
DA:126,260463
DA:128,65383
DA:129,65383
DA:130,1
DA:131,2
DA:132,3
DA:133,4
DA:134,5
DA:135,6
DA:136,13
DA:137,34
DA:138,34
DA:139,34
DA:140,35
DA:141,35
DA:142,36
DA:143,37
DA:144,37
DA:145,37
DA:146,4
DA:147,6
DA:148,7
DA:149,7
DA:150,7
DA:151,1
DA:152,2
DA:153,2
DA:154,2
DA:155,1
DA:156,2
DA:157,3
DA:158,4
DA:159,4
DA:160,4
DA:161,65278
DA:162,65278
DA:163,65278
DA:164,33
DA:165,44
DA:166,44
DA:167,44
DA:168,0
DA:169,0
DA:170,0
DA:171,0
DA:172,0
DA:173,0
DA:174,11
DA:175,11
DA:176,11
DA:177,0
DA:178,0
DA:179,65383
DA:181,65383
DA:182,65383
DA:185,37
DA:186,37
DA:188,37
DA:189,37
DA:190,1
DA:191,1
DA:192,1
DA:193,1
DA:194,1
DA:195,1
DA:196,1
DA:197,1
DA:198,1
DA:199,1
DA:200,1
DA:201,1
DA:202,1
DA:203,1
DA:204,1
DA:205,1
DA:206,1
DA:207,1
DA:208,1
DA:209,1
DA:210,1
DA:211,1
DA:212,1
DA:213,1
DA:214,1
DA:215,1
DA:216,1
DA:217,7
DA:218,7
DA:219,7
DA:220,7
DA:221,21
DA:222,21
DA:223,21
DA:224,21
DA:225,21
DA:226,21
DA:227,1
DA:228,1
DA:229,1
DA:230,1
DA:231,20
DA:232,20
DA:233,20
DA:234,20
DA:235,20
DA:236,21
DA:237,21
DA:238,21
DA:239,21
DA:240,21
DA:241,21
DA:242,21
DA:243,0
DA:244,0
DA:245,0
DA:246,0
DA:247,0
DA:248,0
DA:249,0
DA:250,21
DA:251,0
DA:252,0
DA:253,0
DA:254,0
DA:255,0
DA:256,0
DA:257,0
DA:258,0
DA:259,0
DA:260,0
DA:261,21
DA:262,1
DA:263,1
DA:264,1
DA:265,1
DA:266,1
DA:267,1
DA:268,1
DA:269,1
DA:270,1
DA:271,1
DA:272,1
DA:273,1
DA:274,1
DA:275,0
DA:276,0
DA:277,37
DA:278,37
DA:281,7
DA:282,7
DA:284,7
DA:285,7
DA:286,4
DA:287,4
DA:288,4
DA:289,2
DA:290,2
DA:291,2
DA:292,1
DA:293,1
DA:294,1
DA:295,1
DA:296,4
DA:297,3
DA:298,1
DA:299,0
DA:300,0
DA:301,0
DA:302,7
DA:303,7
DA:306,2
DA:307,2
DA:309,2
DA:310,2
DA:311,1
DA:312,1
DA:313,1
DA:314,1
DA:315,1
DA:316,1
DA:317,0
DA:318,1
DA:319,1
DA:320,1
DA:321,1
DA:322,1
DA:323,1
DA:324,0
DA:325,0
DA:326,0
DA:327,2
DA:328,2
DA:331,4
DA:332,4
DA:334,4
DA:335,4
DA:336,1
DA:337,1
DA:338,1
DA:339,1
DA:340,1
DA:341,1
DA:342,1
DA:343,0
DA:344,1
DA:345,1
DA:346,1
DA:347,1
DA:348,1
DA:349,1
DA:350,1
DA:351,0
DA:352,1
DA:353,1
DA:354,1
DA:355,1
DA:356,1
DA:357,0
DA:358,1
DA:359,1
DA:360,1
DA:361,1
DA:362,1
DA:363,0
DA:364,0
DA:365,0
DA:366,4
DA:367,4
DA:370,65278
DA:371,65278
DA:372,65278
DA:373,65278
DA:376,44
DA:377,44
DA:378,44
DA:379,0
DA:381,44
DA:382,44
DA:383,44
DA:384,44
DA:385,44
DA:386,3
DA:387,3
DA:388,3
DA:389,2
DA:390,2
DA:391,2
DA:392,2
DA:393,2
DA:394,2
DA:395,2
DA:396,2
DA:397,2
DA:398,3
DA:399,3
DA:400,3
DA:401,2
DA:402,2
DA:403,2
DA:404,2
DA:405,0
DA:406,0
DA:407,11
DA:408,11
DA:409,7
DA:410,4
DA:411,4
DA:412,11
DA:413,6
DA:414,11
DA:415,15
DA:416,19
DA:417,19
DA:418,19
DA:419,4
DA:420,4
DA:421,4
DA:422,0
DA:423,0
DA:424,44
DA:425,44
DA:426,44
DA:429,0
DA:430,0
DA:431,0
DA:432,0
DA:433,0
DA:434,0
DA:435,0
DA:437,0
DA:438,0
DA:439,0
DA:440,0
DA:441,0
DA:442,0
DA:443,0
DA:445,0
DA:446,0
DA:447,0
DA:450,0
DA:451,0
DA:452,0
DA:453,0
DA:454,0
DA:456,0
DA:457,0
DA:458,0
DA:459,0
DA:461,0
DA:462,0
DA:463,0
DA:466,11
DA:467,11
DA:470,11
DA:471,11
DA:472,11
DA:473,11
DA:474,11
DA:475,10
DA:476,10
DA:477,10
DA:478,10
DA:479,11
DA:480,11
DA:481,11
DA:482,11
DA:483,11
DA:484,11
DA:485,11
DA:486,11
DA:487,11
DA:492,8
DA:493,8
DA:494,8
DA:495,8
DA:496,98
DA:497,90
DA:498,90
DA:499,1
DA:500,1
DA:501,1
DA:502,2
DA:503,2
DA:504,2
DA:505,0
DA:506,0
DA:507,0
DA:508,0
DA:509,0
DA:510,0
DA:511,1
DA:512,1
DA:513,1
DA:514,1
DA:515,1
DA:516,1
DA:517,1
DA:518,1
DA:519,1
DA:520,89
DA:521,89
DA:522,8
DA:523,8
DA:528,10
DA:529,10
DA:531,10
DA:532,10
DA:533,2
DA:534,8
DA:537,8
DA:538,8
DA:539,0
DA:540,8
DA:542,8
DA:543,8
DA:546,13
DA:547,13
DA:548,13
DA:549,13
DA:550,0
DA:552,13
DA:553,13
DA:555,13
DA:556,2
DA:557,2
DA:558,2
DA:559,11
DA:560,11
DA:561,11
DA:562,1
DA:563,1
DA:564,1
DA:565,1
DA:566,10
DA:567,10
DA:568,8
DA:569,8
DA:570,8
DA:571,8
DA:572,2
DA:573,2
DA:574,2
DA:575,2
DA:576,2
DA:577,10
DA:578,13
DA:581,76758
DA:582,76758
DA:583,76758
DA:584,76758
DA:585,76758
BRDA:19,0,0,108
BRDA:19,0,1,5
BRDA:19,1,2,95
BRDA:19,1,3,13
BRDA:30,0,0,11584
BRDA:30,0,1,11588
BRDA:35,0,0,11585
BRDA:35,0,1,3
BRDA:39,0,0,1
BRDA:39,0,1,2
BRDA:44,0,0,2
BRDA:44,0,1,0
BRDA:55,0,0,3
BRDA:55,0,1,3
BRDA:61,0,0,3
BRDA:61,0,1,0
BRDA:69,0,0,-
BRDA:69,0,1,-
BRDA:72,0,0,-
BRDA:72,0,1,-
BRDA:76,0,0,-
BRDA:76,0,1,-
BRDA:83,0,0,-
BRDA:83,0,1,-
BRDA:86,0,0,-
BRDA:86,0,1,-
BRDA:90,0,0,-
BRDA:90,0,1,-
BRDA:106,0,0,65373
BRDA:106,0,1,10
BRDA:106,1,2,44
BRDA:106,1,3,65329
BRDA:107,0,0,44
BRDA:107,0,1,65339
BRDA:112,0,0,325846
BRDA:112,0,1,0
BRDA:116,0,0,65383
BRDA:116,0,1,260463
BRDA:120,0,0,325836
BRDA:120,0,1,10
BRDA:123,0,0,65383
BRDA:123,0,1,260463
BRDA:130,0,0,1
BRDA:130,0,1,65382
BRDA:131,0,0,1
BRDA:131,0,1,65382
BRDA:132,0,0,1
BRDA:132,0,1,65382
BRDA:133,0,0,1
BRDA:133,0,1,65382
BRDA:134,0,0,1
BRDA:134,0,1,65382
BRDA:135,0,0,1
BRDA:135,0,1,65382
BRDA:136,0,0,7
BRDA:136,0,1,65376
BRDA:137,0,0,21
BRDA:137,0,1,65362
BRDA:138,0,0,0
BRDA:138,0,1,65383
BRDA:139,0,0,0
BRDA:139,0,1,65383
BRDA:140,0,0,1
BRDA:140,0,1,65382
BRDA:141,0,0,0
BRDA:141,0,1,65383
BRDA:142,0,0,1
BRDA:142,0,1,65382
BRDA:143,0,0,1
BRDA:143,0,1,65382
BRDA:146,0,0,4
BRDA:146,0,1,65379
BRDA:147,0,0,2
BRDA:147,0,1,65381
BRDA:148,0,0,1
BRDA:148,0,1,65382
BRDA:151,0,0,1
BRDA:151,0,1,65382
BRDA:152,0,0,1
BRDA:152,0,1,65382
BRDA:155,0,0,1
BRDA:155,0,1,65382
BRDA:156,0,0,1
BRDA:156,0,1,65382
BRDA:157,0,0,1
BRDA:157,0,1,65382
BRDA:158,0,0,1
BRDA:158,0,1,65382
BRDA:161,0,0,65278
BRDA:161,0,1,105
BRDA:164,0,0,33
BRDA:164,0,1,65350
BRDA:165,0,0,11
BRDA:165,0,1,65372
BRDA:168,0,0,0
BRDA:168,0,1,65383
BRDA:171,0,0,0
BRDA:171,0,1,65383
BRDA:174,0,0,11
BRDA:174,0,1,65372
BRDA:177,0,0,0
BRDA:177,0,1,65383
BRDA:190,0,0,1
BRDA:190,0,1,36
BRDA:191,0,0,0
BRDA:191,0,1,1
BRDA:194,0,0,1
BRDA:194,0,1,36
BRDA:195,0,0,0
BRDA:195,0,1,1
BRDA:199,0,0,1
BRDA:199,0,1,36
BRDA:203,0,0,1
BRDA:203,0,1,36
BRDA:207,0,0,1
BRDA:207,0,1,36
BRDA:212,0,0,1
BRDA:212,0,1,36
BRDA:217,0,0,7
BRDA:217,0,1,30
BRDA:221,0,0,21
BRDA:221,0,1,16
BRDA:222,0,0,0
BRDA:222,0,1,37
BRDA:226,0,0,1
BRDA:226,0,1,20
BRDA:243,0,0,0
BRDA:243,0,1,37
BRDA:246,0,0,-
BRDA:246,0,1,-
BRDA:251,0,0,0
BRDA:251,0,1,37
BRDA:254,0,0,-
BRDA:254,0,1,-
BRDA:262,0,0,1
BRDA:262,0,1,36
BRDA:266,0,0,1
BRDA:266,0,1,36
BRDA:270,0,0,1
BRDA:270,0,1,36
BRDA:275,0,0,0
BRDA:275,0,1,37
BRDA:286,0,0,4
BRDA:286,0,1,3
BRDA:289,0,0,2
BRDA:289,0,1,5
BRDA:292,0,0,1
BRDA:292,0,1,6
BRDA:296,0,0,3
BRDA:296,0,1,1
BRDA:300,0,0,0
BRDA:300,0,1,7
BRDA:311,0,0,1
BRDA:311,0,1,1
BRDA:314,0,0,1
BRDA:314,0,1,0
BRDA:318,0,0,1
BRDA:318,0,1,1
BRDA:321,0,0,1
BRDA:321,0,1,0
BRDA:325,0,0,0
BRDA:325,0,1,2
BRDA:336,0,0,1
BRDA:336,0,1,3
BRDA:339,0,0,1
BRDA:339,0,1,0
BRDA:339,1,2,1
BRDA:339,1,3,0
BRDA:344,0,0,1
BRDA:344,0,1,3
BRDA:347,0,0,1
BRDA:347,0,1,0
BRDA:347,1,2,1
BRDA:347,1,3,0
BRDA:352,0,0,1
BRDA:352,0,1,3
BRDA:358,0,0,1
BRDA:358,0,1,3
BRDA:364,0,0,0
BRDA:364,0,1,4
BRDA:378,0,0,0
BRDA:378,0,1,44
BRDA:382,0,0,44
BRDA:382,0,1,44
BRDA:386,0,0,3
BRDA:386,0,1,41
BRDA:389,0,0,2
BRDA:389,0,1,42
BRDA:391,0,0,1
BRDA:391,0,1,1
BRDA:394,0,0,1
BRDA:394,0,1,1
BRDA:398,0,0,3
BRDA:398,0,1,41
BRDA:401,0,0,2
BRDA:401,0,1,42
BRDA:405,0,0,0
BRDA:405,0,1,44
BRDA:406,0,0,0
BRDA:406,0,1,44
BRDA:407,0,0,11
BRDA:407,0,1,33
BRDA:408,0,0,7
BRDA:408,0,1,4
BRDA:413,0,0,6
BRDA:413,0,1,38
BRDA:414,0,0,5
BRDA:414,0,1,39
BRDA:415,0,0,4
BRDA:415,0,1,40
BRDA:416,0,0,4
BRDA:416,0,1,40
BRDA:419,0,0,4
BRDA:419,0,1,40
BRDA:422,0,0,0
BRDA:422,0,1,44
BRDA:431,0,0,-
BRDA:431,0,1,-
BRDA:433,0,0,-
BRDA:433,0,1,-
BRDA:434,0,0,-
BRDA:434,0,1,-
BRDA:439,0,0,-
BRDA:439,0,1,-
BRDA:442,0,0,-
BRDA:442,0,1,-
BRDA:452,0,0,-
BRDA:452,0,1,-
BRDA:453,0,0,-
BRDA:453,0,1,-
BRDA:453,1,2,-
BRDA:453,1,3,-
BRDA:458,0,0,-
BRDA:458,0,1,-
BRDA:458,1,2,-
BRDA:458,1,3,-
BRDA:470,0,0,11
BRDA:470,0,1,0
BRDA:474,0,0,10
BRDA:474,0,1,1
BRDA:479,0,0,0
BRDA:479,0,1,11
BRDA:496,0,0,90
BRDA:496,0,1,8
BRDA:498,0,0,1
BRDA:498,0,1,89
BRDA:498,1,2,1
BRDA:498,1,3,0
BRDA:503,0,0,2
BRDA:503,0,1,0
BRDA:503,1,2,2
BRDA:503,1,3,0
BRDA:505,0,0,-
BRDA:505,0,1,-
BRDA:505,1,2,-
BRDA:505,1,3,-
BRDA:507,0,0,-
BRDA:507,0,1,-
BRDA:507,1,2,-
BRDA:507,1,3,-
BRDA:513,0,0,1
BRDA:513,0,1,0
BRDA:513,1,2,1
BRDA:513,1,3,0
BRDA:532,0,0,2
BRDA:532,0,1,8
BRDA:538,0,0,0
BRDA:538,0,1,8
BRDA:549,0,0,0
BRDA:549,0,1,13
BRDA:555,0,0,2
BRDA:555,0,1,11
BRDA:555,1,2,0
BRDA:555,1,3,11
BRDA:559,0,0,11
BRDA:559,0,1,0
BRDA:561,0,0,1
BRDA:561,0,1,10
BRDA:567,0,0,8
BRDA:567,0,1,2
BRF:280
BRH:197
LF:514
LH:400
end_of_record
SF:/Users/runner/work/Draxul/Draxul/libs/draxul-host/src/terminal_key_encoder.cpp
FN:11,_ZN6draxul19encode_terminal_keyERKNS_8KeyEventERKNS_7VtStateE
FNDA:353,_ZN6draxul19encode_terminal_keyERKNS_8KeyEventERKNS_7VtStateE
FNF:1
FNH:1
DA:11,353
DA:12,353
DA:13,353
DA:14,26
DA:16,327
DA:18,327
DA:19,327
DA:20,2
DA:21,2
DA:22,2
DA:23,2
DA:24,2
DA:25,2
DA:26,2
DA:27,2
DA:28,4
DA:29,4
DA:30,4
DA:31,4
DA:32,4
DA:33,4
DA:34,4
DA:35,4
DA:36,2
DA:37,2
DA:38,2
DA:39,2
DA:40,2
DA:41,2
DA:42,2
DA:43,2
DA:44,2
DA:45,2
DA:46,2
DA:47,2
DA:48,5
DA:49,5
DA:50,5
DA:51,5
DA:52,5
DA:53,5
DA:54,5
DA:55,5
DA:56,5
DA:57,5
DA:58,5
DA:59,5
DA:60,5
DA:61,5
DA:62,5
DA:63,5
DA:64,5
DA:65,5
DA:66,5
DA:67,5
DA:68,5
DA:69,5
DA:70,5
DA:71,5
DA:72,231
DA:73,231
DA:74,327
DA:78,231
DA:79,99
DA:80,99
DA:81,99
DA:82,99
DA:84,132
DA:85,231
BRDA:13,0,0,38
BRDA:13,0,1,315
BRDA:13,1,2,38
BRDA:13,1,3,0
BRDA:13,2,4,26
BRDA:13,2,5,12
BRDA:20,0,0,2
BRDA:20,0,1,325
BRDA:22,0,0,2
BRDA:22,0,1,325
BRDA:24,0,0,2
BRDA:24,0,1,325
BRDA:26,0,0,2
BRDA:26,0,1,325
BRDA:28,0,0,4
BRDA:28,0,1,323
BRDA:29,0,0,1
BRDA:29,0,1,3
BRDA:30,0,0,4
BRDA:30,0,1,323
BRDA:31,0,0,1
BRDA:31,0,1,3
BRDA:32,0,0,4
BRDA:32,0,1,323
BRDA:33,0,0,1
BRDA:33,0,1,3
BRDA:34,0,0,4
BRDA:34,0,1,323
BRDA:35,0,0,1
BRDA:35,0,1,3
BRDA:36,0,0,2
BRDA:36,0,1,325
BRDA:38,0,0,2
BRDA:38,0,1,325
BRDA:40,0,0,2
BRDA:40,0,1,325
BRDA:42,0,0,2
BRDA:42,0,1,325
BRDA:44,0,0,2
BRDA:44,0,1,325
BRDA:46,0,0,2
BRDA:46,0,1,325
BRDA:48,0,0,5
BRDA:48,0,1,322
BRDA:50,0,0,5
BRDA:50,0,1,322
BRDA:52,0,0,5
BRDA:52,0,1,322
BRDA:54,0,0,5
BRDA:54,0,1,322
BRDA:56,0,0,5
BRDA:56,0,1,322
BRDA:58,0,0,5
BRDA:58,0,1,322
BRDA:60,0,0,5
BRDA:60,0,1,322
BRDA:62,0,0,5
BRDA:62,0,1,322
BRDA:64,0,0,5
BRDA:64,0,1,322
BRDA:66,0,0,5
BRDA:66,0,1,322
BRDA:68,0,0,5
BRDA:68,0,1,322
BRDA:70,0,0,5
BRDA:70,0,1,322
BRDA:72,0,0,231
BRDA:72,0,1,96
BRDA:78,0,0,99
BRDA:78,0,1,132
BRDA:78,1,2,99
BRDA:78,1,3,0
BRDA:78,2,4,99
BRDA:78,2,5,0
BRF:74
BRH:71
LF:69
LH:69
end_of_record
SF:/Users/runner/work/Draxul/Draxul/libs/draxul-host/src/terminal_sgr.cpp
FN:151,_ZN6draxul9apply_sgrERNS_6HlAttrERKNSt3__16vectorIiNS2_9allocatorIiEEEE
FN:76,terminal_sgr.cpp:_ZN6draxul12_GLOBAL__N_115apply_basic_sgrERNS_6HlAttrEi
FN:62,terminal_sgr.cpp:_ZN6draxul12_GLOBAL__N_19set_colorERNS_6HlAttrEbN3glm3vecILi4EfLNS3_9qualifierE0EEE
FN:16,terminal_sgr.cpp:_ZN6draxul12_GLOBAL__N_110ansi_colorEi
FN:126,terminal_sgr.cpp:_ZN6draxul12_GLOBAL__N_124try_apply_extended_colorERNS_6HlAttrEbRKNSt3__16vectorIiNS3_9allocatorIiEEEEm
FN:39,terminal_sgr.cpp:_ZN6draxul12_GLOBAL__N_111xterm_colorEi
FN:50,terminal_sgr.cpp:_ZZN6draxul12_GLOBAL__N_111xterm_colorEiENK3$_0clEi
FNDA:65352,_ZN6draxul9apply_sgrERNS_6HlAttrERKNSt3__16vectorIiNS2_9allocatorIiEEEE
FNDA:65376,terminal_sgr.cpp:_ZN6draxul12_GLOBAL__N_115apply_basic_sgrERNS_6HlAttrEi
FNDA:65314,terminal_sgr.cpp:_ZN6draxul12_GLOBAL__N_19set_colorERNS_6HlAttrEbN3glm3vecILi4EfLNS3_9qualifierE0EEE
FNDA:87,terminal_sgr.cpp:_ZN6draxul12_GLOBAL__N_110ansi_colorEi
FNDA:65238,terminal_sgr.cpp:_ZN6draxul12_GLOBAL__N_124try_apply_extended_colorERNS_6HlAttrEbRKNSt3__16vectorIiNS3_9allocatorIiEEEEm
FNDA:226,terminal_sgr.cpp:_ZN6draxul12_GLOBAL__N_111xterm_colorEi
FNDA:639,terminal_sgr.cpp:_ZZN6draxul12_GLOBAL__N_111xterm_colorEiENK3$_0clEi
FNF:7
FNH:7
DA:16,87
DA:17,87
DA:18,87
DA:19,87
DA:20,87
DA:21,87
DA:22,87
DA:23,87
DA:24,87
DA:25,87
DA:26,87
DA:27,87
DA:28,87
DA:29,87
DA:30,87
DA:31,87
DA:32,87
DA:33,87
DA:34,87
DA:35,87
DA:36,87
DA:39,226
DA:40,226
DA:41,226
DA:42,8
DA:44,218
DA:45,213
DA:46,213
DA:47,213
DA:48,213
DA:49,213
DA:50,639
DA:51,639
DA:52,639
DA:53,639
DA:54,213
DA:55,213
DA:57,5
DA:58,5
DA:59,218
DA:62,65314
DA:63,65314
DA:64,65284
DA:65,65284
DA:66,65284
DA:67,65284
DA:68,30
DA:69,30
DA:70,30
DA:71,30
DA:72,30
DA:73,65314
DA:76,65376
DA:77,65376
DA:78,65376
DA:79,65376
DA:80,10
DA:81,10
DA:82,10
DA:83,9
DA:84,9
DA:85,9
DA:86,8
DA:87,8
DA:88,8
DA:89,6
DA:90,6
DA:91,6
DA:92,2
DA:93,2
DA:94,2
DA:95,5
DA:96,5
DA:97,5
DA:98,3
DA:99,3
DA:100,3
DA:101,3
DA:102,3
DA:103,3
DA:104,2
DA:105,2
DA:106,2
DA:107,1
DA:108,1
DA:109,1
DA:110,2
DA:111,2
DA:112,2
DA:113,2
DA:114,2
DA:115,2
DA:116,2
DA:117,2
DA:118,2
DA:119,65321
DA:120,65321
DA:121,65376
DA:122,65376
DA:126,65238
DA:127,65238
DA:128,65238
DA:129,1
DA:130,65237
DA:131,226
DA:132,226
DA:133,226
DA:134,226
DA:135,65011
DA:136,65009
DA:137,65009
DA:138,65009
DA:139,65009
DA:140,65009
DA:141,65009
DA:142,65009
DA:143,65009
DA:144,65009
DA:145,2
DA:146,65011
DA:151,65352
DA:152,65352
DA:153,65352
DA:154,130728
DA:155,65376
DA:156,65376
DA:157,65376
DA:158,55
DA:159,65321
DA:160,44
DA:161,65277
DA:162,13
DA:163,65264
DA:164,12
DA:165,65252
DA:166,10
DA:167,65242
DA:168,65238
DA:169,65321
DA:170,65352
BRDA:41,0,0,8
BRDA:41,0,1,218
BRDA:44,0,0,213
BRDA:44,0,1,5
BRDA:63,0,0,65284
BRDA:63,0,1,30
BRDA:80,0,0,10
BRDA:80,0,1,65366
BRDA:83,0,0,9
BRDA:83,0,1,65367
BRDA:86,0,0,8
BRDA:86,0,1,65368
BRDA:89,0,0,6
BRDA:89,0,1,65370
BRDA:92,0,0,2
BRDA:92,0,1,65374
BRDA:95,0,0,5
BRDA:95,0,1,65371
BRDA:98,0,0,3
BRDA:98,0,1,65373
BRDA:101,0,0,3
BRDA:101,0,1,65373
BRDA:104,0,0,2
BRDA:104,0,1,65374
BRDA:107,0,0,1
BRDA:107,0,1,65375
BRDA:110,0,0,2
BRDA:110,0,1,65374
BRDA:113,0,0,2
BRDA:113,0,1,65374
BRDA:116,0,0,2
BRDA:116,0,1,65374
BRDA:119,0,0,65321
BRDA:119,0,1,55
BRDA:128,0,0,1
BRDA:128,0,1,65237
BRDA:130,0,0,227
BRDA:130,0,1,65010
BRDA:130,1,2,226
BRDA:130,1,3,1
BRDA:135,0,0,65010
BRDA:135,0,1,1
BRDA:135,1,2,65009
BRDA:135,1,3,1
BRDA:153,0,0,1
BRDA:153,0,1,65351
BRDA:154,0,0,65376
BRDA:154,0,1,65352
BRDA:157,0,0,55
BRDA:157,0,1,65321
BRDA:159,0,0,65319
BRDA:159,0,1,2
BRDA:159,1,2,44
BRDA:159,1,3,65275
BRDA:161,0,0,44
BRDA:161,0,1,65233
BRDA:161,1,2,13
BRDA:161,1,3,31
BRDA:163,0,0,23
BRDA:163,0,1,65241
BRDA:163,1,2,12
BRDA:163,1,3,11
BRDA:165,0,0,11
BRDA:165,0,1,65241
BRDA:165,1,2,10
BRDA:165,1,3,1
BRDA:167,0,0,65231
BRDA:167,0,1,11
BRDA:167,1,2,7
BRDA:167,1,3,4
BRF:70
BRH:70
LF:144
LH:144
end_of_record
SF:/Users/runner/work/Draxul/Draxul/libs/draxul-host/src/unix_pty_process.cpp
FN:26,_ZN6draxul14UnixPtyProcessD2Ev
FN:33,_ZN6draxul14UnixPtyProcess5spawnERKNSt3__112basic_stringIcNS1_11char_traitsIcEENS1_9allocatorIcEEEERKNS1_6vectorIS7_NS5_IS7_EEEES9_NS1_8functionIFvvEEEii
FN:118,_ZN6draxul14UnixPtyProcess8shutdownEv
FN:209,_ZN6draxul14UnixPtyProcess13request_closeEv
FN:221,_ZNK6draxul14UnixPtyProcess10is_runningEv
FN:229,_ZNK6draxul14UnixPtyProcess6resizeEii
FN:240,_ZNK6draxul14UnixPtyProcess5writeENSt3__117basic_string_viewIcNS1_11char_traitsIcEEEE
FN:264,_ZN6draxul14UnixPtyProcess12drain_outputEv
FN:273,_ZN6draxul14UnixPtyProcess11reader_mainEv
FN:113,unix_pty_process.cpp:_ZZN6draxul14UnixPtyProcess5spawnERKNSt3__112basic_stringIcNS1_11char_traitsIcEENS1_9allocatorIcEEEERKNS1_6vectorIS7_NS5_IS7_EEEES9_NS1_8functionIFvvEEEiiENK3$_0clEv
FNDA:0,_ZN6draxul14UnixPtyProcessD2Ev
FNDA:0,_ZN6draxul14UnixPtyProcess5spawnERKNSt3__112basic_stringIcNS1_11char_traitsIcEENS1_9allocatorIcEEEERKNS1_6vectorIS7_NS5_IS7_EEEES9_NS1_8functionIFvvEEEii
FNDA:0,_ZN6draxul14UnixPtyProcess8shutdownEv
FNDA:0,_ZN6draxul14UnixPtyProcess13request_closeEv
FNDA:0,_ZNK6draxul14UnixPtyProcess10is_runningEv
FNDA:0,_ZNK6draxul14UnixPtyProcess6resizeEii
FNDA:0,_ZNK6draxul14UnixPtyProcess5writeENSt3__117basic_string_viewIcNS1_11char_traitsIcEEEE
FNDA:0,_ZN6draxul14UnixPtyProcess12drain_outputEv
FNDA:0,_ZN6draxul14UnixPtyProcess11reader_mainEv
FNDA:0,unix_pty_process.cpp:_ZZN6draxul14UnixPtyProcess5spawnERKNSt3__112basic_stringIcNS1_11char_traitsIcEENS1_9allocatorIcEEEERKNS1_6vectorIS7_NS5_IS7_EEEES9_NS1_8functionIFvvEEEiiENK3$_0clEv
FNF:10
FNH:0
DA:26,0
DA:27,0
DA:28,0
DA:33,0
DA:34,0
DA:35,0
DA:39,0
DA:42,0
DA:43,0
DA:44,0
DA:45,0
DA:47,0
DA:48,0
DA:49,0
DA:51,0
DA:52,0
DA:53,0
DA:54,0
DA:55,0
DA:56,0
DA:57,0
DA:58,0
DA:60,0
DA:61,0
DA:62,0
DA:63,0
DA:64,0
DA:65,0
DA:66,0
DA:67,0
DA:68,0
DA:69,0
DA:70,0
DA:72,0
DA:73,0
DA:75,0
DA:76,0
DA:77,0
DA:78,0
DA:80,0
DA:81,0
DA:83,0
DA:84,0
DA:85,0
DA:86,0
DA:87,0
DA:89,0
DA:90,0
DA:95,0
DA:96,0
DA:97,0
DA:99,0
DA:100,0
DA:101,0
DA:102,0
DA:103,0
DA:105,0
DA:106,0
DA:107,0
DA:110,0
DA:111,0
DA:112,0
DA:113,0
DA:114,0
DA:115,0
DA:118,0
DA:119,0
DA:120,0
DA:123,0
DA:124,0
DA:125,0
DA:126,0
DA:136,0
DA:137,0
DA:138,0
DA:141,0
DA:142,0
DA:143,0
DA:144,0
DA:147,0
DA:148,0
DA:149,0
DA:150,0
DA:151,0
DA:152,0
DA:153,0
DA:154,0
DA:155,0
DA:156,0
DA:157,0
DA:158,0
DA:163,0
DA:164,0
DA:165,0
DA:166,0
DA:167,0
DA:168,0
DA:172,0
DA:173,0
DA:174,0
DA:175,0
DA:176,0
DA:177,0
DA:178,0
DA:179,0
DA:181,0
DA:182,0
DA:186,0
DA:187,0
DA:189,0
DA:190,0
DA:191,0
DA:192,0
DA:193,0
DA:195,0
DA:196,0
DA:197,0
DA:198,0
DA:199,0
DA:200,0
DA:201,0
DA:202,0
DA:204,0
DA:205,0
DA:206,0
DA:209,0
DA:210,0
DA:211,0
DA:216,0
DA:217,0
DA:218,0
DA:221,0
DA:222,0
DA:223,0
DA:224,0
DA:225,0
DA:226,0
DA:229,0
DA:230,0
DA:231,0
DA:232,0
DA:233,0
DA:234,0
DA:235,0
DA:236,0
DA:237,0
DA:240,0
DA:241,0
DA:242,0
DA:243,0
DA:244,0
DA:245,0
DA:246,0
DA:247,0
DA:248,0
DA:249,0
DA:250,0
DA:251,0
DA:252,0
DA:253,0
DA:254,0
DA:255,0
DA:256,0
DA:257,0
DA:258,0
DA:259,0
DA:260,0
DA:261,0
DA:264,0
DA:265,0
DA:266,0
DA:267,0
DA:268,0
DA:269,0
DA:270,0
DA:273,0
DA:274,0
DA:275,0
DA:277,0
DA:278,0
DA:279,0
DA:280,0
DA:281,0
DA:283,0
DA:284,0
DA:285,0
DA:286,0
DA:287,0
DA:288,0
DA:289,0
DA:290,0
DA:291,0
DA:292,0
DA:293,0
DA:296,0
DA:297,0
DA:300,0
DA:301,0
DA:303,0
DA:304,0
DA:305,0
DA:306,0
DA:307,0
DA:309,0
DA:310,0
DA:311,0
DA:312,0
DA:314,0
DA:315,0
DA:316,0
DA:317,0
DA:318,0
BRDA:42,0,0,-
BRDA:42,0,1,-
BRDA:52,0,0,-
BRDA:52,0,1,-
BRDA:61,0,0,-
BRDA:61,0,1,-
BRDA:72,0,0,-
BRDA:72,0,1,-
BRDA:80,0,0,-
BRDA:80,0,1,-
BRDA:86,0,0,-
BRDA:86,0,1,-
BRDA:89,0,0,-
BRDA:89,0,1,-
BRDA:89,1,2,-
BRDA:89,1,3,-
BRDA:97,0,0,-
BRDA:97,0,1,-
BRDA:101,0,0,-
BRDA:101,0,1,-
BRDA:123,0,0,-
BRDA:123,0,1,-
BRDA:136,0,0,-
BRDA:136,0,1,-
BRDA:138,0,0,-
BRDA:138,0,1,-
BRDA:143,0,0,-
BRDA:143,0,1,-
BRDA:143,1,2,-
BRDA:143,1,3,-
BRDA:149,0,0,-
BRDA:149,0,1,-
BRDA:152,0,0,-
BRDA:152,0,1,-
BRDA:152,1,2,-
BRDA:152,1,3,-
BRDA:152,2,4,-
BRDA:152,2,5,-
BRDA:163,0,0,-
BRDA:163,0,1,-
BRDA:163,1,2,-
BRDA:163,1,3,-
BRDA:165,0,0,-
BRDA:165,0,1,-
BRDA:172,0,0,-
BRDA:172,0,1,-
BRDA:175,0,0,-
BRDA:175,0,1,-
BRDA:175,1,2,-
BRDA:175,1,3,-
BRDA:175,2,4,-
BRDA:175,2,5,-
BRDA:186,0,0,-
BRDA:186,0,1,-
BRDA:189,0,0,-
BRDA:189,0,1,-
BRDA:195,0,0,-
BRDA:195,0,1,-
BRDA:197,0,0,-
BRDA:197,0,1,-
BRDA:216,0,0,-
BRDA:216,0,1,-
BRDA:222,0,0,-
BRDA:222,0,1,-
BRDA:231,0,0,-
BRDA:231,0,1,-
BRDA:242,0,0,-
BRDA:242,0,1,-
BRDA:246,0,0,-
BRDA:246,0,1,-
BRDA:249,0,0,-
BRDA:249,0,1,-
BRDA:251,0,0,-
BRDA:251,0,1,-
BRDA:255,0,0,-
BRDA:255,0,1,-
BRDA:283,0,0,-
BRDA:283,0,1,-
BRDA:286,0,0,-
BRDA:286,0,1,-
BRDA:288,0,0,-
BRDA:288,0,1,-
BRDA:292,0,0,-
BRDA:292,0,1,-
BRDA:296,0,0,-
BRDA:296,0,1,-
BRDA:300,0,0,-
BRDA:300,0,1,-
BRDA:303,0,0,-
BRDA:303,0,1,-
BRDA:306,0,0,-
BRDA:306,0,1,-
BRDA:314,0,0,-
BRDA:314,0,1,-
BRF:94
BRH:0
LF:211
LH:0
end_of_record
SF:/Users/runner/work/Draxul/Draxul/libs/draxul-host/src/vt_parser.cpp
FN:66,_ZN6draxul8VtParserC2ENS0_9CallbacksE
FN:71,_ZN6draxul8VtParser4feedENSt3__117basic_string_viewIcNS1_11char_traitsIcEEEE
FN:177,_ZN6draxul8VtParser5resetEv
FN:186,_ZN6draxul8VtParser16flush_plain_textEv
FN:33,vt_parser.cpp:_ZN6draxul12_GLOBAL__N_115consume_clusterENSt3__117basic_string_viewIcNS1_11char_traitsIcEEEERm
FN:14,vt_parser.cpp:_ZN6draxul12_GLOBAL__N_122has_complete_codepointENSt3__117basic_string_viewIcNS1_11char_traitsIcEEEEm
FNDA:10477,_ZN6draxul8VtParserC2ENS0_9CallbacksE
FNDA:97825,_ZN6draxul8VtParser4feedENSt3__117basic_string_viewIcNS1_11char_traitsIcEEEE
FNDA:155,_ZN6draxul8VtParser5resetEv
FNDA:435638,_ZN6draxul8VtParser16flush_plain_textEv
FNDA:340580,vt_parser.cpp:_ZN6draxul12_GLOBAL__N_115consume_clusterENSt3__117basic_string_viewIcNS1_11char_traitsIcEEEERm
FNDA:340580,vt_parser.cpp:_ZN6draxul12_GLOBAL__N_122has_complete_codepointENSt3__117basic_string_viewIcNS1_11char_traitsIcEEEEm
FNF:6
FNH:6
DA:14,340580
DA:15,340580
DA:16,340580
DA:17,0
DA:19,340580
DA:20,340580
DA:21,15898
DA:23,330210
DA:24,128070
DA:25,128070
DA:26,128070
DA:27,122542
DA:28,128070
DA:29,202140
DA:30,324682
DA:33,340580
DA:34,340580
DA:35,340580
DA:36,138440
DA:38,202140
DA:39,202140
DA:40,202140
DA:41,202140
DA:43,202140
DA:44,0
DA:45,0
DA:46,0
DA:48,0
DA:49,0
DA:50,0
DA:51,0
DA:52,0
DA:53,0
DA:54,0
DA:55,0
DA:56,0
DA:57,0
DA:58,0
DA:60,202140
DA:61,340580
DA:66,10477
DA:67,10477
DA:68,10477
DA:71,97825
DA:72,97825
DA:73,97825
DA:74,1451768
DA:75,1451768
DA:76,1451768
DA:77,435638
DA:78,435638
DA:79,65929
DA:80,65929
DA:81,65929
DA:82,65929
DA:83,369709
DA:84,36323
DA:85,36323
DA:86,36323
DA:87,36323
DA:88,333386
DA:89,333386
DA:90,333386
DA:91,1
DA:92,1
DA:93,1
DA:94,1
DA:95,1
DA:96,1
DA:97,333386
DA:98,333386
DA:99,333386
DA:100,435638
DA:101,65759
DA:102,65759
DA:103,65416
DA:104,65416
DA:105,65416
DA:106,65416
DA:107,343
DA:108,33
DA:109,33
DA:110,33
DA:111,33
DA:112,310
DA:113,310
DA:114,310
DA:115,310
DA:116,310
DA:117,310
DA:118,65759
DA:119,929574
DA:120,929574
DA:121,65410
DA:122,65410
DA:123,65410
DA:124,65410
DA:125,864164
DA:126,864164
DA:127,864164
DA:128,2
DA:129,2
DA:130,2
DA:131,2
DA:132,2
DA:133,2
DA:134,2
DA:135,864162
DA:136,864162
DA:137,864162
DA:138,864162
DA:139,864164
DA:140,929574
DA:141,20795
DA:142,20795
DA:143,25
DA:144,25
DA:145,25
DA:146,25
DA:147,20770
DA:148,2
DA:149,2
DA:150,2
DA:151,20768
DA:152,20768
DA:153,20768
DA:154,2
DA:155,2
DA:156,2
DA:157,2
DA:158,2
DA:159,2
DA:160,2
DA:161,20766
DA:162,20766
DA:163,20766
DA:164,20766
DA:165,20768
DA:166,20795
DA:167,2
DA:168,2
DA:169,2
DA:170,2
DA:171,2
DA:172,1451768
DA:173,1451768
DA:174,97825
DA:177,155
DA:178,155
DA:179,155
DA:180,155
DA:181,155
DA:182,155
DA:183,155
DA:186,435638
DA:187,435638
DA:188,435638
DA:189,637778
DA:190,340580
DA:191,340580
DA:192,340580
DA:193,340580
DA:194,138440
DA:195,202140
DA:196,202140
DA:197,0
DA:198,202140
DA:199,435638
DA:200,202140
DA:201,435638
BRDA:16,0,0,0
BRDA:16,0,1,340580
BRDA:20,0,0,15898
BRDA:20,0,1,324682
BRDA:23,0,0,128070
BRDA:23,0,1,202140
BRDA:26,0,0,122542
BRDA:26,0,1,5528
BRDA:35,0,0,138440
BRDA:35,0,1,202140
BRDA:43,0,0,0
BRDA:43,0,1,202140
BRDA:45,0,0,-
BRDA:45,0,1,-
BRDA:51,0,0,-
BRDA:51,0,1,-
BRDA:51,1,2,-
BRDA:51,1,3,-
BRDA:51,2,4,-
BRDA:51,2,5,-
BRDA:51,3,6,-
BRDA:51,3,7,-
BRDA:51,4,8,-
BRDA:51,4,9,-
BRDA:53,0,0,-
BRDA:53,0,1,-
BRDA:73,0,0,1451768
BRDA:73,0,1,97825
BRDA:75,0,0,0
BRDA:75,0,1,1451768
BRDA:77,0,0,435638
BRDA:77,0,1,1016130
BRDA:78,0,0,65929
BRDA:78,0,1,369709
BRDA:83,0,0,36323
BRDA:83,0,1,333386
BRDA:90,0,0,1
BRDA:90,0,1,333385
BRDA:101,0,0,65759
BRDA:101,0,1,1386009
BRDA:102,0,0,65416
BRDA:102,0,1,343
BRDA:107,0,0,33
BRDA:107,0,1,310
BRDA:114,0,0,310
BRDA:114,0,1,0
BRDA:119,0,0,929574
BRDA:119,0,1,522194
BRDA:120,0,0,65410
BRDA:120,0,1,864164
BRDA:120,1,2,65410
BRDA:120,1,3,0
BRDA:127,0,0,2
BRDA:127,0,1,864162
BRDA:141,0,0,20795
BRDA:141,0,1,1430973
BRDA:142,0,0,25
BRDA:142,0,1,20770
BRDA:147,0,0,2
BRDA:147,0,1,20768
BRDA:153,0,0,2
BRDA:153,0,1,20766
BRDA:167,0,0,2
BRDA:167,0,1,1451766
BRDA:168,0,0,2
BRDA:168,0,1,0
BRDA:189,0,0,340580
BRDA:189,0,1,297198
BRDA:193,0,0,138440
BRDA:193,0,1,202140
BRDA:196,0,0,0
BRDA:196,0,1,202140
BRDA:199,0,0,202140
BRDA:199,0,1,233498
BRF:74
BRH:53
LF:170
LH:154
end_of_record
SF:/Users/runner/work/Draxul/Draxul/libs/draxul-megacity/include/draxul/megacity_code_config.h
FN:171,_ZNK6draxul18MegaCityCodeConfigeqERKS0_
FNDA:228,_ZNK6draxul18MegaCityCodeConfigeqERKS0_
FNF:1
FNH:1
DA:171,228
BRF:0
BRH:0
LF:1
LH:1
end_of_record
SF:/Users/runner/work/Draxul/Draxul/libs/draxul-megacity/include/draxul/megacity_host.h
FN:46,_ZN6draxul12MegaCityHost30set_continuous_refresh_enabledEb
FN:50,_ZN6draxul12MegaCityHost21set_ui_panels_visibleEb
FNDA:1,_ZN6draxul12MegaCityHost30set_continuous_refresh_enabledEb
FNDA:0,_ZN6draxul12MegaCityHost21set_ui_panels_visibleEb
FNF:2
FNH:1
DA:46,1
DA:47,1
DA:48,1
DA:50,0
DA:51,0
DA:52,0
BRF:0
BRH:0
LF:6
LH:3
end_of_record
SF:/Users/runner/work/Draxul/Draxul/libs/draxul-megacity/src/building_tooltip.cpp
FN:13,_ZNK6draxul19BuildingTooltipData11to_gui_dataEv
FN:99,_ZN6draxul26rasterize_building_tooltipERNS_11TextServiceERKNS_19BuildingTooltipDataE
FN:17,building_tooltip.cpp:_ZZNK6draxul19BuildingTooltipData11to_gui_dataEvENK3$_0clEf
FN:22,building_tooltip.cpp:_ZZNK6draxul19BuildingTooltipData11to_gui_dataEvENK3$_1clEf
FN:27,building_tooltip.cpp:_ZZNK6draxul19BuildingTooltipData11to_gui_dataEvENK3$_2clEf
FNDA:0,_ZNK6draxul19BuildingTooltipData11to_gui_dataEv
FNDA:0,_ZN6draxul26rasterize_building_tooltipERNS_11TextServiceERKNS_19BuildingTooltipDataE
FNDA:0,building_tooltip.cpp:_ZZNK6draxul19BuildingTooltipData11to_gui_dataEvENK3$_0clEf
FNDA:0,building_tooltip.cpp:_ZZNK6draxul19BuildingTooltipData11to_gui_dataEvENK3$_1clEf
FNDA:0,building_tooltip.cpp:_ZZNK6draxul19BuildingTooltipData11to_gui_dataEvENK3$_2clEf
FNF:5
FNH:0
DA:13,0
DA:14,0
DA:15,0
DA:17,0
DA:18,0
DA:19,0
DA:20,0
DA:21,0
DA:22,0
DA:23,0
DA:24,0
DA:25,0
DA:26,0
DA:27,0
DA:28,0
DA:29,0
DA:30,0
DA:31,0
DA:33,0
DA:34,0
DA:35,0
DA:36,0
DA:37,0
DA:38,0
DA:39,0
DA:40,0
DA:41,0
DA:42,0
DA:43,0
DA:44,0
DA:45,0
DA:46,0
DA:47,0
DA:48,0
DA:49,0
DA:50,0
DA:51,0
DA:52,0
DA:53,0
DA:54,0
DA:55,0
DA:56,0
DA:57,0
DA:58,0
DA:59,0
DA:60,0
DA:61,0
DA:62,0
DA:63,0
DA:64,0
DA:65,0
DA:66,0
DA:67,0
DA:68,0
DA:69,0
DA:71,0
DA:72,0
DA:73,0
DA:74,0
DA:75,0
DA:76,0
DA:77,0
DA:78,0
DA:79,0
DA:80,0
DA:81,0
DA:82,0
DA:83,0
DA:84,0
DA:85,0
DA:86,0
DA:87,0
DA:88,0
DA:89,0
DA:90,0
DA:91,0
DA:92,0
DA:93,0
DA:95,0
DA:96,0
DA:99,0
DA:100,0
DA:101,0
BRDA:33,0,0,-
BRDA:33,0,1,-
BRDA:42,0,0,-
BRDA:42,0,1,-
BRDA:51,0,0,-
BRDA:51,0,1,-
BRDA:68,0,0,-
BRDA:68,0,1,-
BRDA:71,0,0,-
BRDA:71,0,1,-
BRDA:73,0,0,-
BRDA:73,0,1,-
BRDA:74,0,0,-
BRDA:74,0,1,-
BRDA:75,0,0,-
BRDA:75,0,1,-
BRDA:75,1,2,-
BRDA:75,1,3,-
BRDA:76,0,0,-
BRDA:76,0,1,-
BRDA:80,0,0,-
BRDA:80,0,1,-
BRDA:86,0,0,-
BRDA:86,0,1,-
BRDA:86,1,2,-
BRDA:86,1,3,-
BRF:26
BRH:0
LF:98
LH:0
end_of_record
SF:/Users/runner/work/Draxul/Draxul/libs/draxul-megacity/src/building_tooltip.h
FN:48,_ZNK6draxul19BuildingTooltipData8is_routeEv
FN:56,_ZNK6draxul19BuildingTooltipData7is_treeEv
FN:52,_ZNK6draxul19BuildingTooltipData7is_parkEv
FNDA:0,_ZNK6draxul19BuildingTooltipData8is_routeEv
FNDA:0,_ZNK6draxul19BuildingTooltipData7is_treeEv
FNDA:0,_ZNK6draxul19BuildingTooltipData7is_parkEv
FNF:3
FNH:0
DA:48,0
DA:49,0
DA:50,0
DA:52,0
DA:53,0
DA:54,0
DA:56,0
DA:57,0
DA:58,0
BRF:0
BRH:0
LF:9
LH:0
end_of_record
SF:/Users/runner/work/Draxul/Draxul/libs/draxul-megacity/src/city_builder.cpp
FN:163,_ZN6draxul24tree_metrics_from_meshesERKNS_12GeometryMeshES2_
FN:557,_ZN6draxul30procedural_building_side_countEiii
FN:574,_ZN6draxul10build_cityERNS_10SceneWorldERNS_12CityDatabaseEPNS_11TextServiceERKNSt3__16vectorINS6_12basic_stringIcNS6_11char_traitsIcEENS6_9allocatorIcEEEENSB_ISD_EEEERKNS_18MegaCityCodeConfigERy
FN:1016,_ZN6draxul19emit_route_entitiesERNS_10SceneWorldERKNSt3__16vectorINS_8CityGrid13RoutePolylineENS2_9allocatorIS5_EEEERKNS_18MegaCityCodeConfigE
FN:137,city_builder.cpp:_ZN6draxul12_GLOBAL__N_122tree_metrics_from_meshERKNS_12GeometryMeshE
FN:352,city_builder.cpp:_ZN6draxul12_GLOBAL__N_132build_incident_connection_countsERKNS_21SemanticMegacityModelE
FN:486,city_builder.cpp:_ZN6draxul12_GLOBAL__N_117make_sign_requestENSt3__112basic_stringIcNS1_11char_traitsIcEENS1_9allocatorIcEEEENS1_17basic_string_viewIcS4_EERKNS0_17SignPlacementSpecEPKNS_11TextServiceERKNS_18MegaCityCodeConfigEb
FN:92,city_builder.cpp:_ZN6draxul12_GLOBAL__N_121color_channel_to_byteEf
FN:518,city_builder.cpp:_ZN6draxul12_GLOBAL__N_117building_sign_keyERKNS_20SemanticCityBuildingE
FN:371,city_builder.cpp:_ZN6draxul12_GLOBAL__N_119module_display_nameENSt3__117basic_string_viewIcNS1_11char_traitsIcEEEE
FN:454,city_builder.cpp:_ZN6draxul12_GLOBAL__N_127place_module_boundary_signsERKNS_24SemanticCityModuleLayoutENSt3__117basic_string_viewIcNS4_11char_traitsIcEEEEPKNS_11TextServiceERKNS_18MegaCityCodeConfigE
FN:523,city_builder.cpp:_ZN6draxul12_GLOBAL__N_115module_sign_keyENSt3__117basic_string_viewIcNS1_11char_traitsIcEEEE
FN:97,city_builder.cpp:_ZN6draxul12_GLOBAL__N_129make_central_park_tree_paramsERKNS_18MegaCityCodeConfigE
FN:255,city_builder.cpp:_ZN6draxul12_GLOBAL__N_130build_point_shadow_debug_sceneERNS_10SceneWorldERKNS_18MegaCityCodeConfigERKNSt3__110shared_ptrIKNS_12GeometryMeshEEESC_RKNS_11TreeMetricsE
FN:340,city_builder.cpp:_ZN6draxul12_GLOBAL__N_123building_connection_keyENSt3__117basic_string_viewIcNS1_11char_traitsIcEEEES5_S5_
FN:183,city_builder.cpp:_ZN6draxul12_GLOBAL__N_130build_procedural_building_meshERKNS_20SemanticCityBuildingERKN3glm3vecILi4EfLNS4_9qualifierE0EEERKNS_18MegaCityCodeConfigEi
FN:424,city_builder.cpp:_ZN6draxul12_GLOBAL__N_124place_building_roof_signERKNS_20SemanticCityBuildingENSt3__117basic_string_viewIcNS4_11char_traitsIcEEEEPKNS_11TextServiceERKNS_18MegaCityCodeConfigEi
FN:399,city_builder.cpp:_ZN6draxul12_GLOBAL__N_137roof_sign_outer_radius_for_face_widthEif
FN:381,city_builder.cpp:_ZN6draxul12_GLOBAL__N_128compute_building_sign_heightERKNS_20SemanticCityBuildingENSt3__117basic_string_viewIcNS4_11char_traitsIcEEEEPKNS_11TextServiceERKNS_18MegaCityCodeConfigEf
FN:411,city_builder.cpp:_ZN6draxul12_GLOBAL__N_137roof_sign_face_width_for_outer_radiusEif
FN:540,city_builder.cpp:_ZN6draxul12_GLOBAL__N_117make_sign_metricsERKNS0_21RoofSignPlacementSpecERKNS_14SignAtlasEntryE
FN:225,city_builder.cpp:_ZN6draxul12_GLOBAL__N_134build_procedural_building_cap_meshERKNS_20SemanticCityBuildingERKN3glm3vecILi4EfLNS4_9qualifierE0EEERKNS_18MegaCityCodeConfigEif
FN:80,city_builder.cpp:_ZN6draxul12_GLOBAL__N_125building_sign_board_colorERKNS_18MegaCityCodeConfigE
FN:71,city_builder.cpp:_ZN6draxul12_GLOBAL__N_116color_with_alphaERKN3glm3vecILi3EfLNS1_9qualifierE0EEEf
FN:239,city_builder.cpp:_ZN6draxul12_GLOBAL__N_129build_building_roof_sign_meshERKNS0_21RoofSignPlacementSpecE
FN:528,city_builder.cpp:_ZN6draxul12_GLOBAL__N_117make_sign_metricsERKNS0_17SignPlacementSpecERKNS_14SignAtlasEntryE
FN:85,city_builder.cpp:_ZN6draxul12_GLOBAL__N_128dark_module_sign_board_colorENSt3__117basic_string_viewIcNS1_11char_traitsIcEEEE
FNDA:0,_ZN6draxul24tree_metrics_from_meshesERKNS_12GeometryMeshES2_
FNDA:10,_ZN6draxul30procedural_building_side_countEiii
FNDA:2,_ZN6draxul10build_cityERNS_10SceneWorldERNS_12CityDatabaseEPNS_11TextServiceERKNSt3__16vectorINS6_12basic_stringIcNS6_11char_traitsIcEENS6_9allocatorIcEEEENSB_ISD_EEEERKNS_18MegaCityCodeConfigERy
FNDA:0,_ZN6draxul19emit_route_entitiesERNS_10SceneWorldERKNSt3__16vectorINS_8CityGrid13RoutePolylineENS2_9allocatorIS5_EEEERKNS_18MegaCityCodeConfigE
FNDA:0,city_builder.cpp:_ZN6draxul12_GLOBAL__N_122tree_metrics_from_meshERKNS_12GeometryMeshE
FNDA:2,city_builder.cpp:_ZN6draxul12_GLOBAL__N_132build_incident_connection_countsERKNS_21SemanticMegacityModelE
FNDA:4,city_builder.cpp:_ZN6draxul12_GLOBAL__N_117make_sign_requestENSt3__112basic_stringIcNS1_11char_traitsIcEENS1_9allocatorIcEEEENS1_17basic_string_viewIcS4_EERKNS0_17SignPlacementSpecEPKNS_11TextServiceERKNS_18MegaCityCodeConfigEb
FNDA:12,city_builder.cpp:_ZN6draxul12_GLOBAL__N_121color_channel_to_byteEf
FNDA:4,city_builder.cpp:_ZN6draxul12_GLOBAL__N_117building_sign_keyERKNS_20SemanticCityBuildingE
FNDA:4,city_builder.cpp:_ZN6draxul12_GLOBAL__N_119module_display_nameENSt3__117basic_string_viewIcNS1_11char_traitsIcEEEE
FNDA:4,city_builder.cpp:_ZN6draxul12_GLOBAL__N_127place_module_boundary_signsERKNS_24SemanticCityModuleLayoutENSt3__117basic_string_viewIcNS4_11char_traitsIcEEEEPKNS_11TextServiceERKNS_18MegaCityCodeConfigE
FNDA:4,city_builder.cpp:_ZN6draxul12_GLOBAL__N_115module_sign_keyENSt3__117basic_string_viewIcNS1_11char_traitsIcEEEE
FNDA:0,city_builder.cpp:_ZN6draxul12_GLOBAL__N_129make_central_park_tree_paramsERKNS_18MegaCityCodeConfigE
FNDA:0,city_builder.cpp:_ZN6draxul12_GLOBAL__N_130build_point_shadow_debug_sceneERNS_10SceneWorldERKNS_18MegaCityCodeConfigERKNSt3__110shared_ptrIKNS_12GeometryMeshEEESC_RKNS_11TreeMetricsE
FNDA:6,city_builder.cpp:_ZN6draxul12_GLOBAL__N_123building_connection_keyENSt3__117basic_string_viewIcNS1_11char_traitsIcEEEES5_S5_
FNDA:2,city_builder.cpp:_ZN6draxul12_GLOBAL__N_130build_procedural_building_meshERKNS_20SemanticCityBuildingERKN3glm3vecILi4EfLNS4_9qualifierE0EEERKNS_18MegaCityCodeConfigEi
FNDA:2,city_builder.cpp:_ZN6draxul12_GLOBAL__N_124place_building_roof_signERKNS_20SemanticCityBuildingENSt3__117basic_string_viewIcNS4_11char_traitsIcEEEEPKNS_11TextServiceERKNS_18MegaCityCodeConfigEi
FNDA:2,city_builder.cpp:_ZN6draxul12_GLOBAL__N_137roof_sign_outer_radius_for_face_widthEif
FNDA:2,city_builder.cpp:_ZN6draxul12_GLOBAL__N_128compute_building_sign_heightERKNS_20SemanticCityBuildingENSt3__117basic_string_viewIcNS4_11char_traitsIcEEEEPKNS_11TextServiceERKNS_18MegaCityCodeConfigEf
FNDA:2,city_builder.cpp:_ZN6draxul12_GLOBAL__N_137roof_sign_face_width_for_outer_radiusEif
FNDA:2,city_builder.cpp:_ZN6draxul12_GLOBAL__N_117make_sign_metricsERKNS0_21RoofSignPlacementSpecERKNS_14SignAtlasEntryE
FNDA:2,city_builder.cpp:_ZN6draxul12_GLOBAL__N_134build_procedural_building_cap_meshERKNS_20SemanticCityBuildingERKN3glm3vecILi4EfLNS4_9qualifierE0EEERKNS_18MegaCityCodeConfigEif
FNDA:2,city_builder.cpp:_ZN6draxul12_GLOBAL__N_125building_sign_board_colorERKNS_18MegaCityCodeConfigE
FNDA:2,city_builder.cpp:_ZN6draxul12_GLOBAL__N_116color_with_alphaERKN3glm3vecILi3EfLNS1_9qualifierE0EEEf
FNDA:2,city_builder.cpp:_ZN6draxul12_GLOBAL__N_129build_building_roof_sign_meshERKNS0_21RoofSignPlacementSpecE
FNDA:4,city_builder.cpp:_ZN6draxul12_GLOBAL__N_117make_sign_metricsERKNS0_17SignPlacementSpecERKNS_14SignAtlasEntryE
FNDA:4,city_builder.cpp:_ZN6draxul12_GLOBAL__N_128dark_module_sign_board_colorENSt3__117basic_string_viewIcNS1_11char_traitsIcEEEE
FNF:27
FNH:22
DA:71,2
DA:72,2
DA:73,2
DA:74,2
DA:75,2
DA:76,2
DA:77,2
DA:80,2
DA:81,2
DA:82,2
DA:85,4
DA:86,4
DA:87,4
DA:88,4
DA:89,4
DA:92,12
DA:93,12
DA:94,12
DA:97,0
DA:98,0
DA:99,0
DA:100,0
DA:101,0
DA:102,0
DA:103,0
DA:104,0
DA:105,0
DA:106,0
DA:107,0
DA:108,0
DA:109,0
DA:110,0
DA:111,0
DA:112,0
DA:113,0
DA:114,0
DA:115,0
DA:116,0
DA:117,0
DA:118,0
DA:119,0
DA:120,0
DA:121,0
DA:122,0
DA:123,0
DA:124,0
DA:125,0
DA:126,0
DA:127,0
DA:128,0
DA:129,0
DA:137,0
DA:138,0
DA:139,0
DA:140,0
DA:141,0
DA:143,0
DA:144,0
DA:145,0
DA:146,0
DA:147,0
DA:148,0
DA:149,0
DA:150,0
DA:151,0
DA:152,0
DA:153,0
DA:155,0
DA:156,0
DA:157,0
DA:158,0
DA:163,0
DA:164,0
DA:165,0
DA:166,0
DA:167,0
DA:168,0
DA:169,0
DA:170,0
DA:171,0
DA:172,0
DA:173,0
DA:183,2
DA:184,2
DA:185,2
DA:186,2
DA:187,2
DA:188,2
DA:190,2
DA:191,0
DA:192,0
DA:193,0
DA:194,2
DA:195,2
DA:196,2
DA:197,4
DA:198,2
DA:199,2
DA:200,2
DA:201,0
DA:202,2
DA:203,2
DA:204,2
DA:205,2
DA:206,2
DA:207,2
DA:208,2
DA:209,2
DA:210,2
DA:211,2
DA:213,2
DA:214,0
DA:216,2
DA:217,2
DA:225,2
DA:226,2
DA:227,2
DA:228,2
DA:229,2
DA:230,2
DA:231,2
DA:232,2
DA:233,2
DA:234,2
DA:235,2
DA:236,2
DA:239,2
DA:240,2
DA:241,2
DA:242,2
DA:243,2
DA:244,2
DA:245,2
DA:246,2
DA:247,2
DA:255,0
DA:256,0
DA:257,0
DA:258,0
DA:259,0
DA:260,0
DA:261,0
DA:262,0
DA:263,0
DA:264,0
DA:265,0
DA:266,0
DA:267,0
DA:268,0
DA:269,0
DA:271,0
DA:272,0
DA:273,0
DA:274,0
DA:275,0
DA:276,0
DA:277,0
DA:278,0
DA:279,0
DA:280,0
DA:281,0
DA:282,0
DA:283,0
DA:284,0
DA:285,0
DA:286,0
DA:287,0
DA:288,0
DA:289,0
DA:290,0
DA:291,0
DA:292,0
DA:294,0
DA:295,0
DA:296,0
DA:297,0
DA:298,0
DA:299,0
DA:300,0
DA:301,0
DA:302,0
DA:303,0
DA:304,0
DA:305,0
DA:306,0
DA:307,0
DA:308,0
DA:309,0
DA:310,0
DA:311,0
DA:312,0
DA:313,0
DA:314,0
DA:315,0
DA:317,0
DA:318,0
DA:319,0
DA:320,0
DA:321,0
DA:322,0
DA:323,0
DA:324,0
DA:325,0
DA:326,0
DA:327,0
DA:328,0
DA:329,0
DA:330,0
DA:331,0
DA:332,0
DA:333,0
DA:334,0
DA:340,6
DA:341,6
DA:342,6
DA:343,6
DA:344,6
DA:345,6
DA:346,6
DA:347,6
DA:348,6
DA:349,6
DA:352,2
DA:353,2
DA:354,2
DA:355,2
DA:356,2
DA:357,0
DA:358,0
DA:359,0
DA:360,0
DA:361,0
DA:362,0
DA:363,0
DA:364,0
DA:365,0
DA:366,0
DA:367,2
DA:368,2
DA:371,4
DA:372,4
DA:373,4
DA:374,4
DA:375,4
DA:376,4
DA:381,2
DA:382,2
DA:383,2
DA:384,2
DA:386,2
DA:387,2
DA:388,2
DA:389,2
DA:390,2
DA:391,2
DA:392,2
DA:393,2
DA:395,2
DA:396,2
DA:399,2
DA:400,2
DA:401,2
DA:402,2
DA:403,2
DA:405,0
DA:406,0
DA:407,0
DA:408,2
DA:411,2
DA:412,2
DA:413,2
DA:414,2
DA:415,2
DA:417,0
DA:418,0
DA:419,2
DA:424,2
DA:425,2
DA:426,2
DA:427,2
DA:428,2
DA:429,2
DA:430,2
DA:431,2
DA:432,2
DA:433,2
DA:434,2
DA:435,2
DA:436,2
DA:437,2
DA:438,2
DA:439,2
DA:440,2
DA:441,2
DA:442,2
DA:443,2
DA:444,2
DA:445,2
DA:446,2
DA:447,2
DA:454,4
DA:455,4
DA:456,4
DA:457,4
DA:459,4
DA:460,4
DA:461,4
DA:462,4
DA:463,4
DA:464,4
DA:465,4
DA:466,4
DA:467,4
DA:468,4
DA:470,4
DA:471,12
DA:472,8
DA:473,8
DA:474,8
DA:475,8
DA:476,8
DA:477,8
DA:478,8
DA:479,8
DA:480,4
DA:481,4
DA:486,4
DA:487,4
DA:488,4
DA:489,4
DA:490,4
DA:491,4
DA:492,4
DA:493,4
DA:494,4
DA:495,4
DA:496,4
DA:497,4
DA:498,0
DA:499,0
DA:500,0
DA:501,0
DA:502,0
DA:504,4
DA:505,4
DA:506,4
DA:507,4
DA:508,4
DA:509,4
DA:510,4
DA:511,4
DA:512,4
DA:513,4
DA:514,4
DA:515,4
DA:518,4
DA:519,4
DA:520,4
DA:523,4
DA:524,4
DA:525,4
DA:528,4
DA:529,4
DA:530,4
DA:531,4
DA:532,4
DA:533,4
DA:534,4
DA:535,4
DA:536,4
DA:537,4
DA:540,2
DA:541,2
DA:542,2
DA:543,2
DA:544,2
DA:545,2
DA:546,2
DA:547,2
DA:548,2
DA:549,2
DA:557,10
DA:558,10
DA:559,10
DA:560,10
DA:561,2
DA:562,8
DA:563,4
DA:564,4
DA:565,8
DA:574,2
DA:575,2
DA:576,2
DA:578,2
DA:579,2
DA:580,2
DA:581,2
DA:582,2
DA:583,0
DA:584,2
DA:585,2
DA:586,2
DA:587,2
DA:588,2
DA:589,2
DA:590,2
DA:591,2
DA:592,2
DA:594,2
DA:595,2
DA:596,2
DA:597,2
DA:598,2
DA:599,2
DA:600,2
DA:601,2
DA:602,2
DA:603,2
DA:604,2
DA:605,2
DA:606,2
DA:607,2
DA:608,2
DA:609,2
DA:610,2
DA:611,2
DA:612,2
DA:614,2
DA:615,2
DA:616,2
DA:617,2
DA:618,2
DA:619,2
DA:620,2
DA:621,2
DA:622,2
DA:623,2
DA:626,2
DA:627,2
DA:628,2
DA:629,2
DA:630,2
DA:631,2
DA:632,2
DA:633,2
DA:634,2
DA:636,2
DA:637,2
DA:638,2
DA:639,2
DA:640,2
DA:641,2
DA:642,2
DA:643,2
DA:644,2
DA:645,2
DA:646,2
DA:647,2
DA:648,2
DA:650,2
DA:651,2
DA:652,2
DA:653,2
DA:654,2
DA:655,2
DA:656,2
DA:657,2
DA:659,2
DA:660,2
DA:661,2
DA:664,2
DA:665,2
DA:666,2
DA:667,2
DA:668,2
DA:669,2
DA:670,2
DA:671,2
DA:672,0
DA:673,0
DA:674,0
DA:675,0
DA:676,0
DA:677,0
DA:678,0
DA:679,0
DA:680,0
DA:681,2
DA:682,2
DA:683,2
DA:685,2
DA:686,0
DA:687,0
DA:688,0
DA:689,0
DA:690,0
DA:691,0
DA:692,0
DA:693,0
DA:694,0
DA:695,0
DA:696,0
DA:697,0
DA:698,0
DA:699,0
DA:700,0
DA:701,0
DA:702,0
DA:703,0
DA:704,0
DA:705,0
DA:706,0
DA:707,0
DA:708,0
DA:709,0
DA:710,0
DA:711,0
DA:713,2
DA:714,2
DA:715,2
DA:716,2
DA:717,2
DA:718,2
DA:719,2
DA:720,2
DA:721,2
DA:722,2
DA:723,2
DA:724,2
DA:725,2
DA:726,2
DA:727,2
DA:728,2
DA:729,2
DA:731,2
DA:732,2
DA:733,2
DA:734,2
DA:735,2
DA:736,0
DA:738,2
DA:739,2
DA:740,2
DA:741,0
DA:743,2
DA:744,2
DA:745,0
DA:747,2
DA:748,2
DA:749,2
DA:750,2
DA:751,2
DA:753,2
DA:754,2
DA:755,2
DA:756,2
DA:757,2
DA:758,2
DA:759,2
DA:760,2
DA:761,2
DA:762,2
DA:763,2
DA:764,2
DA:765,2
DA:766,2
DA:767,2
DA:768,2
DA:769,2
DA:770,2
DA:771,2
DA:772,2
DA:773,2
DA:774,2
DA:775,2
DA:776,2
DA:777,2
DA:778,2
DA:779,2
DA:780,2
DA:781,2
DA:783,2
DA:784,2
DA:786,2
DA:787,2
DA:788,2
DA:789,2
DA:790,2
DA:791,2
DA:792,2
DA:794,2
DA:795,2
DA:796,2
DA:797,2
DA:798,2
DA:799,2
DA:800,2
DA:801,2
DA:802,2
DA:803,2
DA:804,2
DA:805,2
DA:806,2
DA:808,2
DA:809,0
DA:810,0
DA:811,0
DA:812,0
DA:813,0
DA:814,0
DA:815,0
DA:816,0
DA:817,0
DA:818,0
DA:819,0
DA:820,0
DA:821,0
DA:822,0
DA:823,0
DA:824,0
DA:827,2
DA:828,2
DA:829,2
DA:831,2
DA:832,8
DA:833,8
DA:834,8
DA:835,8
DA:836,8
DA:837,8
DA:838,8
DA:839,8
DA:840,8
DA:841,2
DA:843,2
DA:844,2
DA:845,2
DA:846,2
DA:847,2
DA:848,2
DA:849,2
DA:850,2
DA:851,2
DA:852,2
DA:853,2
DA:854,2
DA:855,2
DA:856,2
DA:857,2
DA:858,2
DA:859,2
DA:860,2
DA:861,2
DA:862,2
DA:863,2
DA:864,2
DA:865,2
DA:866,2
DA:867,2
DA:869,2
DA:870,2
DA:871,2
DA:872,2
DA:873,2
DA:874,2
DA:875,2
DA:876,2
DA:877,2
DA:878,2
DA:880,2
DA:881,2
DA:882,2
DA:883,2
DA:884,2
DA:885,2
DA:886,2
DA:887,2
DA:888,2
DA:889,2
DA:890,2
DA:891,2
DA:892,2
DA:893,2
DA:894,2
DA:895,2
DA:896,2
DA:897,2
DA:898,2
DA:899,2
DA:901,2
DA:902,2
DA:903,2
DA:904,2
DA:905,2
DA:906,2
DA:907,2
DA:908,2
DA:909,2
DA:910,2
DA:911,2
DA:912,2
DA:914,2
DA:915,2
DA:916,2
DA:917,2
DA:918,2
DA:919,2
DA:920,2
DA:921,2
DA:922,2
DA:923,2
DA:924,2
DA:925,2
DA:926,2
DA:927,2
DA:928,2
DA:929,2
DA:930,2
DA:931,2
DA:932,2
DA:933,2
DA:934,2
DA:936,2
DA:937,2
DA:938,2
DA:939,2
DA:940,2
DA:941,2
DA:942,2
DA:943,2
DA:944,2
DA:945,2
DA:946,2
DA:947,2
DA:948,2
DA:949,2
DA:950,2
DA:951,2
DA:952,2
DA:955,2
DA:956,4
DA:957,4
DA:958,4
DA:959,4
DA:960,4
DA:961,4
DA:962,4
DA:963,4
DA:964,4
DA:965,4
DA:966,4
DA:967,4
DA:968,4
DA:969,4
DA:970,4
DA:971,4
DA:972,2
DA:973,2
DA:974,2
DA:976,2
DA:977,2
DA:978,2
DA:979,2
DA:984,2
DA:985,2
DA:986,2
DA:987,2
DA:988,2
DA:989,2
DA:990,2
DA:991,2
DA:992,2
DA:994,2
DA:995,2
DA:996,2
DA:997,2
DA:998,2
DA:999,2
DA:1000,2
DA:1001,2
DA:1002,2
DA:1003,2
DA:1004,2
DA:1006,2
DA:1007,2
DA:1008,2
DA:1009,2
DA:1010,2
DA:1016,0
DA:1017,0
DA:1018,0
DA:1019,0
DA:1020,0
DA:1022,0
DA:1023,0
DA:1024,0
DA:1025,0
DA:1026,0
DA:1028,0
DA:1029,0
DA:1030,0
DA:1031,0
DA:1032,0
DA:1034,0
DA:1035,0
DA:1036,0
DA:1037,0
DA:1038,0
DA:1039,0
DA:1040,0
DA:1041,0
DA:1042,0
DA:1043,0
DA:1047,0
DA:1048,0
DA:1049,0
DA:1050,0
DA:1051,0
DA:1052,0
DA:1054,0
DA:1055,0
DA:1056,0
DA:1057,0
DA:1058,0
DA:1059,0
DA:1060,0
DA:1061,0
DA:1063,0
DA:1064,0
DA:1065,0
DA:1066,0
DA:1067,0
DA:1068,0
DA:1069,0
DA:1070,0
DA:1071,0
DA:1072,0
DA:1073,0
DA:1074,0
DA:1075,0
DA:1076,0
DA:1077,0
DA:1078,0
DA:1079,0
DA:1080,0
DA:1081,0
DA:1082,0
DA:1083,0
DA:1085,0
DA:1086,0
DA:1087,0
DA:1088,0
BRDA:140,0,0,-
BRDA:140,0,1,-
BRDA:146,0,0,-
BRDA:146,0,1,-
BRDA:166,0,0,-
BRDA:166,0,1,-
BRDA:190,0,0,0
BRDA:190,0,1,2
BRDA:197,0,0,2
BRDA:197,0,1,2
BRDA:200,0,0,0
BRDA:200,0,1,2
BRDA:213,0,0,0
BRDA:213,0,1,2
BRDA:231,0,0,0
BRDA:231,0,1,2
BRDA:317,0,0,-
BRDA:317,0,1,-
BRDA:317,1,2,-
BRDA:317,1,3,-
BRDA:317,2,4,-
BRDA:317,2,5,-
BRDA:356,0,0,0
BRDA:356,0,1,2
BRDA:375,0,0,4
BRDA:375,0,1,0
BRDA:386,0,0,2
BRDA:386,0,1,0
BRDA:386,1,2,2
BRDA:386,1,3,0
BRDA:402,0,0,2
BRDA:402,0,1,0
BRDA:414,0,0,2
BRDA:414,0,1,0
BRDA:460,0,0,4
BRDA:460,0,1,0
BRDA:460,1,2,4
BRDA:460,1,3,0
BRDA:471,0,0,8
BRDA:471,0,1,4
BRDA:490,0,0,4
BRDA:490,0,1,0
BRDA:490,1,2,4
BRDA:490,1,3,0
BRDA:504,0,0,2
BRDA:504,0,1,2
BRDA:560,0,0,2
BRDA:560,0,1,8
BRDA:562,0,0,4
BRDA:562,0,1,4
BRDA:579,0,0,2
BRDA:579,0,1,2
BRDA:581,0,0,0
BRDA:581,0,1,2
BRDA:582,0,0,-
BRDA:582,0,1,-
BRDA:601,0,0,0
BRDA:601,0,1,2
BRDA:607,0,0,2
BRDA:607,0,1,0
BRDA:614,0,0,2
BRDA:614,0,1,0
BRDA:628,0,0,2
BRDA:628,0,1,2
BRDA:630,0,0,2
BRDA:630,0,1,2
BRDA:632,0,0,0
BRDA:632,0,1,2
BRDA:638,0,0,2
BRDA:638,0,1,0
BRDA:639,0,0,2
BRDA:639,0,1,0
BRDA:640,0,0,2
BRDA:640,0,1,0
BRDA:641,0,0,2
BRDA:641,0,1,0
BRDA:660,0,0,2
BRDA:660,0,1,0
BRDA:668,0,0,2
BRDA:668,0,1,2
BRDA:670,0,0,0
BRDA:670,0,1,2
BRDA:670,1,2,-
BRDA:670,1,3,-
BRDA:671,0,0,0
BRDA:671,0,1,2
BRDA:685,0,0,0
BRDA:685,0,1,2
BRDA:699,0,0,-
BRDA:699,0,1,-
BRDA:714,0,0,2
BRDA:714,0,1,0
BRDA:733,0,0,2
BRDA:733,0,1,2
BRDA:735,0,0,0
BRDA:735,0,1,2
BRDA:735,1,2,0
BRDA:735,1,3,2
BRDA:740,0,0,0
BRDA:740,0,1,2
BRDA:740,1,2,0
BRDA:740,1,3,2
BRDA:744,0,0,0
BRDA:744,0,1,2
BRDA:783,0,0,2
BRDA:783,0,1,2
BRDA:786,0,0,2
BRDA:786,0,1,0
BRDA:808,0,0,0
BRDA:808,0,1,2
BRDA:831,0,0,8
BRDA:831,0,1,2
BRDA:844,0,0,2
BRDA:844,0,1,2
BRDA:849,0,0,0
BRDA:849,0,1,2
BRDA:869,0,0,2
BRDA:869,0,1,0
BRDA:872,0,0,2
BRDA:872,0,1,0
BRDA:874,0,0,0
BRDA:874,0,1,2
BRDA:880,0,0,2
BRDA:880,0,1,0
BRDA:938,0,0,2
BRDA:938,0,1,0
BRDA:939,0,0,2
BRDA:939,0,1,0
BRDA:940,0,0,2
BRDA:940,0,1,0
BRDA:941,0,0,2
BRDA:941,0,1,0
BRDA:942,0,0,2
BRDA:942,0,1,0
BRDA:945,0,0,2
BRDA:945,0,1,0
BRDA:955,0,0,4
BRDA:955,0,1,2
BRDA:986,0,0,2
BRDA:986,0,1,2
BRDA:987,0,0,2
BRDA:987,0,1,2
BRDA:994,0,0,2
BRDA:994,0,1,2
BRDA:995,0,0,2
BRDA:995,0,1,2
BRDA:1001,0,0,2
BRDA:1001,0,1,0
BRDA:1022,0,0,-
BRDA:1022,0,1,-
BRDA:1025,0,0,-
BRDA:1025,0,1,-
BRDA:1029,0,0,-
BRDA:1029,0,1,-
BRDA:1031,0,0,-
BRDA:1031,0,1,-
BRDA:1036,0,0,-
BRDA:1036,0,1,-
BRDA:1042,0,0,-
BRDA:1042,0,1,-
BRDA:1054,0,0,-
BRDA:1054,0,1,-
BRF:162
BRH:83
LF:852
LH:567
end_of_record
SF:/Users/runner/work/Draxul/Draxul/libs/draxul-megacity/src/city_helpers.h
FN:54,_ZN6draxul21module_building_colorENSt3__117basic_string_viewIcNS0_11char_traitsIcEEEE
FN:43,_ZN6draxul18stable_module_hashENSt3__117basic_string_viewIcNS0_11char_traitsIcEEEE
FN:66,_ZN6draxul27module_building_layer_colorERKN3glm3vecILi4EfLNS0_9qualifierE0EEEmf
FN:80,_ZN6draxul23building_base_elevationERKNS_18MegaCityCodeConfigE
FN:85,_ZN6draxul20route_base_elevationERKNS_18MegaCityCodeConfigE
FN:93,_ZN6draxul18world_floor_heightERKNS_18MegaCityCodeConfigE
FNDA:10,_ZN6draxul21module_building_colorENSt3__117basic_string_viewIcNS0_11char_traitsIcEEEE
FNDA:10,_ZN6draxul18stable_module_hashENSt3__117basic_string_viewIcNS0_11char_traitsIcEEEE
FNDA:2,_ZN6draxul27module_building_layer_colorERKN3glm3vecILi4EfLNS0_9qualifierE0EEEmf
FNDA:8,_ZN6draxul23building_base_elevationERKNS_18MegaCityCodeConfigE
FNDA:4,_ZN6draxul20route_base_elevationERKNS_18MegaCityCodeConfigE
FNDA:16,_ZN6draxul18world_floor_heightERKNS_18MegaCityCodeConfigE
FNF:6
FNH:6
DA:43,10
DA:44,10
DA:45,10
DA:46,30
DA:47,30
DA:48,30
DA:49,30
DA:50,10
DA:51,10
DA:54,10
DA:55,10
DA:56,10
DA:57,10
DA:58,10
DA:59,0
DA:60,10
DA:61,10
DA:62,0
DA:63,10
DA:66,2
DA:67,2
DA:68,2
DA:69,0
DA:70,0
DA:71,0
DA:72,0
DA:73,0
DA:74,2
DA:80,8
DA:81,8
DA:82,8
DA:85,4
DA:86,4
DA:87,4
DA:88,4
DA:89,4
DA:90,4
DA:93,16
DA:94,16
DA:95,16
BRDA:45,0,0,30
BRDA:45,0,1,10
BRDA:58,0,0,0
BRDA:58,0,1,10
BRDA:60,0,0,10
BRDA:60,0,1,0
BRDA:67,0,0,2
BRDA:67,0,1,0
BRF:8
BRH:5
LF:40
LH:33
end_of_record
SF:/Users/runner/work/Draxul/Draxul/libs/draxul-megacity/src/city_input_state.cpp
FN:97,_ZN6draxul14CityInputState10reset_keysEv
FN:111,_ZN6draxul14CityInputState6on_keyERKNS_8KeyEventE
FN:169,_ZN6draxul14CityInputState15on_mouse_buttonERKNS_16MouseButtonEventE
FN:212,_ZN6draxul14CityInputState13on_mouse_moveERKNS_14MouseMoveEventERNS_15IsometricCameraE
FN:258,_ZNK6draxul14CityInputState15movement_activeEv
FN:264,_ZNK6draxul14CityInputState21drag_smoothing_activeEv
FN:270,_ZNK6draxul14CityInputState8movementEv
FN:301,_ZN6draxul14CityInputState20apply_drag_smoothingEfRNS_15IsometricCameraE
FN:333,_ZN6draxul14CityInputState13consume_clickEv
FN:340,_ZN6draxul14CityInputState20consume_double_clickEv
FN:22,city_input_state.cpp:_ZN6draxul12_GLOBAL__N_113is_left_arrowERKNS_8KeyEventE
FN:28,city_input_state.cpp:_ZN6draxul12_GLOBAL__N_114is_right_arrowERKNS_8KeyEventE
FN:34,city_input_state.cpp:_ZN6draxul12_GLOBAL__N_111is_up_arrowERKNS_8KeyEventE
FN:40,city_input_state.cpp:_ZN6draxul12_GLOBAL__N_113is_down_arrowERKNS_8KeyEventE
FN:46,city_input_state.cpp:_ZN6draxul12_GLOBAL__N_117is_orbit_left_keyERKNS_8KeyEventE
FN:51,city_input_state.cpp:_ZN6draxul12_GLOBAL__N_118is_orbit_right_keyERKNS_8KeyEventE
FN:56,city_input_state.cpp:_ZN6draxul12_GLOBAL__N_114is_zoom_in_keyERKNS_8KeyEventE
FN:61,city_input_state.cpp:_ZN6draxul12_GLOBAL__N_115is_zoom_out_keyERKNS_8KeyEventE
FN:66,city_input_state.cpp:_ZN6draxul12_GLOBAL__N_115is_pitch_up_keyERKNS_8KeyEventE
FN:71,city_input_state.cpp:_ZN6draxul12_GLOBAL__N_117is_pitch_down_keyERKNS_8KeyEventE
FN:76,city_input_state.cpp:_ZN6draxul12_GLOBAL__N_119drag_catch_up_alphaEf
FN:83,city_input_state.cpp:_ZN6draxul12_GLOBAL__N_115clamp_small_panERN3glm3vecILi2EfLNS1_9qualifierE0EEE
FN:89,city_input_state.cpp:_ZN6draxul12_GLOBAL__N_117clamp_small_orbitERf
FNDA:0,_ZN6draxul14CityInputState10reset_keysEv
FNDA:0,_ZN6draxul14CityInputState6on_keyERKNS_8KeyEventE
FNDA:6,_ZN6draxul14CityInputState15on_mouse_buttonERKNS_16MouseButtonEventE
FNDA:6,_ZN6draxul14CityInputState13on_mouse_moveERKNS_14MouseMoveEventERNS_15IsometricCameraE
FNDA:11,_ZNK6draxul14CityInputState15movement_activeEv
FNDA:12,_ZNK6draxul14CityInputState21drag_smoothing_activeEv
FNDA:0,_ZNK6draxul14CityInputState8movementEv
FNDA:9,_ZN6draxul14CityInputState20apply_drag_smoothingEfRNS_15IsometricCameraE
FNDA:9,_ZN6draxul14CityInputState13consume_clickEv
FNDA:9,_ZN6draxul14CityInputState20consume_double_clickEv
FNDA:0,city_input_state.cpp:_ZN6draxul12_GLOBAL__N_113is_left_arrowERKNS_8KeyEventE
FNDA:0,city_input_state.cpp:_ZN6draxul12_GLOBAL__N_114is_right_arrowERKNS_8KeyEventE
FNDA:0,city_input_state.cpp:_ZN6draxul12_GLOBAL__N_111is_up_arrowERKNS_8KeyEventE
FNDA:0,city_input_state.cpp:_ZN6draxul12_GLOBAL__N_113is_down_arrowERKNS_8KeyEventE
FNDA:0,city_input_state.cpp:_ZN6draxul12_GLOBAL__N_117is_orbit_left_keyERKNS_8KeyEventE
FNDA:0,city_input_state.cpp:_ZN6draxul12_GLOBAL__N_118is_orbit_right_keyERKNS_8KeyEventE
FNDA:0,city_input_state.cpp:_ZN6draxul12_GLOBAL__N_114is_zoom_in_keyERKNS_8KeyEventE
FNDA:0,city_input_state.cpp:_ZN6draxul12_GLOBAL__N_115is_zoom_out_keyERKNS_8KeyEventE
FNDA:0,city_input_state.cpp:_ZN6draxul12_GLOBAL__N_115is_pitch_up_keyERKNS_8KeyEventE
FNDA:0,city_input_state.cpp:_ZN6draxul12_GLOBAL__N_117is_pitch_down_keyERKNS_8KeyEventE
FNDA:8,city_input_state.cpp:_ZN6draxul12_GLOBAL__N_119drag_catch_up_alphaEf
FNDA:8,city_input_state.cpp:_ZN6draxul12_GLOBAL__N_115clamp_small_panERN3glm3vecILi2EfLNS1_9qualifierE0EEE
FNDA:4,city_input_state.cpp:_ZN6draxul12_GLOBAL__N_117clamp_small_orbitERf
FNF:23
FNH:10
DA:22,0
DA:23,0
DA:24,0
DA:25,0
DA:28,0
DA:29,0
DA:30,0
DA:31,0
DA:34,0
DA:35,0
DA:36,0
DA:37,0
DA:40,0
DA:41,0
DA:42,0
DA:43,0
DA:46,0
DA:47,0
DA:48,0
DA:51,0
DA:52,0
DA:53,0
DA:56,0
DA:57,0
DA:58,0
DA:61,0
DA:62,0
DA:63,0
DA:66,0
DA:67,0
DA:68,0
DA:71,0
DA:72,0
DA:73,0
DA:76,8
DA:77,8
DA:78,0
DA:79,8
DA:80,8
DA:83,8
DA:84,8
DA:85,3
DA:86,8
DA:89,4
DA:90,4
DA:91,2
DA:92,4
DA:97,0
DA:98,0
DA:99,0
DA:100,0
DA:101,0
DA:102,0
DA:103,0
DA:104,0
DA:105,0
DA:106,0
DA:107,0
DA:108,0
DA:111,0
DA:112,0
DA:113,0
DA:114,0
DA:115,0
DA:116,0
DA:117,0
DA:118,0
DA:119,0
DA:120,0
DA:121,0
DA:122,0
DA:123,0
DA:124,0
DA:125,0
DA:126,0
DA:127,0
DA:128,0
DA:129,0
DA:130,0
DA:131,0
DA:132,0
DA:133,0
DA:134,0
DA:135,0
DA:136,0
DA:137,0
DA:138,0
DA:139,0
DA:140,0
DA:141,0
DA:142,0
DA:143,0
DA:144,0
DA:145,0
DA:146,0
DA:147,0
DA:148,0
DA:149,0
DA:150,0
DA:151,0
DA:152,0
DA:153,0
DA:154,0
DA:155,0
DA:156,0
DA:157,0
DA:158,0
DA:159,0
DA:160,0
DA:161,0
DA:162,0
DA:163,0
DA:165,0
DA:166,0
DA:169,6
DA:170,6
DA:171,6
DA:172,0
DA:174,6
DA:175,3
DA:176,3
DA:177,3
DA:178,3
DA:179,3
DA:180,3
DA:181,3
DA:182,3
DA:183,3
DA:184,3
DA:185,2
DA:186,2
DA:187,2
DA:189,2
DA:190,2
DA:191,0
DA:192,0
DA:193,0
DA:194,0
DA:195,0
DA:196,0
DA:197,0
DA:198,0
DA:199,0
DA:200,0
DA:201,0
DA:203,2
DA:204,2
DA:205,2
DA:206,2
DA:207,2
DA:208,3
DA:209,6
DA:212,6
DA:213,6
DA:214,6
DA:215,0
DA:217,6
DA:218,6
DA:219,0
DA:220,0
DA:221,0
DA:222,0
DA:224,6
DA:225,6
DA:226,3
DA:227,3
DA:228,3
DA:229,3
DA:230,6
DA:231,6
DA:232,0
DA:235,6
DA:236,6
DA:237,3
DA:239,6
DA:240,3
DA:241,3
DA:242,2
DA:243,2
DA:244,2
DA:245,2
DA:246,1
DA:247,3
DA:249,3
DA:250,3
DA:251,0
DA:253,3
DA:254,3
DA:255,3
DA:258,11
DA:259,11
DA:260,11
DA:261,11
DA:264,12
DA:265,12
DA:266,12
DA:267,12
DA:270,0
DA:271,0
DA:272,0
DA:273,0
DA:274,0
DA:275,0
DA:276,0
DA:277,0
DA:278,0
DA:279,0
DA:280,0
DA:282,0
DA:283,0
DA:284,0
DA:285,0
DA:287,0
DA:288,0
DA:289,0
DA:290,0
DA:292,0
DA:293,0
DA:294,0
DA:295,0
DA:297,0
DA:298,0
DA:301,9
DA:302,9
DA:303,9
DA:304,1
DA:306,8
DA:307,8
DA:308,0
DA:310,8
DA:311,8
DA:312,8
DA:313,8
DA:314,8
DA:315,8
DA:316,8
DA:317,8
DA:318,8
DA:320,8
DA:321,4
DA:322,4
DA:323,4
DA:324,4
DA:325,4
DA:326,4
DA:327,4
DA:329,8
DA:330,8
DA:333,9
DA:334,9
DA:335,9
DA:336,9
DA:337,9
DA:340,9
DA:341,9
DA:342,9
DA:343,9
DA:344,9
BRDA:23,0,0,-
BRDA:23,0,1,-
BRDA:23,1,2,-
BRDA:23,1,3,-
BRDA:24,0,0,-
BRDA:24,0,1,-
BRDA:24,1,2,-
BRDA:24,1,3,-
BRDA:29,0,0,-
BRDA:29,0,1,-
BRDA:29,1,2,-
BRDA:29,1,3,-
BRDA:30,0,0,-
BRDA:30,0,1,-
BRDA:30,1,2,-
BRDA:30,1,3,-
BRDA:35,0,0,-
BRDA:35,0,1,-
BRDA:35,1,2,-
BRDA:35,1,3,-
BRDA:36,0,0,-
BRDA:36,0,1,-
BRDA:36,1,2,-
BRDA:36,1,3,-
BRDA:41,0,0,-
BRDA:41,0,1,-
BRDA:41,1,2,-
BRDA:41,1,3,-
BRDA:42,0,0,-
BRDA:42,0,1,-
BRDA:42,1,2,-
BRDA:42,1,3,-
BRDA:47,0,0,-
BRDA:47,0,1,-
BRDA:47,1,2,-
BRDA:47,1,3,-
BRDA:52,0,0,-
BRDA:52,0,1,-
BRDA:52,1,2,-
BRDA:52,1,3,-
BRDA:57,0,0,-
BRDA:57,0,1,-
BRDA:57,1,2,-
BRDA:57,1,3,-
BRDA:62,0,0,-
BRDA:62,0,1,-
BRDA:62,1,2,-
BRDA:62,1,3,-
BRDA:67,0,0,-
BRDA:67,0,1,-
BRDA:67,1,2,-
BRDA:67,1,3,-
BRDA:72,0,0,-
BRDA:72,0,1,-
BRDA:72,1,2,-
BRDA:72,1,3,-
BRDA:77,0,0,0
BRDA:77,0,1,8
BRDA:84,0,0,3
BRDA:84,0,1,5
BRDA:90,0,0,2
BRDA:90,0,1,2
BRDA:114,0,0,-
BRDA:114,0,1,-
BRDA:119,0,0,-
BRDA:119,0,1,-
BRDA:124,0,0,-
BRDA:124,0,1,-
BRDA:129,0,0,-
BRDA:129,0,1,-
BRDA:134,0,0,-
BRDA:134,0,1,-
BRDA:139,0,0,-
BRDA:139,0,1,-
BRDA:144,0,0,-
BRDA:144,0,1,-
BRDA:149,0,0,-
BRDA:149,0,1,-
BRDA:154,0,0,-
BRDA:154,0,1,-
BRDA:159,0,0,-
BRDA:159,0,1,-
BRDA:171,0,0,0
BRDA:171,0,1,6
BRDA:174,0,0,3
BRDA:174,0,1,3
BRDA:184,0,0,2
BRDA:184,0,1,1
BRDA:190,0,0,0
BRDA:190,0,1,2
BRDA:195,0,0,-
BRDA:195,0,1,-
BRDA:195,1,2,-
BRDA:195,1,3,-
BRDA:214,0,0,0
BRDA:214,0,1,6
BRDA:217,0,0,0
BRDA:217,0,1,6
BRDA:218,0,0,-
BRDA:218,0,1,-
BRDA:225,0,0,3
BRDA:225,0,1,3
BRDA:231,0,0,0
BRDA:231,0,1,6
BRDA:236,0,0,3
BRDA:236,0,1,3
BRDA:236,1,2,0
BRDA:236,1,3,3
BRDA:239,0,0,3
BRDA:239,0,1,3
BRDA:241,0,0,2
BRDA:241,0,1,1
BRDA:250,0,0,0
BRDA:250,0,1,3
BRDA:259,0,0,0
BRDA:259,0,1,11
BRDA:259,1,2,0
BRDA:259,1,3,11
BRDA:259,2,4,0
BRDA:259,2,5,11
BRDA:259,3,6,0
BRDA:259,3,7,11
BRDA:259,4,8,0
BRDA:259,4,9,11
BRDA:259,5,10,0
BRDA:259,5,11,11
BRDA:260,0,0,0
BRDA:260,0,1,11
BRDA:260,1,2,0
BRDA:260,1,3,11
BRDA:260,2,4,0
BRDA:260,2,5,11
BRDA:260,3,6,0
BRDA:260,3,7,11
BRDA:265,0,0,8
BRDA:265,0,1,4
BRDA:266,0,0,0
BRDA:266,0,1,4
BRDA:273,0,0,-
BRDA:273,0,1,-
BRDA:275,0,0,-
BRDA:275,0,1,-
BRDA:277,0,0,-
BRDA:277,0,1,-
BRDA:279,0,0,-
BRDA:279,0,1,-
BRDA:282,0,0,-
BRDA:282,0,1,-
BRDA:284,0,0,-
BRDA:284,0,1,-
BRDA:287,0,0,-
BRDA:287,0,1,-
BRDA:289,0,0,-
BRDA:289,0,1,-
BRDA:292,0,0,-
BRDA:292,0,1,-
BRDA:294,0,0,-
BRDA:294,0,1,-
BRDA:303,0,0,1
BRDA:303,0,1,8
BRDA:307,0,0,0
BRDA:307,0,1,8
BRDA:311,0,0,8
BRDA:311,0,1,0
BRDA:320,0,0,4
BRDA:320,0,1,4
BRF:166
BRH:43
LF:258
LH:111
end_of_record
SF:/Users/runner/work/Draxul/Draxul/libs/draxul-megacity/src/city_picking.cpp
FN:365,_ZN6draxul13pick_buildingERKN3glm3vecILi2EiLNS0_9qualifierE0EEEiiRKNS_15IsometricCameraERKNS_22SemanticMegacityLayoutERKNSt3__18functionIFbRKNSC_12basic_stringIcNSC_11char_traitsIcEENSC_9allocatorIcEEEESL_SL_EEEPKNS_21SemanticMegacityModelEPKNS_18MegaCityCodeConfigE
FN:138,city_picking.cpp:_ZN6draxul12_GLOBAL__N_132build_incident_connection_countsERKNS_21SemanticMegacityModelE
FN:142,city_picking.cpp:_ZZN6draxul12_GLOBAL__N_132build_incident_connection_countsERKNS_21SemanticMegacityModelEENK3$_0clENSt3__117basic_string_viewIcNS5_11char_traitsIcEEEES9_S9_
FN:185,city_picking.cpp:_ZN6draxul12_GLOBAL__N_119building_side_countERKNS_20SemanticCityBuildingEPKNSt3__113unordered_mapINS4_12basic_stringIcNS4_11char_traitsIcEENS4_9allocatorIcEEEEiNS4_4hashISB_EENS4_8equal_toISB_EENS9_INS4_4pairIKSB_iEEEEEEPKNS_18MegaCityCodeConfigE
FN:170,city_picking.cpp:_ZN6draxul12_GLOBAL__N_123building_connection_keyENSt3__117basic_string_viewIcNS1_11char_traitsIcEEEES5_S5_
FN:285,city_picking.cpp:_ZN6draxul12_GLOBAL__N_122ray_building_intersectERKN3glm3vecILi3EfLNS1_9qualifierE0EEES6_RKNS_20SemanticCityBuildingEifff
FN:71,city_picking.cpp:_ZN6draxul12_GLOBAL__N_128make_building_contour_pointsERKNS_20SemanticCityBuildingEif
FN:98,city_picking.cpp:_ZN6draxul12_GLOBAL__N_119make_picking_levelsERKNS_20SemanticCityBuildingEf
FN:234,city_picking.cpp:_ZN6draxul12_GLOBAL__N_118consider_strip_hitERKN3glm3vecILi3EfLNS1_9qualifierE0EEES6_RKNSt3__16vectorINS2_ILi2EfLS3_0EEENS7_9allocatorIS9_EEEESE_ffjRNS0_14RayBuildingHitE
FN:210,city_picking.cpp:_ZN6draxul12_GLOBAL__N_121consider_triangle_hitERKN3glm3vecILi3EfLNS1_9qualifierE0EEES6_S6_S6_S6_jRNS0_14RayBuildingHitE
FN:41,city_picking.cpp:_ZN6draxul12_GLOBAL__N_122ray_triangle_intersectERKN3glm3vecILi3EfLNS1_9qualifierE0EEES6_S6_S6_S6_Rf
FN:258,city_picking.cpp:_ZN6draxul12_GLOBAL__N_120consider_top_cap_hitERKN3glm3vecILi3EfLNS1_9qualifierE0EEES6_RKNSt3__16vectorINS2_ILi2EfLS3_0EEENS7_9allocatorIS9_EEEEfjRNS0_14RayBuildingHitE
FNDA:2,_ZN6draxul13pick_buildingERKN3glm3vecILi2EiLNS0_9qualifierE0EEEiiRKNS_15IsometricCameraERKNS_22SemanticMegacityLayoutERKNSt3__18functionIFbRKNSC_12basic_stringIcNSC_11char_traitsIcEENSC_9allocatorIcEEEESL_SL_EEEPKNS_21SemanticMegacityModelEPKNS_18MegaCityCodeConfigE
FNDA:0,city_picking.cpp:_ZN6draxul12_GLOBAL__N_132build_incident_connection_countsERKNS_21SemanticMegacityModelE
FNDA:0,city_picking.cpp:_ZZN6draxul12_GLOBAL__N_132build_incident_connection_countsERKNS_21SemanticMegacityModelEENK3$_0clENSt3__117basic_string_viewIcNS5_11char_traitsIcEEEES9_S9_
FNDA:3,city_picking.cpp:_ZN6draxul12_GLOBAL__N_119building_side_countERKNS_20SemanticCityBuildingEPKNSt3__113unordered_mapINS4_12basic_stringIcNS4_11char_traitsIcEENS4_9allocatorIcEEEEiNS4_4hashISB_EENS4_8equal_toISB_EENS9_INS4_4pairIKSB_iEEEEEEPKNS_18MegaCityCodeConfigE
FNDA:0,city_picking.cpp:_ZN6draxul12_GLOBAL__N_123building_connection_keyENSt3__117basic_string_viewIcNS1_11char_traitsIcEEEES5_S5_
FNDA:3,city_picking.cpp:_ZN6draxul12_GLOBAL__N_122ray_building_intersectERKN3glm3vecILi3EfLNS1_9qualifierE0EEES6_RKNS_20SemanticCityBuildingEifff
FNDA:6,city_picking.cpp:_ZN6draxul12_GLOBAL__N_128make_building_contour_pointsERKNS_20SemanticCityBuildingEif
FNDA:3,city_picking.cpp:_ZN6draxul12_GLOBAL__N_119make_picking_levelsERKNS_20SemanticCityBuildingEf
FNDA:12,city_picking.cpp:_ZN6draxul12_GLOBAL__N_118consider_strip_hitERKN3glm3vecILi3EfLNS1_9qualifierE0EEES6_RKNSt3__16vectorINS2_ILi2EfLS3_0EEENS7_9allocatorIS9_EEEESE_ffjRNS0_14RayBuildingHitE
FNDA:108,city_picking.cpp:_ZN6draxul12_GLOBAL__N_121consider_triangle_hitERKN3glm3vecILi3EfLNS1_9qualifierE0EEES6_S6_S6_S6_jRNS0_14RayBuildingHitE
FNDA:108,city_picking.cpp:_ZN6draxul12_GLOBAL__N_122ray_triangle_intersectERKN3glm3vecILi3EfLNS1_9qualifierE0EEES6_S6_S6_S6_Rf
FNDA:3,city_picking.cpp:_ZN6draxul12_GLOBAL__N_120consider_top_cap_hitERKN3glm3vecILi3EfLNS1_9qualifierE0EEES6_RKNSt3__16vectorINS2_ILi2EfLS3_0EEENS7_9allocatorIS9_EEEEfjRNS0_14RayBuildingHitE
FNF:12
FNH:9
DA:41,108
DA:42,108
DA:43,108
DA:44,108
DA:45,108
DA:46,108
DA:47,108
DA:48,108
DA:49,0
DA:51,108
DA:52,108
DA:53,108
DA:54,108
DA:55,79
DA:57,29
DA:58,29
DA:59,29
DA:60,25
DA:62,4
DA:63,4
DA:64,0
DA:66,4
DA:67,4
DA:68,4
DA:71,6
DA:72,6
DA:73,6
DA:74,6
DA:75,6
DA:76,6
DA:77,6
DA:78,6
DA:79,6
DA:80,6
DA:81,6
DA:82,6
DA:83,6
DA:84,0
DA:85,0
DA:86,0
DA:87,0
DA:88,0
DA:89,0
DA:90,0
DA:91,0
DA:92,0
DA:93,0
DA:94,6
DA:95,6
DA:98,3
DA:99,3
DA:100,3
DA:101,3
DA:102,3
DA:103,3
DA:104,3
DA:105,3
DA:106,3
DA:107,3
DA:108,3
DA:109,3
DA:111,0
DA:112,0
DA:113,0
DA:114,0
DA:115,0
DA:116,0
DA:117,0
DA:118,0
DA:119,0
DA:120,0
DA:121,0
DA:122,0
DA:123,0
DA:124,0
DA:126,0
DA:127,0
DA:128,0
DA:129,0
DA:130,0
DA:131,0
DA:132,0
DA:133,0
DA:134,0
DA:135,3
DA:138,0
DA:139,0
DA:140,0
DA:141,0
DA:142,0
DA:143,0
DA:144,0
DA:145,0
DA:146,0
DA:147,0
DA:148,0
DA:149,0
DA:150,0
DA:151,0
DA:152,0
DA:153,0
DA:154,0
DA:155,0
DA:156,0
DA:157,0
DA:158,0
DA:159,0
DA:160,0
DA:161,0
DA:162,0
DA:163,0
DA:164,0
DA:170,0
DA:171,0
DA:172,0
DA:173,0
DA:174,0
DA:175,0
DA:176,0
DA:177,0
DA:178,0
DA:179,0
DA:185,3
DA:186,3
DA:187,3
DA:188,3
DA:190,0
DA:191,0
DA:192,0
DA:193,0
DA:194,0
DA:195,0
DA:196,0
DA:197,0
DA:198,0
DA:199,0
DA:200,3
DA:210,108
DA:211,108
DA:212,108
DA:213,108
DA:214,104
DA:216,4
DA:217,0
DA:219,4
DA:220,4
DA:221,4
DA:222,4
DA:223,4
DA:234,12
DA:235,12
DA:236,12
DA:237,0
DA:239,60
DA:240,48
DA:241,48
DA:242,48
DA:243,48
DA:244,48
DA:245,48
DA:246,48
DA:247,48
DA:248,48
DA:249,12
DA:258,3
DA:259,3
DA:260,3
DA:261,0
DA:263,3
DA:264,3
DA:265,12
DA:266,3
DA:267,3
DA:268,15
DA:269,12
DA:270,12
DA:271,12
DA:272,12
DA:273,12
DA:274,12
DA:275,3
DA:285,3
DA:286,3
DA:287,3
DA:288,3
DA:289,3
DA:290,0
DA:292,3
DA:293,3
DA:294,0
DA:296,3
DA:297,3
DA:298,3
DA:299,3
DA:300,3
DA:301,3
DA:302,3
DA:303,3
DA:304,3
DA:305,3
DA:306,3
DA:307,3
DA:308,3
DA:309,3
DA:310,3
DA:311,3
DA:312,3
DA:313,3
DA:314,3
DA:315,3
DA:316,3
DA:317,3
DA:318,3
DA:319,3
DA:320,3
DA:321,3
DA:322,3
DA:323,3
DA:324,3
DA:325,3
DA:326,3
DA:327,3
DA:329,3
DA:330,3
DA:333,3
DA:334,3
DA:335,3
DA:336,3
DA:337,3
DA:338,3
DA:339,3
DA:340,3
DA:342,3
DA:343,3
DA:344,3
DA:345,3
DA:346,3
DA:347,3
DA:348,3
DA:350,3
DA:351,1
DA:352,2
DA:353,3
DA:365,2
DA:366,2
DA:367,2
DA:368,0
DA:371,2
DA:372,2
DA:374,2
DA:377,2
DA:378,2
DA:379,2
DA:380,2
DA:382,2
DA:383,2
DA:384,2
DA:385,2
DA:386,2
DA:387,2
DA:389,2
DA:390,2
DA:392,2
DA:393,2
DA:394,2
DA:395,4
DA:396,4
DA:397,4
DA:398,2
DA:399,2
DA:400,2
DA:401,1
DA:402,1
DA:403,1
DA:408,3
DA:409,3
DA:411,3
DA:412,3
DA:413,3
DA:414,3
DA:415,3
DA:416,3
DA:417,3
DA:418,3
DA:419,3
DA:420,3
DA:421,3
DA:422,3
DA:423,3
DA:424,2
DA:425,2
DA:426,2
DA:427,2
DA:428,2
DA:429,2
DA:430,2
DA:431,2
DA:432,2
DA:433,2
DA:434,2
DA:435,2
DA:436,2
DA:437,2
DA:438,3
DA:439,2
DA:441,2
DA:442,2
BRDA:48,0,0,0
BRDA:48,0,1,108
BRDA:54,0,0,41
BRDA:54,0,1,67
BRDA:54,1,2,38
BRDA:54,1,3,29
BRDA:59,0,0,17
BRDA:59,0,1,12
BRDA:59,1,2,8
BRDA:59,1,3,4
BRDA:63,0,0,0
BRDA:63,0,1,4
BRDA:77,0,0,6
BRDA:77,0,1,0
BRDA:86,0,0,-
BRDA:86,0,1,-
BRDA:101,0,0,3
BRDA:101,0,1,0
BRDA:113,0,0,-
BRDA:113,0,1,-
BRDA:116,0,0,-
BRDA:116,0,1,-
BRDA:126,0,0,-
BRDA:126,0,1,-
BRDA:152,0,0,-
BRDA:152,0,1,-
BRDA:187,0,0,3
BRDA:187,0,1,0
BRDA:187,1,2,-
BRDA:187,1,3,-
BRDA:195,0,0,-
BRDA:195,0,1,-
BRDA:213,0,0,104
BRDA:213,0,1,4
BRDA:216,0,0,0
BRDA:216,0,1,4
BRDA:216,1,2,0
BRDA:216,1,3,4
BRDA:236,0,0,0
BRDA:236,0,1,12
BRDA:236,1,2,0
BRDA:236,1,3,12
BRDA:239,0,0,48
BRDA:239,0,1,12
BRDA:260,0,0,0
BRDA:260,0,1,3
BRDA:264,0,0,12
BRDA:264,0,1,3
BRDA:268,0,0,12
BRDA:268,0,1,3
BRDA:289,0,0,0
BRDA:289,0,1,3
BRDA:289,1,2,0
BRDA:289,1,3,3
BRDA:293,0,0,0
BRDA:293,0,1,3
BRDA:297,0,0,3
BRDA:297,0,1,3
BRDA:333,0,0,3
BRDA:333,0,1,0
BRDA:350,0,0,1
BRDA:350,0,1,2
BRDA:367,0,0,0
BRDA:367,0,1,2
BRDA:367,1,2,0
BRDA:367,1,3,2
BRDA:385,0,0,0
BRDA:385,0,1,2
BRDA:385,1,2,-
BRDA:385,1,3,-
BRDA:386,0,0,0
BRDA:386,0,1,2
BRDA:387,0,0,0
BRDA:387,0,1,2
BRDA:392,0,0,2
BRDA:392,0,1,2
BRDA:394,0,0,4
BRDA:394,0,1,2
BRDA:396,0,0,2
BRDA:396,0,1,2
BRDA:397,0,0,1
BRDA:397,0,1,1
BRDA:413,0,0,0
BRDA:413,0,1,3
BRDA:423,0,0,2
BRDA:423,0,1,1
BRDA:423,1,2,2
BRDA:423,1,3,0
BRF:88
BRH:51
LF:317
LH:219
end_of_record
SF:/Users/runner/work/Draxul/Draxul/libs/draxul-megacity/src/isometric_camera.cpp
FN:42,_ZN6draxul15IsometricCamera12set_viewportEii
FN:49,_ZN6draxul15IsometricCamera20look_at_world_centerEff
FN:55,_ZN6draxul15IsometricCamera18frame_world_boundsEffff
FN:85,_ZN6draxul15IsometricCamera20reframe_world_boundsEffff
FN:111,_ZN6draxul15IsometricCamera10set_targetERKN3glm3vecILi3EfLNS1_9qualifierE0EEE
FN:118,_ZN6draxul15IsometricCamera16translate_targetEff
FN:124,_ZN6draxul15IsometricCamera12orbit_targetEf
FN:134,_ZN6draxul15IsometricCamera7zoom_byEf
FN:145,_ZN6draxul15IsometricCamera12adjust_pitchEf
FN:156,_ZNK6draxul15IsometricCamera25pan_delta_for_screen_dragERKN3glm3vecILi2EfLNS1_9qualifierE0EEE
FN:172,_ZNK6draxul15IsometricCamera19planar_right_vectorEv
FN:180,_ZNK6draxul15IsometricCamera16planar_up_vectorEv
FN:189,_ZNK6draxul15IsometricCamera11view_matrixEv
FN:195,_ZNK6draxul15IsometricCamera11proj_matrixEv
FN:203,_ZNK6draxul15IsometricCamera5stateEv
FN:215,_ZN6draxul15IsometricCamera11apply_stateERKNS_20IsometricCameraStateE
FN:226,_ZNK6draxul15IsometricCamera24visible_ground_footprintEf
FN:276,_ZN6draxul15IsometricCamera20update_follow_offsetEv
FN:288,_ZN6draxul15IsometricCamera16update_far_planeEv
FN:31,isometric_camera.cpp:_ZN6draxul12_GLOBAL__N_117normalized_planarERKN3glm3vecILi3EfLNS1_9qualifierE0EEERKNS2_ILi2EfLS3_0EEE
FN:25,isometric_camera.cpp:_ZN6draxul12_GLOBAL__N_118far_plane_for_viewERKN3glm3vecILi3EfLNS1_9qualifierE0EEEf
FNDA:20,_ZN6draxul15IsometricCamera12set_viewportEii
FNDA:9,_ZN6draxul15IsometricCamera20look_at_world_centerEff
FNDA:23,_ZN6draxul15IsometricCamera18frame_world_boundsEffff
FNDA:1,_ZN6draxul15IsometricCamera20reframe_world_boundsEffff
FNDA:35,_ZN6draxul15IsometricCamera10set_targetERKN3glm3vecILi3EfLNS1_9qualifierE0EEE
FNDA:9,_ZN6draxul15IsometricCamera16translate_targetEff
FNDA:6,_ZN6draxul15IsometricCamera12orbit_targetEf
FNDA:2,_ZN6draxul15IsometricCamera7zoom_byEf
FNDA:2,_ZN6draxul15IsometricCamera12adjust_pitchEf
FNDA:4,_ZNK6draxul15IsometricCamera25pan_delta_for_screen_dragERKN3glm3vecILi2EfLNS1_9qualifierE0EEE
FNDA:2,_ZNK6draxul15IsometricCamera19planar_right_vectorEv
FNDA:2,_ZNK6draxul15IsometricCamera16planar_up_vectorEv
FNDA:45,_ZNK6draxul15IsometricCamera11view_matrixEv
FNDA:45,_ZNK6draxul15IsometricCamera11proj_matrixEv
FNDA:9,_ZNK6draxul15IsometricCamera5stateEv
FNDA:1,_ZN6draxul15IsometricCamera11apply_stateERKNS_20IsometricCameraStateE
FNDA:21,_ZNK6draxul15IsometricCamera24visible_ground_footprintEf
FNDA:33,_ZN6draxul15IsometricCamera20update_follow_offsetEv
FNDA:35,_ZN6draxul15IsometricCamera16update_far_planeEv
FNDA:12,isometric_camera.cpp:_ZN6draxul12_GLOBAL__N_117normalized_planarERKN3glm3vecILi3EfLNS1_9qualifierE0EEERKNS2_ILi2EfLS3_0EEE
FNDA:35,isometric_camera.cpp:_ZN6draxul12_GLOBAL__N_118far_plane_for_viewERKN3glm3vecILi3EfLNS1_9qualifierE0EEEf
FNF:21
FNH:21
DA:25,35
DA:27,35
DA:28,35
DA:31,12
DA:32,12
DA:33,12
DA:34,12
DA:35,0
DA:36,12
DA:37,12
DA:42,20
DA:43,20
DA:44,20
DA:45,20
DA:46,20
DA:49,9
DA:50,9
DA:51,9
DA:52,9
DA:55,23
DA:56,23
DA:57,23
DA:58,0
DA:59,0
DA:60,0
DA:61,0
DA:62,0
DA:63,0
DA:64,0
DA:65,0
DA:66,0
DA:67,0
DA:68,0
DA:69,0
DA:71,23
DA:72,23
DA:73,23
DA:74,23
DA:75,23
DA:76,23
DA:77,23
DA:78,23
DA:79,23
DA:80,23
DA:81,23
DA:82,23
DA:85,1
DA:86,1
DA:87,1
DA:88,0
DA:89,0
DA:90,0
DA:91,0
DA:92,0
DA:93,0
DA:94,0
DA:95,0
DA:96,0
DA:97,0
DA:99,1
DA:100,1
DA:101,1
DA:102,1
DA:103,1
DA:104,1
DA:105,1
DA:106,1
DA:107,1
DA:108,1
DA:111,35
DA:112,35
DA:113,35
DA:114,35
DA:115,35
DA:118,9
DA:119,9
DA:120,9
DA:121,9
DA:124,6
DA:125,6
DA:126,6
DA:127,0
DA:128,6
DA:129,6
DA:130,6
DA:131,6
DA:134,2
DA:135,2
DA:136,2
DA:137,0
DA:139,2
DA:140,2
DA:141,2
DA:142,2
DA:145,2
DA:146,2
DA:147,2
DA:148,0
DA:150,2
DA:151,2
DA:152,2
DA:153,2
DA:156,4
DA:157,4
DA:158,4
DA:159,4
DA:160,4
DA:161,4
DA:162,4
DA:164,4
DA:165,4
DA:167,4
DA:168,4
DA:169,4
DA:172,2
DA:173,2
DA:174,2
DA:175,2
DA:176,2
DA:177,2
DA:180,2
DA:181,2
DA:182,2
DA:183,2
DA:184,2
DA:185,2
DA:186,2
DA:189,45
DA:190,45
DA:191,45
DA:192,45
DA:195,45
DA:196,45
DA:197,45
DA:198,45
DA:199,45
DA:200,45
DA:203,9
DA:204,9
DA:205,9
DA:206,9
DA:207,9
DA:208,9
DA:209,9
DA:210,9
DA:211,9
DA:212,9
DA:215,1
DA:216,1
DA:217,1
DA:218,1
DA:219,1
DA:220,1
DA:221,1
DA:222,1
DA:223,1
DA:226,21
DA:227,21
DA:228,21
DA:230,21
DA:231,21
DA:232,21
DA:233,21
DA:234,21
DA:236,21
DA:237,21
DA:238,21
DA:239,21
DA:240,21
DA:241,21
DA:243,21
DA:244,84
DA:245,84
DA:246,84
DA:247,84
DA:248,84
DA:250,84
DA:251,84
DA:252,84
DA:253,84
DA:254,0
DA:256,84
DA:257,84
DA:258,84
DA:259,84
DA:260,84
DA:261,84
DA:262,84
DA:264,21
DA:265,0
DA:266,0
DA:267,0
DA:268,0
DA:269,0
DA:270,0
DA:272,21
DA:273,21
DA:276,33
DA:277,33
DA:278,33
DA:279,33
DA:280,33
DA:281,33
DA:282,33
DA:283,33
DA:284,33
DA:285,33
DA:288,35
DA:289,35
DA:290,35
DA:291,35
BRDA:34,0,0,0
BRDA:34,0,1,12
BRDA:45,0,0,20
BRDA:45,0,1,0
BRDA:57,0,0,0
BRDA:57,0,1,23
BRDA:57,1,2,0
BRDA:57,1,3,23
BRDA:87,0,0,0
BRDA:87,0,1,1
BRDA:87,1,2,0
BRDA:87,1,3,1
BRDA:126,0,0,0
BRDA:126,0,1,6
BRDA:136,0,0,0
BRDA:136,0,1,2
BRDA:147,0,0,0
BRDA:147,0,1,2
BRDA:243,0,0,84
BRDA:243,0,1,21
BRDA:253,0,0,0
BRDA:253,0,1,84
BRDA:264,0,0,0
BRDA:264,0,1,21
BRDA:264,1,2,0
BRDA:264,1,3,21
BRF:26
BRH:14
LF:211
LH:178
end_of_record
SF:/Users/runner/work/Draxul/Draxul/libs/draxul-megacity/src/isometric_camera.h
FN:47,_ZNK6draxul15IsometricCamera9far_planeEv
FN:51,_ZNK6draxul15IsometricCamera16zoom_half_heightEv
FN:55,_ZNK6draxul15IsometricCamera11pitch_angleEv
FN:59,_ZNK6draxul15IsometricCamera8positionEv
FNDA:1,_ZNK6draxul15IsometricCamera9far_planeEv
FNDA:2,_ZNK6draxul15IsometricCamera16zoom_half_heightEv
FNDA:2,_ZNK6draxul15IsometricCamera11pitch_angleEv
FNDA:16,_ZNK6draxul15IsometricCamera8positionEv
FNF:4
FNH:4
DA:47,1
DA:48,1
DA:49,1
DA:51,2
DA:52,2
DA:53,2
DA:55,2
DA:56,2
DA:57,2
DA:59,16
DA:60,16
DA:61,16
BRF:0
BRH:0
LF:12
LH:12
end_of_record
SF:/Users/runner/work/Draxul/Draxul/libs/draxul-megacity/src/isometric_scene_pass.h
FN:46,_ZN6draxul18IsometricScenePass5sceneEv
FN:18,_ZN6draxul18IsometricScenePass9set_sceneENS_13SceneSnapshotE
FN:30,_ZNK6draxul18IsometricScenePass10grid_widthEv
FN:34,_ZNK6draxul18IsometricScenePass11grid_heightEv
FN:38,_ZNK6draxul18IsometricScenePass9tile_sizeEv
FN:42,_ZNK6draxul18IsometricScenePass5sceneEv
FNDA:13,_ZN6draxul18IsometricScenePass5sceneEv
FNDA:12,_ZN6draxul18IsometricScenePass9set_sceneENS_13SceneSnapshotE
FNDA:0,_ZNK6draxul18IsometricScenePass10grid_widthEv
FNDA:0,_ZNK6draxul18IsometricScenePass11grid_heightEv
FNDA:0,_ZNK6draxul18IsometricScenePass9tile_sizeEv
FNDA:0,_ZNK6draxul18IsometricScenePass5sceneEv
FNF:6
FNH:2
DA:18,12
DA:19,12
DA:20,12
DA:30,0
DA:31,0
DA:32,0
DA:34,0
DA:35,0
DA:36,0
DA:38,0
DA:39,0
DA:40,0
DA:42,0
DA:43,0
DA:44,0
DA:46,13
DA:47,13
DA:48,13
BRF:0
BRH:0
LF:18
LH:6
end_of_record
SF:/Users/runner/work/Draxul/Draxul/libs/draxul-megacity/src/isometric_scene_types.h
FN:89,_ZNK6draxul14LabelAtlasData5validEv
FN:181,_ZNK6draxul14TooltipOverlay5validEv
FNDA:0,_ZNK6draxul14LabelAtlasData5validEv
FNDA:0,_ZNK6draxul14TooltipOverlay5validEv
FNF:2
FNH:0
DA:89,0
DA:90,0
DA:91,0
DA:92,0
DA:181,0
DA:182,0
DA:183,0
DA:184,0
BRDA:90,0,0,-
BRDA:90,0,1,-
BRDA:90,1,2,-
BRDA:90,1,3,-
BRDA:91,0,0,-
BRDA:91,0,1,-
BRDA:182,0,0,-
BRDA:182,0,1,-
BRDA:182,1,2,-
BRDA:182,1,3,-
BRDA:182,2,4,-
BRDA:182,2,5,-
BRDA:183,0,0,-
BRDA:183,0,1,-
BRF:14
BRH:0
LF:8
LH:0
end_of_record
SF:/Users/runner/work/Draxul/Draxul/libs/draxul-megacity/src/lcov_coverage.cpp
FN:79,_ZN6draxul10parse_lcovENSt3__117basic_string_viewIcNS0_11char_traitsIcEEEE
FN:152,_ZN6draxul14load_lcov_fileERKNSt3__14__fs10filesystem4pathE
FN:175,_ZN6draxul17build_lcov_lookupERKNS_18LcovCoverageReportERKNSt3__14__fs10filesystem4pathE
FN:213,_ZN6draxul21lcov_function_coveredERKNS_18LcovFunctionLookupENSt3__117basic_string_viewIcNS3_11char_traitsIcEEEES7_S7_
FN:68,lcov_coverage.cpp:_ZN6draxul12_GLOBAL__N_113make_relativeERKNSt3__14__fs10filesystem4pathES6_
FN:31,lcov_coverage.cpp:_ZN6draxul12_GLOBAL__N_112try_demangleERKNSt3__112basic_stringIcNS1_11char_traitsIcEENS1_9allocatorIcEEEE
FN:20,lcov_coverage.cpp:_ZN6draxul12_GLOBAL__N_117file_function_keyENSt3__117basic_string_viewIcNS1_11char_traitsIcEEEES5_
FN:48,lcov_coverage.cpp:_ZN6draxul12_GLOBAL__N_127extract_short_function_nameENSt3__117basic_string_viewIcNS1_11char_traitsIcEEEE
FNDA:4,_ZN6draxul10parse_lcovENSt3__117basic_string_viewIcNS0_11char_traitsIcEEEE
FNDA:0,_ZN6draxul14load_lcov_fileERKNSt3__14__fs10filesystem4pathE
FNDA:4,_ZN6draxul17build_lcov_lookupERKNS_18LcovCoverageReportERKNSt3__14__fs10filesystem4pathE
FNDA:11,_ZN6draxul21lcov_function_coveredERKNS_18LcovFunctionLookupENSt3__117basic_string_viewIcNS3_11char_traitsIcEEEES7_S7_
FNDA:5,lcov_coverage.cpp:_ZN6draxul12_GLOBAL__N_113make_relativeERKNSt3__14__fs10filesystem4pathES6_
FNDA:8,lcov_coverage.cpp:_ZN6draxul12_GLOBAL__N_112try_demangleERKNSt3__112basic_stringIcNS1_11char_traitsIcEENS1_9allocatorIcEEEE
FNDA:27,lcov_coverage.cpp:_ZN6draxul12_GLOBAL__N_117file_function_keyENSt3__117basic_string_viewIcNS1_11char_traitsIcEEEES5_
FNDA:8,lcov_coverage.cpp:_ZN6draxul12_GLOBAL__N_127extract_short_function_nameENSt3__117basic_string_viewIcNS1_11char_traitsIcEEEE
FNF:8
FNH:7
DA:20,27
DA:21,27
DA:22,27
DA:23,27
DA:24,27
DA:25,27
DA:26,27
DA:27,27
DA:31,8
DA:32,8
DA:33,8
DA:34,8
DA:35,0
DA:36,0
DA:37,0
DA:38,0
DA:39,0
DA:40,0
DA:41,0
DA:42,0
DA:48,8
DA:50,8
DA:51,8
DA:52,8
DA:55,8
DA:56,0
DA:59,8
DA:60,8
DA:61,6
DA:63,8
DA:64,8
DA:68,5
DA:69,5
DA:70,5
DA:71,5
DA:72,0
DA:73,5
DA:74,5
DA:79,4
DA:80,4
DA:81,4
DA:83,4
DA:84,22
DA:85,18
DA:86,18
DA:87,18
DA:88,18
DA:91,18
DA:92,18
DA:93,18
DA:95,18
DA:96,4
DA:97,4
DA:98,4
DA:99,4
DA:100,4
DA:101,14
DA:102,5
DA:104,5
DA:105,5
DA:106,5
DA:107,5
DA:108,5
DA:109,5
DA:110,5
DA:111,9
DA:112,5
DA:114,5
DA:115,5
DA:116,5
DA:117,5
DA:118,5
DA:121,5
DA:122,6
DA:123,6
DA:124,5
DA:125,5
DA:126,5
DA:127,5
DA:128,6
DA:129,5
DA:130,5
DA:131,4
DA:132,4
DA:133,4
DA:134,4
DA:135,18
DA:138,4
DA:139,4
DA:140,4
DA:141,5
DA:142,5
DA:143,5
DA:144,3
DA:145,5
DA:146,4
DA:148,4
DA:149,4
DA:152,0
DA:153,0
DA:154,0
DA:155,0
DA:156,0
DA:157,0
DA:158,0
DA:160,0
DA:161,0
DA:162,0
DA:163,0
DA:164,0
DA:165,0
DA:167,0
DA:168,0
DA:169,0
DA:170,0
DA:175,4
DA:176,4
DA:177,4
DA:178,4
DA:180,4
DA:181,5
DA:182,5
DA:184,5
DA:185,8
DA:186,8
DA:189,8
DA:192,8
DA:195,8
DA:196,8
DA:197,8
DA:200,8
DA:201,8
DA:202,8
DA:203,5
DA:205,4
DA:206,4
DA:213,11
DA:215,11
DA:216,11
DA:217,11
DA:218,6
DA:221,5
DA:222,5
DA:223,3
DA:225,2
DA:226,5
BRDA:33,0,0,0
BRDA:33,0,1,8
BRDA:33,1,2,8
BRDA:33,1,3,0
BRDA:38,0,0,-
BRDA:38,0,1,-
BRDA:38,1,2,-
BRDA:38,1,3,-
BRDA:51,0,0,8
BRDA:51,0,1,0
BRDA:55,0,0,8
BRDA:55,0,1,0
BRDA:55,1,2,0
BRDA:55,1,3,8
BRDA:60,0,0,6
BRDA:60,0,1,2
BRDA:71,0,0,0
BRDA:71,0,1,5
BRDA:71,1,2,0
BRDA:71,1,3,5
BRDA:71,2,4,0
BRDA:71,2,5,5
BRDA:71,3,6,0
BRDA:71,3,7,5
BRDA:84,0,0,18
BRDA:84,0,1,4
BRDA:87,0,0,0
BRDA:87,0,1,18
BRDA:88,0,0,0
BRDA:88,0,1,18
BRDA:91,0,0,18
BRDA:91,0,1,0
BRDA:91,1,2,4
BRDA:91,1,3,14
BRDA:95,0,0,4
BRDA:95,0,1,14
BRDA:101,0,0,5
BRDA:101,0,1,9
BRDA:101,1,2,5
BRDA:101,1,3,0
BRDA:105,0,0,5
BRDA:105,0,1,0
BRDA:111,0,0,5
BRDA:111,0,1,4
BRDA:111,1,2,5
BRDA:111,1,3,0
BRDA:115,0,0,5
BRDA:115,0,1,0
BRDA:121,0,0,6
BRDA:121,0,1,0
BRDA:123,0,0,5
BRDA:123,0,1,1
BRDA:131,0,0,4
BRDA:131,0,1,0
BRDA:138,0,0,4
BRDA:138,0,1,4
BRDA:140,0,0,5
BRDA:140,0,1,4
BRDA:143,0,0,3
BRDA:143,0,1,2
BRDA:154,0,0,-
BRDA:154,0,1,-
BRDA:161,0,0,-
BRDA:161,0,1,-
BRDA:180,0,0,5
BRDA:180,0,1,4
BRDA:184,0,0,8
BRDA:184,0,1,5
BRDA:196,0,0,8
BRDA:196,0,1,0
BRDA:217,0,0,6
BRDA:217,0,1,5
BRDA:222,0,0,3
BRDA:222,0,1,2
BRF:74
BRH:47
LF:146
LH:119
end_of_record
SF:/Users/runner/work/Draxul/Draxul/libs/draxul-megacity/src/live_city_metrics.cpp
FN:233,_ZN6draxul32build_live_city_metrics_snapshotERKNS_21SemanticMegacityModelEPKNS_19RuntimePerfSnapshotEb
FN:295,_ZN6draxul32build_live_city_perf_debug_stateERKNS_21SemanticMegacityModelEPKNS_19RuntimePerfSnapshotEb
FN:384,_ZN6draxul32build_lcov_city_metrics_snapshotERKNS_21SemanticMegacityModelERKNS_18LcovFunctionLookupE
FN:441,_ZN6draxul32build_lcov_city_perf_debug_stateERKNS_21SemanticMegacityModelERKNS_18LcovFunctionLookupE
FN:111,live_city_metrics.cpp:_ZN6draxul12_GLOBAL__N_117build_perf_lookupEPKNS_19RuntimePerfSnapshotEb
FN:75,live_city_metrics.cpp:_ZN6draxul12_GLOBAL__N_124accumulate_perf_functionERNSt3__113unordered_mapINS1_12basic_stringIcNS1_11char_traitsIcEENS1_9allocatorIcEEEENS0_18PerfFunctionLookupENS1_4hashIS8_EENS1_8equal_toIS8_EENS6_INS1_4pairIKS8_S9_EEEEEENS1_17basic_string_viewIcS5_EESL_SL_RKNS_25RuntimePerfFunctionTimingEb
FN:56,live_city_metrics.cpp:_ZN6draxul12_GLOBAL__N_123display_heat_for_timingERKNS_25RuntimePerfFunctionTimingEb
FN:93,live_city_metrics.cpp:_ZN6draxul12_GLOBAL__N_137accumulate_perf_function_without_fileERNSt3__113unordered_mapINS1_12basic_stringIcNS1_11char_traitsIcEENS1_9allocatorIcEEEENS0_18PerfFunctionLookupENS1_4hashIS8_EENS1_8equal_toIS8_EENS6_INS1_4pairIKS8_S9_EEEEEENS1_17basic_string_viewIcS5_EESL_RKNS_25RuntimePerfFunctionTimingEb
FN:165,live_city_metrics.cpp:_ZN6draxul12_GLOBAL__N_118find_perf_functionERKNS0_13PerfLookupSetENSt3__117basic_string_viewIcNS4_11char_traitsIcEEEES8_S8_
FN:183,live_city_metrics.cpp:_ZN6draxul12_GLOBAL__N_120perf_lookup_containsERKNS0_13PerfLookupSetENSt3__117basic_string_viewIcNS4_11char_traitsIcEEEES8_S8_
FN:36,live_city_metrics.cpp:_ZN6draxul12_GLOBAL__N_117perf_function_keyENSt3__117basic_string_viewIcNS1_11char_traitsIcEEEES5_S5_
FN:23,live_city_metrics.cpp:_ZN6draxul12_GLOBAL__N_123perf_owner_function_keyENSt3__117basic_string_viewIcNS1_11char_traitsIcEEEES5_
FN:189,live_city_metrics.cpp:_ZN6draxul12_GLOBAL__N_117has_non_zero_perfERKNS0_18PerfFunctionLookupE
FN:48,live_city_metrics.cpp:_ZN6draxul12_GLOBAL__N_120short_qualified_nameENSt3__117basic_string_viewIcNS1_11char_traitsIcEEEE
FN:196,live_city_metrics.cpp:_ZN6draxul12_GLOBAL__N_119make_debug_functionERKNS_25RuntimePerfFunctionTimingEb
FN:208,live_city_metrics.cpp:_ZN6draxul12_GLOBAL__N_120sort_debug_functionsERNSt3__16vectorINS_25LiveCityPerfDebugFunctionENS1_9allocatorIS3_EEEE
FN:213,live_city_metrics.cpp:_ZZN6draxul12_GLOBAL__N_120sort_debug_functionsERNSt3__16vectorINS_25LiveCityPerfDebugFunctionENS1_9allocatorIS3_EEEEENK3$_0clERKS3_SA_
FNDA:5,_ZN6draxul32build_live_city_metrics_snapshotERKNS_21SemanticMegacityModelEPKNS_19RuntimePerfSnapshotEb
FNDA:1,_ZN6draxul32build_live_city_perf_debug_stateERKNS_21SemanticMegacityModelEPKNS_19RuntimePerfSnapshotEb
FNDA:1,_ZN6draxul32build_lcov_city_metrics_snapshotERKNS_21SemanticMegacityModelERKNS_18LcovFunctionLookupE
FNDA:1,_ZN6draxul32build_lcov_city_perf_debug_stateERKNS_21SemanticMegacityModelERKNS_18LcovFunctionLookupE
FNDA:6,live_city_metrics.cpp:_ZN6draxul12_GLOBAL__N_117build_perf_lookupEPKNS_19RuntimePerfSnapshotEb
FNDA:6,live_city_metrics.cpp:_ZN6draxul12_GLOBAL__N_124accumulate_perf_functionERNSt3__113unordered_mapINS1_12basic_stringIcNS1_11char_traitsIcEENS1_9allocatorIcEEEENS0_18PerfFunctionLookupENS1_4hashIS8_EENS1_8equal_toIS8_EENS6_INS1_4pairIKS8_S9_EEEEEENS1_17basic_string_viewIcS5_EESL_SL_RKNS_25RuntimePerfFunctionTimingEb
FNDA:14,live_city_metrics.cpp:_ZN6draxul12_GLOBAL__N_123display_heat_for_timingERKNS_25RuntimePerfFunctionTimingEb
FNDA:6,live_city_metrics.cpp:_ZN6draxul12_GLOBAL__N_137accumulate_perf_function_without_fileERNSt3__113unordered_mapINS1_12basic_stringIcNS1_11char_traitsIcEENS1_9allocatorIcEEEENS0_18PerfFunctionLookupENS1_4hashIS8_EENS1_8equal_toIS8_EENS6_INS1_4pairIKS8_S9_EEEEEENS1_17basic_string_viewIcS5_EESL_RKNS_25RuntimePerfFunctionTimingEb
FNDA:12,live_city_metrics.cpp:_ZN6draxul12_GLOBAL__N_118find_perf_functionERKNS0_13PerfLookupSetENSt3__117basic_string_viewIcNS4_11char_traitsIcEEEES8_S8_
FNDA:2,live_city_metrics.cpp:_ZN6draxul12_GLOBAL__N_120perf_lookup_containsERKNS0_13PerfLookupSetENSt3__117basic_string_viewIcNS4_11char_traitsIcEEEES8_S8_
FNDA:23,live_city_metrics.cpp:_ZN6draxul12_GLOBAL__N_117perf_function_keyENSt3__117basic_string_viewIcNS1_11char_traitsIcEEEES5_S5_
FNDA:21,live_city_metrics.cpp:_ZN6draxul12_GLOBAL__N_123perf_owner_function_keyENSt3__117basic_string_viewIcNS1_11char_traitsIcEEEES5_
FNDA:2,live_city_metrics.cpp:_ZN6draxul12_GLOBAL__N_117has_non_zero_perfERKNS0_18PerfFunctionLookupE
FNDA:7,live_city_metrics.cpp:_ZN6draxul12_GLOBAL__N_120short_qualified_nameENSt3__117basic_string_viewIcNS1_11char_traitsIcEEEE
FNDA:2,live_city_metrics.cpp:_ZN6draxul12_GLOBAL__N_119make_debug_functionERKNS_25RuntimePerfFunctionTimingEb
FNDA:2,live_city_metrics.cpp:_ZN6draxul12_GLOBAL__N_120sort_debug_functionsERNSt3__16vectorINS_25LiveCityPerfDebugFunctionENS1_9allocatorIS3_EEEE
FNDA:0,live_city_metrics.cpp:_ZZN6draxul12_GLOBAL__N_120sort_debug_functionsERNSt3__16vectorINS_25LiveCityPerfDebugFunctionENS1_9allocatorIS3_EEEEENK3$_0clERKS3_SA_
FNF:17
FNH:16
DA:23,21
DA:24,21
DA:25,21
DA:26,21
DA:27,21
DA:28,21
DA:29,21
DA:30,21
DA:36,23
DA:37,23
DA:38,23
DA:39,23
DA:40,23
DA:41,23
DA:42,23
DA:43,23
DA:44,23
DA:45,23
DA:48,7
DA:49,7
DA:50,7
DA:51,7
DA:52,0
DA:53,7
DA:56,14
DA:57,14
DA:58,12
DA:59,2
DA:60,2
DA:61,2
DA:62,2
DA:63,2
DA:64,2
DA:65,2
DA:66,14
DA:75,6
DA:76,6
DA:77,6
DA:78,0
DA:80,6
DA:81,6
DA:82,6
DA:83,6
DA:84,6
DA:85,6
DA:93,6
DA:94,6
DA:95,6
DA:96,0
DA:98,6
DA:99,6
DA:100,6
DA:101,6
DA:102,6
DA:111,6
DA:112,6
DA:113,6
DA:114,6
DA:115,2
DA:117,4
DA:118,4
DA:119,4
DA:120,6
DA:121,6
DA:122,0
DA:124,6
DA:125,6
DA:126,6
DA:127,6
DA:128,6
DA:129,6
DA:130,6
DA:131,6
DA:132,6
DA:133,6
DA:134,6
DA:135,6
DA:136,6
DA:138,6
DA:139,6
DA:140,0
DA:141,0
DA:142,0
DA:143,0
DA:144,0
DA:145,0
DA:146,0
DA:147,0
DA:148,0
DA:149,0
DA:150,0
DA:151,0
DA:152,0
DA:153,0
DA:154,0
DA:155,6
DA:157,4
DA:158,6
DA:165,12
DA:166,12
DA:167,12
DA:168,12
DA:169,3
DA:171,9
DA:172,9
DA:173,2
DA:175,7
DA:176,9
DA:183,2
DA:184,2
DA:185,2
DA:186,2
DA:189,2
DA:190,2
DA:191,2
DA:192,2
DA:193,2
DA:196,2
DA:197,2
DA:198,2
DA:199,2
DA:200,2
DA:201,2
DA:202,2
DA:203,2
DA:204,2
DA:205,2
DA:208,2
DA:209,2
DA:210,2
DA:211,2
DA:212,2
DA:213,2
DA:214,0
DA:215,0
DA:216,0
DA:217,0
DA:218,0
DA:219,0
DA:220,0
DA:221,0
DA:222,2
DA:223,2
DA:224,0
DA:225,2
DA:233,5
DA:234,5
DA:235,5
DA:236,5
DA:237,5
DA:239,5
DA:240,5
DA:241,5
DA:242,5
DA:243,5
DA:244,5
DA:245,5
DA:246,5
DA:248,5
DA:249,5
DA:250,15
DA:251,10
DA:252,10
DA:253,10
DA:254,10
DA:255,10
DA:256,10
DA:257,10
DA:258,10
DA:259,10
DA:260,10
DA:261,10
DA:262,10
DA:263,10
DA:264,10
DA:265,10
DA:266,10
DA:267,10
DA:268,10
DA:269,10
DA:270,10
DA:271,10
DA:272,10
DA:273,5
DA:275,5
DA:276,5
DA:277,5
DA:278,5
DA:279,5
DA:280,5
DA:281,5
DA:282,5
DA:283,5
DA:284,5
DA:285,5
DA:286,5
DA:288,5
DA:289,5
DA:295,1
DA:296,1
DA:297,1
DA:298,1
DA:299,0
DA:300,0
DA:301,0
DA:302,0
DA:303,0
DA:304,0
DA:305,0
DA:306,0
DA:307,0
DA:309,1
DA:310,1
DA:311,1
DA:312,1
DA:314,1
DA:315,1
DA:316,1
DA:318,1
DA:319,1
DA:320,1
DA:321,1
DA:322,1
DA:323,1
DA:324,1
DA:325,1
DA:326,2
DA:327,2
DA:328,2
DA:329,2
DA:330,2
DA:331,2
DA:332,2
DA:333,2
DA:334,2
DA:335,2
DA:336,2
DA:337,1
DA:338,1
DA:339,1
DA:340,1
DA:341,1
DA:342,1
DA:343,1
DA:344,2
DA:345,1
DA:346,1
DA:347,1
DA:348,1
DA:349,2
DA:350,1
DA:351,1
DA:352,1
DA:353,1
DA:355,1
DA:356,2
DA:357,2
DA:358,2
DA:359,2
DA:360,2
DA:361,2
DA:362,1
DA:363,1
DA:365,2
DA:366,1
DA:367,1
DA:368,1
DA:369,1
DA:370,1
DA:371,1
DA:372,1
DA:373,1
DA:374,2
DA:376,1
DA:377,1
DA:378,1
DA:379,1
DA:384,1
DA:385,1
DA:386,1
DA:387,1
DA:389,1
DA:390,1
DA:391,1
DA:392,1
DA:393,1
DA:394,1
DA:396,1
DA:397,1
DA:398,4
DA:399,3
DA:400,3
DA:401,3
DA:402,3
DA:403,3
DA:404,3
DA:405,3
DA:406,3
DA:407,3
DA:408,3
DA:409,3
DA:410,3
DA:411,3
DA:412,3
DA:413,3
DA:414,3
DA:415,3
DA:416,3
DA:417,3
DA:418,3
DA:419,3
DA:420,1
DA:422,1
DA:423,1
DA:424,1
DA:425,1
DA:426,1
DA:427,1
DA:428,1
DA:429,1
DA:430,1
DA:431,1
DA:432,1
DA:433,1
DA:435,1
DA:436,1
DA:441,1
DA:442,1
DA:443,1
DA:444,1
DA:445,1
DA:446,1
DA:448,1
DA:449,1
DA:450,1
DA:451,1
DA:452,1
DA:453,1
DA:454,1
DA:455,1
DA:456,3
DA:457,3
DA:458,3
DA:459,3
DA:460,3
DA:461,3
DA:462,3
DA:463,1
DA:464,1
DA:465,1
DA:466,1
DA:467,1
DA:468,3
DA:469,1
DA:470,1
DA:471,1
DA:472,1
DA:474,1
DA:475,1
BRDA:50,0,0,7
BRDA:50,0,1,0
BRDA:57,0,0,12
BRDA:57,0,1,2
BRDA:59,0,0,2
BRDA:59,0,1,0
BRDA:60,0,0,-
BRDA:60,0,1,-
BRDA:61,0,0,-
BRDA:61,0,1,-
BRDA:62,0,0,-
BRDA:62,0,1,-
BRDA:63,0,0,-
BRDA:63,0,1,-
BRDA:77,0,0,0
BRDA:77,0,1,6
BRDA:77,1,2,0
BRDA:77,1,3,6
BRDA:77,2,4,0
BRDA:77,2,5,6
BRDA:95,0,0,0
BRDA:95,0,1,6
BRDA:95,1,2,0
BRDA:95,1,3,6
BRDA:114,0,0,2
BRDA:114,0,1,4
BRDA:119,0,0,6
BRDA:119,0,1,4
BRDA:121,0,0,0
BRDA:121,0,1,6
BRDA:121,1,2,0
BRDA:121,1,3,6
BRDA:139,0,0,0
BRDA:139,0,1,6
BRDA:168,0,0,3
BRDA:168,0,1,9
BRDA:172,0,0,2
BRDA:172,0,1,7
BRDA:184,0,0,0
BRDA:184,0,1,2
BRDA:185,0,0,1
BRDA:185,0,1,1
BRDA:190,0,0,1
BRDA:190,0,1,1
BRDA:191,0,0,0
BRDA:191,0,1,1
BRDA:192,0,0,0
BRDA:192,0,1,1
BRDA:214,0,0,-
BRDA:214,0,1,-
BRDA:216,0,0,-
BRDA:216,0,1,-
BRDA:218,0,0,-
BRDA:218,0,1,-
BRDA:223,0,0,0
BRDA:223,0,1,2
BRDA:236,0,0,3
BRDA:236,0,1,2
BRDA:239,0,0,5
BRDA:239,0,1,5
BRDA:242,0,0,5
BRDA:242,0,1,5
BRDA:248,0,0,5
BRDA:248,0,1,0
BRDA:250,0,0,10
BRDA:250,0,1,5
BRDA:279,0,0,0
BRDA:279,0,1,5
BRDA:298,0,0,0
BRDA:298,0,1,1
BRDA:300,0,0,-
BRDA:300,0,1,-
BRDA:303,0,0,-
BRDA:303,0,1,-
BRDA:318,0,0,1
BRDA:318,0,1,1
BRDA:321,0,0,1
BRDA:321,0,1,1
BRDA:325,0,0,2
BRDA:325,0,1,1
BRDA:332,0,0,1
BRDA:332,0,1,1
BRDA:344,0,0,1
BRDA:344,0,1,1
BRDA:350,0,0,1
BRDA:350,0,1,0
BRDA:355,0,0,2
BRDA:355,0,1,1
BRDA:357,0,0,0
BRDA:357,0,1,2
BRDA:359,0,0,1
BRDA:359,0,1,1
BRDA:361,0,0,1
BRDA:361,0,1,0
BRDA:362,0,0,0
BRDA:362,0,1,1
BRDA:365,0,0,1
BRDA:365,0,1,1
BRDA:389,0,0,1
BRDA:389,0,1,1
BRDA:392,0,0,1
BRDA:392,0,1,1
BRDA:396,0,0,1
BRDA:396,0,1,0
BRDA:398,0,0,3
BRDA:398,0,1,1
BRDA:406,0,0,1
BRDA:406,0,1,2
BRDA:426,0,0,0
BRDA:426,0,1,1
BRDA:448,0,0,1
BRDA:448,0,1,1
BRDA:451,0,0,1
BRDA:451,0,1,1
BRDA:455,0,0,3
BRDA:455,0,1,1
BRDA:462,0,0,1
BRDA:462,0,1,2
BRDA:469,0,0,1
BRDA:469,0,1,0
BRF:120
BRH:78
LF:368
LH:330
end_of_record
SF:/Users/runner/work/Draxul/Draxul/libs/draxul-megacity/src/megacity_code_config.cpp
FN:10,_ZN6draxul25parse_megacity_debug_viewENSt3__117basic_string_viewIcNS0_11char_traitsIcEEEE
FN:51,_ZN6draxul26format_megacity_debug_viewENS_17MegaCityDebugViewE
FN:132,_ZN6draxul25apply_megacity_code_tableERNS_18MegaCityCodeConfigERKN4toml2v35tableE
FN:318,_ZN6draxul29serialize_megacity_code_tableERKNS_18MegaCityCodeConfigE
FN:453,_ZN6draxul27load_megacity_code_defaultsERKNS_14ConfigDocumentE
FN:462,_ZN6draxul25load_megacity_code_configERKNS_14ConfigDocumentERKNS_18MegaCityCodeConfigE
FN:471,_ZN6draxul26store_megacity_code_configERNS_14ConfigDocumentERKNS_18MegaCityCodeConfigES4_
FN:107,megacity_code_config.cpp:_ZN6draxul12_GLOBAL__N_111assign_vec2ERKN4toml2v35tableEPKcRN3glm3vecILi2EfLNS8_9qualifierE0EEE
FN:142,megacity_code_config.cpp:_ZZN6draxul25apply_megacity_code_tableERNS_18MegaCityCodeConfigERKN4toml2v35tableEENK3$_0clEPKcRb
FN:134,megacity_code_config.cpp:_ZZN6draxul25apply_megacity_code_tableERNS_18MegaCityCodeConfigERKN4toml2v35tableEENK3$_1clEPKcRf
FN:98,megacity_code_config.cpp:_ZN6draxul12_GLOBAL__N_19get_floatERKN4toml2v35tableEPKc
FN:138,megacity_code_config.cpp:_ZZN6draxul25apply_megacity_code_tableERNS_18MegaCityCodeConfigERKN4toml2v35tableEENK3$_2clEPKcRi
FN:113,megacity_code_config.cpp:_ZN6draxul12_GLOBAL__N_111assign_vec3ERKN4toml2v35tableEPKcRN3glm3vecILi3EfLNS8_9qualifierE0EEE
FN:120,megacity_code_config.cpp:_ZN6draxul12_GLOBAL__N_120assign_legacy_color3ERKN4toml2v35tableEPKcS7_S7_RN3glm3vecILi3EfLNS8_9qualifierE0EEE
FNDA:2,_ZN6draxul25parse_megacity_debug_viewENSt3__117basic_string_viewIcNS0_11char_traitsIcEEEE
FNDA:4,_ZN6draxul26format_megacity_debug_viewENS_17MegaCityDebugViewE
FNDA:3,_ZN6draxul25apply_megacity_code_tableERNS_18MegaCityCodeConfigERKN4toml2v35tableE
FNDA:4,_ZN6draxul29serialize_megacity_code_tableERKNS_18MegaCityCodeConfigE
FNDA:2,_ZN6draxul27load_megacity_code_defaultsERKNS_14ConfigDocumentE
FNDA:2,_ZN6draxul25load_megacity_code_configERKNS_14ConfigDocumentERKNS_18MegaCityCodeConfigE
FNDA:2,_ZN6draxul26store_megacity_code_configERNS_14ConfigDocumentERKNS_18MegaCityCodeConfigES4_
FNDA:21,megacity_code_config.cpp:_ZN6draxul12_GLOBAL__N_111assign_vec2ERKN4toml2v35tableEPKcRN3glm3vecILi2EfLNS8_9qualifierE0EEE
FNDA:32,megacity_code_config.cpp:_ZZN6draxul25apply_megacity_code_tableERNS_18MegaCityCodeConfigERKN4toml2v35tableEENK3$_0clEPKcRb
FNDA:222,megacity_code_config.cpp:_ZZN6draxul25apply_megacity_code_tableERNS_18MegaCityCodeConfigERKN4toml2v35tableEENK3$_1clEPKcRf
FNDA:303,megacity_code_config.cpp:_ZN6draxul12_GLOBAL__N_19get_floatERKN4toml2v35tableEPKc
FNDA:33,megacity_code_config.cpp:_ZZN6draxul25apply_megacity_code_tableERNS_18MegaCityCodeConfigERKN4toml2v35tableEENK3$_2clEPKcRi
FNDA:24,megacity_code_config.cpp:_ZN6draxul12_GLOBAL__N_111assign_vec3ERKN4toml2v35tableEPKcRN3glm3vecILi3EfLNS8_9qualifierE0EEE
FNDA:27,megacity_code_config.cpp:_ZN6draxul12_GLOBAL__N_120assign_legacy_color3ERKN4toml2v35tableEPKcS7_S7_RN3glm3vecILi3EfLNS8_9qualifierE0EEE
FNF:14
FNH:14
DA:10,2
DA:11,2
DA:12,1
DA:13,1
DA:14,0
DA:15,1
DA:16,0
DA:17,1
DA:18,1
DA:19,0
DA:20,0
DA:21,0
DA:22,0
DA:23,0
DA:24,0
DA:25,0
DA:26,0
DA:27,0
DA:28,0
DA:29,0
DA:30,0
DA:31,0
DA:32,0
DA:33,0
DA:34,0
DA:35,0
DA:36,0
DA:37,0
DA:38,0
DA:39,0
DA:40,0
DA:41,0
DA:42,0
DA:43,0
DA:44,0
DA:45,0
DA:46,0
DA:47,0
DA:48,0
DA:51,4
DA:52,4
DA:53,4
DA:54,3
DA:55,3
DA:56,0
DA:57,0
DA:58,0
DA:59,0
DA:60,1
DA:61,1
DA:62,0
DA:63,0
DA:64,0
DA:65,0
DA:66,0
DA:67,0
DA:68,0
DA:69,0
DA:70,0
DA:71,0
DA:72,0
DA:73,0
DA:74,0
DA:75,0
DA:76,0
DA:77,0
DA:78,0
DA:79,0
DA:80,0
DA:81,0
DA:82,0
DA:83,0
DA:84,0
DA:85,0
DA:86,0
DA:87,0
DA:88,0
DA:89,0
DA:90,4
DA:91,0
DA:92,4
DA:98,303
DA:99,303
DA:100,148
DA:101,155
DA:102,0
DA:103,155
DA:104,155
DA:107,21
DA:108,21
DA:109,14
DA:110,21
DA:113,24
DA:114,24
DA:115,16
DA:116,24
DA:120,27
DA:121,27
DA:122,0
DA:123,27
DA:124,0
DA:125,27
DA:126,0
DA:127,27
DA:132,3
DA:133,3
DA:134,222
DA:135,222
DA:136,148
DA:137,222
DA:138,33
DA:139,33
DA:140,22
DA:141,33
DA:142,32
DA:143,32
DA:144,21
DA:145,32
DA:147,3
DA:148,2
DA:149,3
DA:150,3
DA:151,2
DA:152,2
DA:153,2
DA:154,2
DA:155,1
DA:156,0
DA:157,0
DA:158,0
DA:159,0
DA:160,3
DA:161,3
DA:162,3
DA:163,3
DA:164,3
DA:165,3
DA:166,3
DA:167,3
DA:168,3
DA:169,3
DA:170,3
DA:171,3
DA:172,3
DA:173,3
DA:174,3
DA:175,3
DA:176,3
DA:177,3
DA:178,3
DA:180,3
DA:181,3
DA:183,3
DA:184,3
DA:185,3
DA:187,3
DA:188,3
DA:189,3
DA:190,3
DA:191,3
DA:192,3
DA:193,3
DA:194,3
DA:195,3
DA:196,3
DA:197,2
DA:198,2
DA:199,0
DA:200,2
DA:201,1
DA:202,1
DA:203,0
DA:204,1
DA:205,1
DA:206,2
DA:207,1
DA:208,1
DA:210,1
DA:211,1
DA:212,1
DA:213,1
DA:214,1
DA:215,0
DA:216,1
DA:217,0
DA:218,1
DA:219,3
DA:220,3
DA:221,3
DA:223,3
DA:224,3
DA:225,3
DA:226,3
DA:227,3
DA:228,3
DA:229,3
DA:230,3
DA:231,3
DA:232,3
DA:233,3
DA:234,3
DA:235,3
DA:236,3
DA:237,3
DA:238,3
DA:239,3
DA:240,3
DA:241,3
DA:242,3
DA:243,3
DA:244,3
DA:245,3
DA:246,3
DA:247,3
DA:248,3
DA:249,3
DA:250,3
DA:251,3
DA:252,3
DA:253,3
DA:254,3
DA:255,3
DA:256,3
DA:257,3
DA:258,3
DA:259,3
DA:261,3
DA:262,3
DA:263,3
DA:264,3
DA:265,3
DA:266,3
DA:267,3
DA:268,3
DA:269,3
DA:270,3
DA:271,3
DA:272,3
DA:273,3
DA:274,3
DA:275,3
DA:276,3
DA:277,3
DA:278,3
DA:279,3
DA:280,3
DA:281,3
DA:282,3
DA:283,3
DA:284,3
DA:285,3
DA:286,3
DA:287,3
DA:288,3
DA:289,3
DA:290,3
DA:292,3
DA:293,3
DA:294,3
DA:295,3
DA:296,3
DA:297,3
DA:298,3
DA:299,3
DA:301,3
DA:302,3
DA:303,3
DA:304,3
DA:305,3
DA:306,3
DA:307,3
DA:308,3
DA:309,3
DA:310,3
DA:311,3
DA:312,3
DA:313,3
DA:314,3
DA:315,3
DA:318,4
DA:319,4
DA:320,4
DA:321,4
DA:322,4
DA:323,4
DA:324,4
DA:325,4
DA:326,4
DA:327,4
DA:328,4
DA:329,4
DA:330,4
DA:331,4
DA:332,4
DA:333,4
DA:334,4
DA:335,4
DA:336,4
DA:337,4
DA:338,4
DA:339,4
DA:340,4
DA:341,4
DA:342,4
DA:343,4
DA:344,4
DA:345,4
DA:346,4
DA:347,4
DA:348,4
DA:349,4
DA:350,4
DA:351,4
DA:352,4
DA:353,4
DA:354,4
DA:355,4
DA:356,4
DA:357,4
DA:358,4
DA:359,4
DA:360,4
DA:361,4
DA:362,0
DA:363,4
DA:364,1
DA:365,3
DA:366,0
DA:367,4
DA:368,4
DA:369,4
DA:370,4
DA:371,4
DA:372,4
DA:373,4
DA:374,4
DA:375,4
DA:376,4
DA:377,4
DA:378,4
DA:379,4
DA:380,4
DA:381,4
DA:382,4
DA:383,4
DA:384,4
DA:385,4
DA:386,4
DA:387,4
DA:388,4
DA:389,4
DA:390,4
DA:391,4
DA:392,4
DA:393,4
DA:394,4
DA:395,4
DA:396,4
DA:397,4
DA:398,4
DA:399,4
DA:400,4
DA:401,4
DA:402,4
DA:403,4
DA:404,4
DA:405,4
DA:406,4
DA:407,4
DA:408,4
DA:409,4
DA:410,4
DA:411,4
DA:412,4
DA:413,4
DA:414,4
DA:415,4
DA:416,4
DA:417,4
DA:418,4
DA:419,4
DA:420,4
DA:421,4
DA:422,4
DA:423,4
DA:424,4
DA:425,4
DA:426,4
DA:427,4
DA:428,4
DA:429,4
DA:430,4
DA:431,4
DA:432,4
DA:433,4
DA:434,4
DA:435,4
DA:436,4
DA:437,4
DA:438,4
DA:439,4
DA:440,4
DA:441,4
DA:442,4
DA:443,4
DA:444,4
DA:445,4
DA:446,4
DA:447,4
DA:448,4
DA:449,4
DA:450,4
DA:453,2
DA:454,2
DA:455,2
DA:456,2
DA:457,1
DA:458,2
DA:459,2
DA:462,2
DA:463,2
DA:464,2
DA:465,2
DA:466,2
DA:467,2
DA:468,2
DA:471,2
DA:472,2
DA:473,2
DA:474,2
DA:475,2
DA:476,2
BRDA:11,0,0,1
BRDA:11,0,1,1
BRDA:13,0,0,0
BRDA:13,0,1,1
BRDA:15,0,0,0
BRDA:15,0,1,1
BRDA:17,0,0,1
BRDA:17,0,1,0
BRDA:17,1,2,-
BRDA:17,1,3,-
BRDA:19,0,0,-
BRDA:19,0,1,-
BRDA:21,0,0,-
BRDA:21,0,1,-
BRDA:23,0,0,-
BRDA:23,0,1,-
BRDA:25,0,0,-
BRDA:25,0,1,-
BRDA:27,0,0,-
BRDA:27,0,1,-
BRDA:29,0,0,-
BRDA:29,0,1,-
BRDA:31,0,0,-
BRDA:31,0,1,-
BRDA:33,0,0,-
BRDA:33,0,1,-
BRDA:35,0,0,-
BRDA:35,0,1,-
BRDA:37,0,0,-
BRDA:37,0,1,-
BRDA:39,0,0,-
BRDA:39,0,1,-
BRDA:41,0,0,-
BRDA:41,0,1,-
BRDA:43,0,0,-
BRDA:43,0,1,-
BRDA:45,0,0,-
BRDA:45,0,1,-
BRDA:52,0,0,0
BRDA:52,0,1,4
BRDA:54,0,0,3
BRDA:54,0,1,1
BRDA:56,0,0,0
BRDA:56,0,1,4
BRDA:58,0,0,0
BRDA:58,0,1,4
BRDA:60,0,0,1
BRDA:60,0,1,3
BRDA:62,0,0,0
BRDA:62,0,1,4
BRDA:64,0,0,0
BRDA:64,0,1,4
BRDA:66,0,0,0
BRDA:66,0,1,4
BRDA:68,0,0,0
BRDA:68,0,1,4
BRDA:70,0,0,0
BRDA:70,0,1,4
BRDA:72,0,0,0
BRDA:72,0,1,4
BRDA:74,0,0,0
BRDA:74,0,1,4
BRDA:76,0,0,0
BRDA:76,0,1,4
BRDA:78,0,0,0
BRDA:78,0,1,4
BRDA:80,0,0,0
BRDA:80,0,1,4
BRDA:82,0,0,0
BRDA:82,0,1,4
BRDA:84,0,0,0
BRDA:84,0,1,4
BRDA:86,0,0,0
BRDA:86,0,1,4
BRDA:88,0,0,0
BRDA:88,0,1,4
BRDA:99,0,0,148
BRDA:99,0,1,155
BRDA:101,0,0,0
BRDA:101,0,1,155
BRDA:108,0,0,14
BRDA:108,0,1,7
BRDA:114,0,0,16
BRDA:114,0,1,8
BRDA:121,0,0,0
BRDA:121,0,1,27
BRDA:123,0,0,0
BRDA:123,0,1,27
BRDA:125,0,0,0
BRDA:125,0,1,27
BRDA:135,0,0,148
BRDA:135,0,1,74
BRDA:139,0,0,22
BRDA:139,0,1,11
BRDA:143,0,0,21
BRDA:143,0,1,11
BRDA:147,0,0,2
BRDA:147,0,1,1
BRDA:150,0,0,2
BRDA:150,0,1,1
BRDA:152,0,0,2
BRDA:152,0,1,0
BRDA:155,0,0,0
BRDA:155,0,1,1
BRDA:157,0,0,-
BRDA:157,0,1,-
BRDA:196,0,0,2
BRDA:196,0,1,1
BRDA:198,0,0,0
BRDA:198,0,1,2
BRDA:200,0,0,1
BRDA:200,0,1,1
BRDA:202,0,0,0
BRDA:202,0,1,1
BRDA:214,0,0,0
BRDA:214,0,1,1
BRDA:216,0,0,0
BRDA:216,0,1,1
BRDA:361,0,0,0
BRDA:361,0,1,4
BRDA:363,0,0,1
BRDA:363,0,1,3
BRDA:365,0,0,0
BRDA:365,0,1,3
BRDA:456,0,0,1
BRDA:456,0,1,1
BRDA:465,0,0,2
BRDA:465,0,1,0
BRF:128
BRH:63
LF:444
LH:365
end_of_record
SF:/Users/runner/work/Draxul/Draxul/libs/draxul-megacity/src/megacity_host.cpp
FN:424,_ZN6draxul12MegaCityHostC2Ev
FN:429,_ZN6draxul12MegaCityHostD2Ev
FN:443,_ZN6draxul12MegaCityHost25refresh_sign_text_serviceEv
FN:489,_ZN6draxul12MegaCityHost10initializeERKNS_11HostContextERNS_14IHostCallbacksE
FN:564,_ZN6draxul12MegaCityHost16mark_scene_dirtyEv
FN:572,_ZN6draxul12MegaCityHost26mark_world_rebuild_pendingEv
FN:580,_ZN6draxul12MegaCityHost17route_worker_loopEv
FN:629,_ZN6draxul12MegaCityHost24request_routes_for_focusENSt3__112basic_stringIcNS1_11char_traitsIcEENS1_9allocatorIcEEEES7_S7_
FN:661,_ZN6draxul12MegaCityHost19clear_active_routesEb
FN:682,_ZN6draxul12MegaCityHost24consume_completed_routesEv
FN:712,_ZN6draxul12MegaCityHost25refresh_available_modulesEv
FN:720,_ZN6draxul12MegaCityHost28sync_camera_state_to_configsEv
FN:740,_ZN6draxul12MegaCityHost29reset_camera_to_default_frameEv
FN:756,_ZN6draxul12MegaCityHost13on_focus_lostEv
FN:761,_ZN6draxul12MegaCityHost6on_keyERKNS_8KeyEventE
FN:822,_ZN6draxul12MegaCityHost13on_text_inputERKNS_14TextInputEventE
FN:836,_ZN6draxul12MegaCityHost13on_mouse_moveERKNS_14MouseMoveEventE
FN:896,_ZN6draxul12MegaCityHost15on_mouse_buttonERKNS_16MouseButtonEventE
FN:935,_ZN6draxul12MegaCityHost14on_mouse_wheelERKNS_15MouseWheelEventE
FN:945,_ZN6draxul12MegaCityHost14set_imgui_fontERKNSt3__112basic_stringIcNS1_11char_traitsIcEENS1_9allocatorIcEEEEf
FN:966,_ZN6draxul12MegaCityHost17attach_imgui_hostERNS_10IImGuiHostE
FN:977,_ZN6draxul12MegaCityHost17render_host_imguiEf
FN:1191,_ZN6draxul12MegaCityHost8shutdownEv
FN:1247,_ZNK6draxul12MegaCityHost10is_runningEv
FN:1252,_ZNK6draxul12MegaCityHost10init_errorEv
FN:1257,_ZN6draxul12MegaCityHost12set_viewportERKNS_12HostViewportE
FN:1270,_ZN6draxul12MegaCityHost21rebuild_semantic_cityEv
FN:1380,_ZN6draxul12MegaCityHost17launch_grid_buildERKNS_22SemanticMegacityLayoutERKNS_21SemanticMegacityModelE
FN:1418,_ZN6draxul12MegaCityHost4pumpEv
FN:1875,_ZN6draxul12MegaCityHost4drawERNS_13IFrameContextE
FN:1910,_ZNK6draxul12MegaCityHost13next_deadlineEv
FN:1934,_ZN6draxul12MegaCityHost15dispatch_actionENSt3__117basic_string_viewIcNS1_11char_traitsIcEEEE
FN:1954,_ZN6draxul12MegaCityHost13request_closeEv
FN:1959,_ZNK6draxul12MegaCityHost18default_backgroundEv
FN:1964,_ZNK6draxul12MegaCityHost13runtime_stateEv
FN:1972,_ZNK6draxul12MegaCityHost11debug_stateEv
FN:1982,_ZN6draxul12MegaCityHost12handle_clickERKN3glm3vecILi2EiLNS1_9qualifierE0EEE
FN:2055,_ZN6draxul12MegaCityHost19handle_double_clickERKN3glm3vecILi2EiLNS1_9qualifierE0EEE
FN:2142,_ZN6draxul12MegaCityHost25update_hidden_hover_blendEfNSt3__16chrono10time_pointINS2_12steady_clockENS2_8durationIxNS1_5ratioILl1ELl1000000000EEEEEEE
FN:2166,_ZN6draxul12MegaCityHost23apply_selection_opacityEv
FN:2243,_ZN6draxul12MegaCityHost15clear_selectionEv
FN:2267,_ZN6draxul20create_megacity_hostEv
FN:70,megacity_host.cpp:_ZN6draxul12_GLOBAL__N_120is_live_perf_overlayENS_11OverlayModeE
FN:213,megacity_host.cpp:_ZN6draxul12_GLOBAL__N_116megacity_db_pathEv
FN:726,megacity_host.cpp:_ZZN6draxul12MegaCityHost28sync_camera_state_to_configsEvENK3$_0clERNS_18MegaCityCodeConfigE
FN:208,megacity_host.cpp:_ZN6draxul12_GLOBAL__N_122requires_world_rebuildERKNS_18MegaCityCodeConfigES3_
FN:174,megacity_host.cpp:_ZN6draxul12_GLOBAL__N_123world_rebuild_signatureENS_18MegaCityCodeConfigE
FN:324,megacity_host.cpp:_ZN6draxul12_GLOBAL__N_123clear_coverage_snapshotERNS_19RuntimePerfSnapshotE
FN:1081,megacity_host.cpp:_ZZN6draxul12MegaCityHost17render_host_imguiEfENK3$_0clEv
FN:57,megacity_host.cpp:_ZN6draxul12_GLOBAL__N_127save_merged_megacity_configEPNS_14ConfigDocumentERKNS_18MegaCityCodeConfigES5_
FN:1297,megacity_host.cpp:_ZZN6draxul12MegaCityHost21rebuild_semantic_cityEvENK3$_0clERNS_18MegaCityCodeConfigE
FN:329,megacity_host.cpp:_ZN6draxul12_GLOBAL__N_127merge_runtime_perf_coverageERNS_19RuntimePerfSnapshotERKS1_
FN:312,megacity_host.cpp:_ZN6draxul12_GLOBAL__N_125runtime_perf_function_keyENSt3__117basic_string_viewIcNS1_11char_traitsIcEEEES5_S5_
FN:300,megacity_host.cpp:_ZN6draxul12_GLOBAL__N_127runtime_timing_has_activityERKNS_25RuntimePerfFunctionTimingE
FN:410,megacity_host.cpp:_ZN6draxul12_GLOBAL__N_124preserve_visible_tooltipEPKNS_18IsometricScenePassEbRNS_13SceneSnapshotE
FN:259,megacity_host.cpp:_ZN6draxul12_GLOBAL__N_127exact_building_identity_keyENSt3__117basic_string_viewIcNS1_11char_traitsIcEEEES5_S5_
FN:275,megacity_host.cpp:_ZN6draxul12_GLOBAL__N_129connected_building_identitiesERKNS_21SemanticMegacityModelENSt3__117basic_string_viewIcNS4_11char_traitsIcEEEES8_S8_
FN:374,megacity_host.cpp:_ZN6draxul12_GLOBAL__N_120find_building_metricERKNS_23LiveCityMetricsSnapshotENSt3__117basic_string_viewIcNS4_11char_traitsIcEEEES8_S8_
FN:1676,megacity_host.cpp:_ZZN6draxul12MegaCityHost4pumpEvENK3$_1clEm
FN:394,megacity_host.cpp:_ZN6draxul12_GLOBAL__N_120find_function_metricERKNS_23LiveCityMetricsSnapshotENSt3__117basic_string_viewIcNS4_11char_traitsIcEEEES8_S8_S8_j
FN:1583,megacity_host.cpp:_ZZN6draxul12MegaCityHost4pumpEvENK3$_2clERNS_3gui13TooltipBitmapE
FN:76,megacity_host.cpp:_ZN6draxul12_GLOBAL__N_117is_overlay_activeENS_11OverlayModeE
FN:2091,megacity_host.cpp:_ZZN6draxul12MegaCityHost19handle_double_clickERKN3glm3vecILi2EiLNS1_9qualifierE0EEEENK3$_0clEm
FN:135,megacity_host.cpp:_ZN6draxul12_GLOBAL__N_124find_implementation_fileERKNSt3__14__fs10filesystem4pathENS1_17basic_string_viewIcNS1_11char_traitsIcEEEESA_
FN:98,megacity_host.cpp:_ZN6draxul12_GLOBAL__N_120candidate_impl_filesERKNSt3__14__fs10filesystem4pathE
FN:82,megacity_host.cpp:_ZN6draxul12_GLOBAL__N_122file_contains_functionERKNSt3__14__fs10filesystem4pathENS1_17basic_string_viewIcNS1_11char_traitsIcEEEE
FN:294,megacity_host.cpp:_ZN6draxul12_GLOBAL__N_124is_module_context_objectERKNS_11SceneObjectE
FN:555,megacity_host.cpp:_ZZN6draxul12MegaCityHost10initializeERKNS_11HostContextERNS_14IHostCallbacksEENK3$_0clEv
FN:586,megacity_host.cpp:_ZZN6draxul12MegaCityHost17route_worker_loopEvENK3$_0clEv
FN:1398,megacity_host.cpp:_ZZN6draxul12MegaCityHost17launch_grid_buildERKNS_22SemanticMegacityLayoutERKNS_21SemanticMegacityModelEENK3$_0clEv
FN:1623,megacity_host.cpp:_ZZN6draxul12MegaCityHost4pumpEvENK3$_0clERKNSt3__112basic_stringIcNS2_11char_traitsIcEENS2_9allocatorIcEEEESA_SA_
FN:2010,megacity_host.cpp:_ZZN6draxul12MegaCityHost12handle_clickERKN3glm3vecILi2EiLNS1_9qualifierE0EEEENK3$_0clERKNSt3__112basic_stringIcNS8_11char_traitsIcEENS8_9allocatorIcEEEESG_SG_
FN:246,megacity_host.cpp:_ZN6draxul12_GLOBAL__N_121building_identity_keyENSt3__117basic_string_viewIcNS1_11char_traitsIcEEEES5_
FNDA:8,_ZN6draxul12MegaCityHostC2Ev
FNDA:8,_ZN6draxul12MegaCityHostD2Ev
FNDA:8,_ZN6draxul12MegaCityHost25refresh_sign_text_serviceEv
FNDA:8,_ZN6draxul12MegaCityHost10initializeERKNS_11HostContextERNS_14IHostCallbacksE
FNDA:8,_ZN6draxul12MegaCityHost16mark_scene_dirtyEv
FNDA:0,_ZN6draxul12MegaCityHost26mark_world_rebuild_pendingEv
FNDA:8,_ZN6draxul12MegaCityHost17route_worker_loopEv
FNDA:0,_ZN6draxul12MegaCityHost24request_routes_for_focusENSt3__112basic_stringIcNS1_11char_traitsIcEENS1_9allocatorIcEEEES7_S7_
FNDA:0,_ZN6draxul12MegaCityHost19clear_active_routesEb
FNDA:9,_ZN6draxul12MegaCityHost24consume_completed_routesEv
FNDA:8,_ZN6draxul12MegaCityHost25refresh_available_modulesEv
FNDA:8,_ZN6draxul12MegaCityHost28sync_camera_state_to_configsEv
FNDA:0,_ZN6draxul12MegaCityHost29reset_camera_to_default_frameEv
FNDA:0,_ZN6draxul12MegaCityHost13on_focus_lostEv
FNDA:0,_ZN6draxul12MegaCityHost6on_keyERKNS_8KeyEventE
FNDA:1,_ZN6draxul12MegaCityHost13on_text_inputERKNS_14TextInputEventE
FNDA:6,_ZN6draxul12MegaCityHost13on_mouse_moveERKNS_14MouseMoveEventE
FNDA:6,_ZN6draxul12MegaCityHost15on_mouse_buttonERKNS_16MouseButtonEventE
FNDA:0,_ZN6draxul12MegaCityHost14on_mouse_wheelERKNS_15MouseWheelEventE
FNDA:0,_ZN6draxul12MegaCityHost14set_imgui_fontERKNSt3__112basic_stringIcNS1_11char_traitsIcEENS1_9allocatorIcEEEEf
FNDA:1,_ZN6draxul12MegaCityHost17attach_imgui_hostERNS_10IImGuiHostE
FNDA:4,_ZN6draxul12MegaCityHost17render_host_imguiEf
FNDA:8,_ZN6draxul12MegaCityHost8shutdownEv
FNDA:0,_ZNK6draxul12MegaCityHost10is_runningEv
FNDA:0,_ZNK6draxul12MegaCityHost10init_errorEv
FNDA:0,_ZN6draxul12MegaCityHost12set_viewportERKNS_12HostViewportE
FNDA:0,_ZN6draxul12MegaCityHost21rebuild_semantic_cityEv
FNDA:0,_ZN6draxul12MegaCityHost17launch_grid_buildERKNS_22SemanticMegacityLayoutERKNS_21SemanticMegacityModelE
FNDA:9,_ZN6draxul12MegaCityHost4pumpEv
FNDA:4,_ZN6draxul12MegaCityHost4drawERNS_13IFrameContextE
FNDA:6,_ZNK6draxul12MegaCityHost13next_deadlineEv
FNDA:0,_ZN6draxul12MegaCityHost15dispatch_actionENSt3__117basic_string_viewIcNS1_11char_traitsIcEEEE
FNDA:0,_ZN6draxul12MegaCityHost13request_closeEv
FNDA:1,_ZNK6draxul12MegaCityHost18default_backgroundEv
FNDA:0,_ZNK6draxul12MegaCityHost13runtime_stateEv
FNDA:0,_ZNK6draxul12MegaCityHost11debug_stateEv
FNDA:0,_ZN6draxul12MegaCityHost12handle_clickERKN3glm3vecILi2EiLNS1_9qualifierE0EEE
FNDA:0,_ZN6draxul12MegaCityHost19handle_double_clickERKN3glm3vecILi2EiLNS1_9qualifierE0EEE
FNDA:0,_ZN6draxul12MegaCityHost25update_hidden_hover_blendEfNSt3__16chrono10time_pointINS2_12steady_clockENS2_8durationIxNS1_5ratioILl1ELl1000000000EEEEEEE
FNDA:1,_ZN6draxul12MegaCityHost23apply_selection_opacityEv
FNDA:0,_ZN6draxul12MegaCityHost15clear_selectionEv
FNDA:1,_ZN6draxul20create_megacity_hostEv
FNDA:27,megacity_host.cpp:_ZN6draxul12_GLOBAL__N_120is_live_perf_overlayENS_11OverlayModeE
FNDA:8,megacity_host.cpp:_ZN6draxul12_GLOBAL__N_116megacity_db_pathEv
FNDA:16,megacity_host.cpp:_ZZN6draxul12MegaCityHost28sync_camera_state_to_configsEvENK3$_0clERNS_18MegaCityCodeConfigE
FNDA:0,megacity_host.cpp:_ZN6draxul12_GLOBAL__N_122requires_world_rebuildERKNS_18MegaCityCodeConfigES3_
FNDA:0,megacity_host.cpp:_ZN6draxul12_GLOBAL__N_123world_rebuild_signatureENS_18MegaCityCodeConfigE
FNDA:0,megacity_host.cpp:_ZN6draxul12_GLOBAL__N_123clear_coverage_snapshotERNS_19RuntimePerfSnapshotE
FNDA:0,megacity_host.cpp:_ZZN6draxul12MegaCityHost17render_host_imguiEfENK3$_0clEv
FNDA:8,megacity_host.cpp:_ZN6draxul12_GLOBAL__N_127save_merged_megacity_configEPNS_14ConfigDocumentERKNS_18MegaCityCodeConfigES5_
FNDA:0,megacity_host.cpp:_ZZN6draxul12MegaCityHost21rebuild_semantic_cityEvENK3$_0clERNS_18MegaCityCodeConfigE
FNDA:0,megacity_host.cpp:_ZN6draxul12_GLOBAL__N_127merge_runtime_perf_coverageERNS_19RuntimePerfSnapshotERKS1_
FNDA:0,megacity_host.cpp:_ZN6draxul12_GLOBAL__N_125runtime_perf_function_keyENSt3__117basic_string_viewIcNS1_11char_traitsIcEEEES5_S5_
FNDA:0,megacity_host.cpp:_ZN6draxul12_GLOBAL__N_127runtime_timing_has_activityERKNS_25RuntimePerfFunctionTimingE
FNDA:12,megacity_host.cpp:_ZN6draxul12_GLOBAL__N_124preserve_visible_tooltipEPKNS_18IsometricScenePassEbRNS_13SceneSnapshotE
FNDA:2,megacity_host.cpp:_ZN6draxul12_GLOBAL__N_127exact_building_identity_keyENSt3__117basic_string_viewIcNS1_11char_traitsIcEEEES5_S5_
FNDA:1,megacity_host.cpp:_ZN6draxul12_GLOBAL__N_129connected_building_identitiesERKNS_21SemanticMegacityModelENSt3__117basic_string_viewIcNS4_11char_traitsIcEEEES8_S8_
FNDA:0,megacity_host.cpp:_ZN6draxul12_GLOBAL__N_120find_building_metricERKNS_23LiveCityMetricsSnapshotENSt3__117basic_string_viewIcNS4_11char_traitsIcEEEES8_S8_
FNDA:0,megacity_host.cpp:_ZZN6draxul12MegaCityHost4pumpEvENK3$_1clEm
FNDA:0,megacity_host.cpp:_ZN6draxul12_GLOBAL__N_120find_function_metricERKNS_23LiveCityMetricsSnapshotENSt3__117basic_string_viewIcNS4_11char_traitsIcEEEES8_S8_S8_j
FNDA:0,megacity_host.cpp:_ZZN6draxul12MegaCityHost4pumpEvENK3$_2clERNS_3gui13TooltipBitmapE
FNDA:2,megacity_host.cpp:_ZN6draxul12_GLOBAL__N_117is_overlay_activeENS_11OverlayModeE
FNDA:0,megacity_host.cpp:_ZZN6draxul12MegaCityHost19handle_double_clickERKN3glm3vecILi2EiLNS1_9qualifierE0EEEENK3$_0clEm
FNDA:0,megacity_host.cpp:_ZN6draxul12_GLOBAL__N_124find_implementation_fileERKNSt3__14__fs10filesystem4pathENS1_17basic_string_viewIcNS1_11char_traitsIcEEEESA_
FNDA:0,megacity_host.cpp:_ZN6draxul12_GLOBAL__N_120candidate_impl_filesERKNSt3__14__fs10filesystem4pathE
FNDA:0,megacity_host.cpp:_ZN6draxul12_GLOBAL__N_122file_contains_functionERKNSt3__14__fs10filesystem4pathENS1_17basic_string_viewIcNS1_11char_traitsIcEEEE
FNDA:0,megacity_host.cpp:_ZN6draxul12_GLOBAL__N_124is_module_context_objectERKNS_11SceneObjectE
FNDA:8,megacity_host.cpp:_ZZN6draxul12MegaCityHost10initializeERKNS_11HostContextERNS_14IHostCallbacksEENK3$_0clEv
FNDA:14,megacity_host.cpp:_ZZN6draxul12MegaCityHost17route_worker_loopEvENK3$_0clEv
FNDA:0,megacity_host.cpp:_ZZN6draxul12MegaCityHost17launch_grid_buildERKNS_22SemanticMegacityLayoutERKNS_21SemanticMegacityModelEENK3$_0clEv
FNDA:0,megacity_host.cpp:_ZZN6draxul12MegaCityHost4pumpEvENK3$_0clERKNSt3__112basic_stringIcNS2_11char_traitsIcEENS2_9allocatorIcEEEESA_SA_
FNDA:0,megacity_host.cpp:_ZZN6draxul12MegaCityHost12handle_clickERKN3glm3vecILi2EiLNS1_9qualifierE0EEEENK3$_0clERKNSt3__112basic_stringIcNS8_11char_traitsIcEENS8_9allocatorIcEEEESG_SG_
FNDA:0,megacity_host.cpp:_ZN6draxul12_GLOBAL__N_121building_identity_keyENSt3__117basic_string_viewIcNS1_11char_traitsIcEEEES5_
FNF:73
FNH:31
DA:57,8
DA:58,8
DA:59,7
DA:61,1
DA:62,1
DA:63,1
DA:64,1
DA:65,1
DA:70,27
DA:71,27
DA:72,27
DA:76,2
DA:77,2
DA:78,2
DA:82,0
DA:83,0
DA:84,0
DA:85,0
DA:86,0
DA:87,0
DA:88,0
DA:89,0
DA:90,0
DA:91,0
DA:92,0
DA:93,0
DA:98,0
DA:99,0
DA:100,0
DA:101,0
DA:102,0
DA:104,0
DA:106,0
DA:109,0
DA:110,0
DA:111,0
DA:112,0
DA:114,0
DA:115,0
DA:116,0
DA:117,0
DA:119,0
DA:120,0
DA:135,0
DA:136,0
DA:137,0
DA:138,0
DA:139,0
DA:140,0
DA:143,0
DA:144,0
DA:145,0
DA:148,0
DA:149,0
DA:150,0
DA:151,0
DA:152,0
DA:153,0
DA:154,0
DA:156,0
DA:157,0
DA:158,0
DA:160,0
DA:161,0
DA:162,0
DA:163,0
DA:164,0
DA:165,0
DA:166,0
DA:167,0
DA:170,0
DA:171,0
DA:174,0
DA:175,0
DA:176,0
DA:177,0
DA:178,0
DA:179,0
DA:180,0
DA:181,0
DA:182,0
DA:183,0
DA:184,0
DA:185,0
DA:186,0
DA:187,0
DA:188,0
DA:189,0
DA:190,0
DA:191,0
DA:192,0
DA:193,0
DA:194,0
DA:195,0
DA:196,0
DA:197,0
DA:198,0
DA:199,0
DA:200,0
DA:201,0
DA:202,0
DA:203,0
DA:204,0
DA:205,0
DA:208,0
DA:209,0
DA:210,0
DA:213,8
DA:214,8
DA:215,8
DA:216,8
DA:217,8
DA:219,8
DA:220,8
DA:221,8
DA:222,8
DA:223,8
DA:224,8
DA:225,8
DA:226,8
DA:227,8
DA:228,8
DA:229,8
DA:230,8
DA:231,8
DA:232,8
DA:233,8
DA:234,8
DA:236,0
DA:237,0
DA:238,0
DA:239,0
DA:243,8
DA:246,0
DA:247,0
DA:248,0
DA:249,0
DA:250,0
DA:251,0
DA:252,0
DA:253,0
DA:259,2
DA:260,2
DA:261,2
DA:262,2
DA:263,2
DA:264,2
DA:265,2
DA:266,2
DA:267,2
DA:268,2
DA:275,1
DA:276,1
DA:277,1
DA:278,1
DA:279,1
DA:280,0
DA:281,0
DA:282,0
DA:283,0
DA:284,0
DA:285,0
DA:286,0
DA:287,0
DA:288,0
DA:289,0
DA:290,1
DA:291,1
DA:294,0
DA:295,0
DA:296,0
DA:297,0
DA:300,0
DA:301,0
DA:302,0
DA:303,0
DA:304,0
DA:305,0
DA:306,0
DA:312,0
DA:313,0
DA:314,0
DA:315,0
DA:316,0
DA:317,0
DA:318,0
DA:319,0
DA:320,0
DA:321,0
DA:324,0
DA:325,0
DA:326,0
DA:329,0
DA:330,0
DA:331,0
DA:332,0
DA:334,0
DA:335,0
DA:336,0
DA:337,0
DA:338,0
DA:339,0
DA:340,0
DA:341,0
DA:342,0
DA:343,0
DA:344,0
DA:345,0
DA:347,0
DA:348,0
DA:349,0
DA:350,0
DA:352,0
DA:353,0
DA:354,0
DA:355,0
DA:356,0
DA:357,0
DA:358,0
DA:359,0
DA:360,0
DA:361,0
DA:362,0
DA:363,0
DA:364,0
DA:365,0
DA:366,0
DA:367,0
DA:374,0
DA:375,0
DA:376,0
DA:377,0
DA:378,0
DA:379,0
DA:380,0
DA:381,0
DA:382,0
DA:383,0
DA:384,0
DA:385,0
DA:394,0
DA:395,0
DA:396,0
DA:397,0
DA:398,0
DA:399,0
DA:400,0
DA:401,0
DA:402,0
DA:403,0
DA:404,0
DA:405,0
DA:406,0
DA:407,0
DA:410,12
DA:411,12
DA:412,12
DA:414,0
DA:415,0
DA:416,0
DA:418,0
DA:419,0
DA:424,8
DA:425,8
DA:426,8
DA:429,8
DA:430,8
DA:431,0
DA:432,8
DA:433,8
DA:434,8
DA:435,8
DA:436,8
DA:437,8
DA:438,8
DA:439,0
DA:440,8
DA:443,8
DA:444,8
DA:445,8
DA:446,8
DA:447,7
DA:448,7
DA:449,7
DA:450,7
DA:452,1
DA:453,1
DA:454,0
DA:455,0
DA:457,1
DA:458,1
DA:459,1
DA:460,1
DA:461,1
DA:462,1
DA:463,1
DA:464,1
DA:465,1
DA:466,1
DA:467,0
DA:468,0
DA:469,0
DA:470,0
DA:471,0
DA:472,0
DA:475,1
DA:476,1
DA:477,1
DA:478,1
DA:479,1
DA:480,1
DA:481,1
DA:482,1
DA:483,1
DA:484,0
DA:485,1
DA:486,1
DA:489,8
DA:490,8
DA:491,8
DA:492,8
DA:493,8
DA:494,8
DA:495,8
DA:496,8
DA:497,8
DA:498,8
DA:499,8
DA:500,8
DA:501,8
DA:504,8
DA:505,8
DA:506,8
DA:508,8
DA:509,8
DA:510,8
DA:511,8
DA:512,8
DA:513,8
DA:514,8
DA:515,8
DA:516,8
DA:518,8
DA:519,0
DA:520,8
DA:521,8
DA:522,8
DA:523,8
DA:524,8
DA:525,8
DA:527,8
DA:528,8
DA:529,8
DA:530,8
DA:531,8
DA:532,8
DA:534,8
DA:535,8
DA:536,8
DA:537,8
DA:538,8
DA:539,8
DA:540,8
DA:541,8
DA:542,8
DA:543,8
DA:544,8
DA:545,0
DA:546,0
DA:547,0
DA:548,0
DA:549,8
DA:550,0
DA:551,8
DA:552,8
DA:553,8
DA:554,8
DA:555,8
DA:556,8
DA:558,8
DA:559,8
DA:560,8
DA:561,8
DA:564,8
DA:565,8
DA:566,8
DA:567,8
DA:568,8
DA:569,8
DA:572,0
DA:573,0
DA:574,0
DA:575,0
DA:576,0
DA:577,0
DA:580,8
DA:581,8
DA:582,8
DA:583,8
DA:584,8
DA:585,8
DA:586,14
DA:587,14
DA:588,14
DA:589,8
DA:590,8
DA:591,0
DA:592,0
DA:593,0
DA:595,0
DA:597,0
DA:598,0
DA:599,0
DA:600,0
DA:601,0
DA:602,0
DA:603,0
DA:604,0
DA:605,0
DA:606,0
DA:607,0
DA:608,0
DA:609,0
DA:611,0
DA:612,0
DA:613,0
DA:614,0
DA:615,0
DA:616,0
DA:617,0
DA:618,0
DA:619,0
DA:620,0
DA:621,0
DA:622,0
DA:623,8
DA:629,0
DA:630,0
DA:631,0
DA:632,0
DA:634,0
DA:635,0
DA:636,0
DA:637,0
DA:638,0
DA:639,0
DA:640,0
DA:642,0
DA:643,0
DA:644,0
DA:645,0
DA:646,0
DA:647,0
DA:648,0
DA:649,0
DA:650,0
DA:651,0
DA:652,0
DA:653,0
DA:654,0
DA:655,0
DA:656,0
DA:657,0
DA:658,0
DA:661,0
DA:662,0
DA:663,0
DA:664,0
DA:665,0
DA:666,0
DA:667,0
DA:668,0
DA:669,0
DA:670,0
DA:671,0
DA:673,0
DA:674,0
DA:675,0
DA:676,0
DA:677,0
DA:678,0
DA:679,0
DA:682,9
DA:683,9
DA:684,9
DA:685,9
DA:686,9
DA:687,9
DA:688,9
DA:689,0
DA:690,0
DA:691,0
DA:692,0
DA:693,0
DA:695,0
DA:696,0
DA:697,0
DA:698,0
DA:699,0
DA:701,0
DA:702,0
DA:703,0
DA:704,0
DA:705,0
DA:706,0
DA:707,0
DA:708,0
DA:709,0
DA:712,8
DA:713,8
DA:714,8
DA:715,8
DA:716,8
DA:717,8
DA:720,8
DA:721,8
DA:722,8
DA:723,0
DA:725,8
DA:726,16
DA:727,16
DA:728,16
DA:729,16
DA:730,16
DA:731,16
DA:732,16
DA:733,16
DA:735,8
DA:736,8
DA:737,8
DA:740,0
DA:741,0
DA:742,0
DA:743,0
DA:745,0
DA:746,0
DA:747,0
DA:748,0
DA:750,0
DA:751,0
DA:752,0
DA:753,0
DA:756,0
DA:757,0
DA:758,0
DA:761,0
DA:762,0
DA:765,0
DA:766,0
DA:767,0
DA:768,0
DA:769,0
DA:770,0
DA:771,0
DA:772,0
DA:773,0
DA:774,0
DA:775,0
DA:777,0
DA:778,0
DA:779,0
DA:780,0
DA:781,0
DA:782,0
DA:783,0
DA:786,0
DA:787,0
DA:788,0
DA:789,0
DA:790,0
DA:791,0
DA:794,0
DA:795,0
DA:796,0
DA:797,0
DA:798,0
DA:799,0
DA:800,0
DA:802,0
DA:803,0
DA:804,0
DA:805,0
DA:806,0
DA:807,0
DA:808,0
DA:809,0
DA:810,0
DA:811,0
DA:812,0
DA:814,0
DA:815,0
DA:816,0
DA:817,0
DA:818,0
DA:819,0
DA:822,1
DA:823,1
DA:824,1
DA:825,0
DA:827,1
DA:828,1
DA:829,1
DA:831,1
DA:832,1
DA:833,1
DA:836,6
DA:837,6
DA:840,6
DA:841,6
DA:842,6
DA:843,6
DA:845,6
DA:846,0
DA:847,0
DA:848,0
DA:849,0
DA:850,0
DA:851,6
DA:853,6
DA:854,0
DA:856,6
DA:857,6
DA:858,6
DA:859,6
DA:860,6
DA:861,6
DA:862,6
DA:864,6
DA:865,6
DA:867,6
DA:868,5
DA:869,5
DA:870,5
DA:871,5
DA:873,5
DA:874,5
DA:875,5
DA:876,5
DA:877,0
DA:878,0
DA:879,0
DA:880,0
DA:881,5
DA:884,6
DA:885,0
DA:887,6
DA:888,5
DA:889,5
DA:890,5
DA:891,5
DA:892,5
DA:893,6
DA:896,6
DA:897,6
DA:900,6
DA:901,6
DA:902,6
DA:903,6
DA:904,6
DA:905,6
DA:906,6
DA:907,6
DA:908,6
DA:909,0
DA:910,0
DA:911,0
DA:912,0
DA:913,0
DA:914,0
DA:915,0
DA:916,0
DA:917,6
DA:918,6
DA:919,6
DA:921,6
DA:922,0
DA:923,0
DA:924,0
DA:925,0
DA:926,0
DA:927,6
DA:929,6
DA:930,6
DA:931,3
DA:932,6
DA:935,0
DA:937,0
DA:938,0
DA:939,0
DA:940,0
DA:941,0
DA:942,0
DA:945,0
DA:946,0
DA:947,0
DA:948,0
DA:949,0
DA:950,0
DA:951,0
DA:952,0
DA:953,0
DA:954,0
DA:955,0
DA:956,0
DA:957,0
DA:958,0
DA:959,0
DA:960,0
DA:961,0
DA:962,0
DA:963,0
DA:966,1
DA:967,1
DA:968,1
DA:969,1
DA:970,1
DA:971,1
DA:972,1
DA:973,1
DA:974,1
DA:977,4
DA:978,4
DA:979,4
DA:980,4
DA:982,0
DA:983,0
DA:984,0
DA:989,0
DA:990,0
DA:991,0
DA:992,0
DA:993,0
DA:995,0
DA:996,0
DA:997,0
DA:998,0
DA:999,0
DA:1000,0
DA:1001,0
DA:1002,0
DA:1003,0
DA:1004,0
DA:1005,0
DA:1006,0
DA:1007,0
DA:1008,0
DA:1009,0
DA:1010,0
DA:1012,0
DA:1013,0
DA:1014,0
DA:1015,0
DA:1016,0
DA:1018,0
DA:1019,0
DA:1021,0
DA:1022,0
DA:1025,0
DA:1027,0
DA:1028,0
DA:1029,0
DA:1030,0
DA:1031,0
DA:1032,0
DA:1033,0
DA:1035,0
DA:1036,0
DA:1037,0
DA:1038,0
DA:1039,0
DA:1040,0
DA:1041,0
DA:1042,0
DA:1043,0
DA:1044,0
DA:1045,0
DA:1046,0
DA:1047,0
DA:1048,0
DA:1049,0
DA:1050,0
DA:1051,0
DA:1052,0
DA:1053,0
DA:1054,0
DA:1055,0
DA:1056,0
DA:1058,0
DA:1059,0
DA:1060,0
DA:1061,0
DA:1062,0
DA:1063,0
DA:1064,0
DA:1065,0
DA:1066,0
DA:1067,0
DA:1068,0
DA:1069,0
DA:1070,0
DA:1071,0
DA:1072,0
DA:1073,0
DA:1074,0
DA:1075,0
DA:1076,0
DA:1078,0
DA:1079,0
DA:1080,0
DA:1081,0
DA:1082,0
DA:1083,0
DA:1084,0
DA:1085,0
DA:1086,0
DA:1087,0
DA:1088,0
DA:1089,0
DA:1090,0
DA:1091,0
DA:1093,0
DA:1094,0
DA:1095,0
DA:1096,0
DA:1097,0
DA:1099,0
DA:1100,0
DA:1103,0
DA:1104,0
DA:1105,0
DA:1106,0
DA:1107,0
DA:1108,0
DA:1109,0
DA:1110,0
DA:1111,0
DA:1112,0
DA:1113,0
DA:1114,0
DA:1115,0
DA:1116,0
DA:1117,0
DA:1118,0
DA:1119,0
DA:1120,0
DA:1121,0
DA:1122,0
DA:1123,0
DA:1124,0
DA:1125,0
DA:1126,0
DA:1127,0
DA:1128,0
DA:1129,0
DA:1130,0
DA:1131,0
DA:1132,0
DA:1134,0
DA:1135,0
DA:1136,0
DA:1137,0
DA:1138,0
DA:1139,0
DA:1140,0
DA:1141,0
DA:1142,0
DA:1144,0
DA:1145,0
DA:1147,0
DA:1148,0
DA:1149,0
DA:1150,0
DA:1151,0
DA:1152,0
DA:1153,0
DA:1154,0
DA:1155,0
DA:1156,0
DA:1157,0
DA:1158,0
DA:1159,0
DA:1160,0
DA:1161,0
DA:1162,0
DA:1163,0
DA:1164,0
DA:1165,0
DA:1166,0
DA:1167,0
DA:1168,0
DA:1169,0
DA:1171,0
DA:1172,0
DA:1173,0
DA:1174,0
DA:1175,0
DA:1176,0
DA:1177,0
DA:1178,0
DA:1179,0
DA:1180,0
DA:1181,0
DA:1182,0
DA:1183,0
DA:1184,0
DA:1185,0
DA:1187,0
DA:1188,0
DA:1191,8
DA:1192,8
DA:1193,8
DA:1194,0
DA:1195,8
DA:1196,8
DA:1197,8
DA:1198,8
DA:1199,8
DA:1200,8
DA:1201,8
DA:1202,8
DA:1203,8
DA:1204,8
DA:1205,8
DA:1208,8
DA:1211,8
DA:1212,8
DA:1213,8
DA:1214,8
DA:1215,8
DA:1216,8
DA:1217,1
DA:1218,8
DA:1219,8
DA:1220,8
DA:1221,8
DA:1223,8
DA:1224,8
DA:1225,8
DA:1226,8
DA:1227,8
DA:1228,1
DA:1229,1
DA:1230,1
DA:1231,1
DA:1232,8
DA:1233,1
DA:1234,1
DA:1235,1
DA:1236,1
DA:1237,8
DA:1238,8
DA:1239,8
DA:1240,8
DA:1241,8
DA:1242,8
DA:1243,8
DA:1244,8
DA:1247,0
DA:1248,0
DA:1249,0
DA:1252,0
DA:1253,0
DA:1254,0
DA:1257,0
DA:1258,0
DA:1259,0
DA:1260,0
DA:1261,0
DA:1263,0
DA:1264,0
DA:1266,0
DA:1267,0
DA:1270,0
DA:1271,0
DA:1272,0
DA:1273,0
DA:1275,0
DA:1276,0
DA:1278,0
DA:1279,0
DA:1280,0
DA:1281,0
DA:1282,0
DA:1285,0
DA:1286,0
DA:1287,0
DA:1288,0
DA:1289,0
DA:1290,0
DA:1291,0
DA:1292,0
DA:1295,0
DA:1296,0
DA:1297,0
DA:1298,0
DA:1299,0
DA:1300,0
DA:1301,0
DA:1302,0
DA:1303,0
DA:1304,0
DA:1305,0
DA:1307,0
DA:1308,0
DA:1309,0
DA:1310,0
DA:1313,0
DA:1314,0
DA:1315,0
DA:1316,0
DA:1317,0
DA:1318,0
DA:1319,0
DA:1320,0
DA:1321,0
DA:1322,0
DA:1323,0
DA:1324,0
DA:1325,0
DA:1326,0
DA:1327,0
DA:1328,0
DA:1329,0
DA:1330,0
DA:1331,0
DA:1332,0
DA:1333,0
DA:1335,0
DA:1336,0
DA:1337,0
DA:1338,0
DA:1339,0
DA:1340,0
DA:1341,0
DA:1342,0
DA:1343,0
DA:1344,0
DA:1345,0
DA:1348,0
DA:1349,0
DA:1350,0
DA:1351,0
DA:1352,0
DA:1353,0
DA:1354,0
DA:1355,0
DA:1356,0
DA:1357,0
DA:1358,0
DA:1359,0
DA:1360,0
DA:1361,0
DA:1362,0
DA:1363,0
DA:1364,0
DA:1365,0
DA:1366,0
DA:1367,0
DA:1368,0
DA:1369,0
DA:1370,0
DA:1372,0
DA:1373,0
DA:1375,0
DA:1376,0
DA:1377,0
DA:1380,0
DA:1381,0
DA:1383,0
DA:1384,0
DA:1386,0
DA:1387,0
DA:1388,0
DA:1389,0
DA:1390,0
DA:1391,0
DA:1394,0
DA:1395,0
DA:1397,0
DA:1398,0
DA:1399,0
DA:1400,0
DA:1402,0
DA:1403,0
DA:1404,0
DA:1405,0
DA:1407,0
DA:1408,0
DA:1409,0
DA:1410,0
DA:1411,0
DA:1412,0
DA:1413,0
DA:1414,0
DA:1415,0
DA:1418,9
DA:1419,9
DA:1420,9
DA:1421,9
DA:1422,9
DA:1423,9
DA:1424,9
DA:1426,9
DA:1427,9
DA:1428,9
DA:1429,0
DA:1430,0
DA:1431,0
DA:1432,0
DA:1433,0
DA:1434,0
DA:1435,0
DA:1436,0
DA:1437,0
DA:1438,0
DA:1439,0
DA:1440,0
DA:1441,0
DA:1442,0
DA:1443,0
DA:1444,0
DA:1445,0
DA:1446,0
DA:1447,0
DA:1448,0
DA:1449,0
DA:1450,0
DA:1451,0
DA:1452,0
DA:1453,0
DA:1454,0
DA:1455,0
DA:1457,9
DA:1458,8
DA:1460,9
DA:1461,0
DA:1462,9
DA:1463,0
DA:1464,9
DA:1466,9
DA:1467,8
DA:1468,8
DA:1469,8
DA:1470,8
DA:1471,8
DA:1472,8
DA:1473,8
DA:1475,9
DA:1476,9
DA:1477,0
DA:1479,9
DA:1481,9
DA:1482,9
DA:1483,9
DA:1484,0
DA:1485,0
DA:1486,0
DA:1487,0
DA:1488,0
DA:1489,0
DA:1490,0
DA:1491,0
DA:1492,0
DA:1493,0
DA:1494,0
DA:1495,0
DA:1496,0
DA:1497,0
DA:1498,0
DA:1499,0
DA:1500,0
DA:1501,0
DA:1502,0
DA:1503,0
DA:1504,0
DA:1505,0
DA:1506,9
DA:1508,9
DA:1510,9
DA:1511,9
DA:1512,9
DA:1513,0
DA:1514,0
DA:1515,0
DA:1516,0
DA:1517,0
DA:1518,0
DA:1519,0
DA:1520,0
DA:1521,0
DA:1522,0
DA:1523,0
DA:1524,0
DA:1525,0
DA:1526,0
DA:1527,0
DA:1528,0
DA:1529,0
DA:1530,0
DA:1531,0
DA:1532,0
DA:1534,9
DA:1535,0
DA:1536,0
DA:1537,0
DA:1538,0
DA:1539,0
DA:1540,0
DA:1541,0
DA:1542,0
DA:1543,0
DA:1544,0
DA:1545,0
DA:1546,0
DA:1548,9
DA:1549,8
DA:1550,8
DA:1551,8
DA:1552,8
DA:1553,8
DA:1554,8
DA:1555,8
DA:1556,8
DA:1557,8
DA:1558,8
DA:1559,8
DA:1560,8
DA:1561,8
DA:1562,0
DA:1563,8
DA:1564,8
DA:1565,1
DA:1566,0
DA:1567,0
DA:1568,0
DA:1572,9
DA:1573,9
DA:1574,0
DA:1575,0
DA:1576,0
DA:1577,0
DA:1578,0
DA:1579,0
DA:1580,0
DA:1581,0
DA:1583,0
DA:1584,0
DA:1585,0
DA:1586,0
DA:1587,0
DA:1588,0
DA:1589,0
DA:1590,0
DA:1591,0
DA:1592,0
DA:1593,0
DA:1594,0
DA:1595,0
DA:1596,0
DA:1597,0
DA:1598,0
DA:1599,0
DA:1600,0
DA:1601,0
DA:1602,0
DA:1603,0
DA:1604,0
DA:1605,0
DA:1606,0
DA:1608,0
DA:1609,0
DA:1610,0
DA:1611,0
DA:1612,0
DA:1613,0
DA:1614,0
DA:1615,0
DA:1616,0
DA:1617,0
DA:1618,0
DA:1619,0
DA:1620,0
DA:1621,0
DA:1622,0
DA:1623,0
DA:1624,0
DA:1625,0
DA:1626,0
DA:1627,0
DA:1628,0
DA:1630,0
DA:1631,0
DA:1632,0
DA:1633,0
DA:1634,0
DA:1635,0
DA:1636,0
DA:1637,0
DA:1638,0
DA:1639,0
DA:1640,0
DA:1642,0
DA:1643,0
DA:1644,0
DA:1645,0
DA:1646,0
DA:1647,0
DA:1648,0
DA:1649,0
DA:1650,0
DA:1652,0
DA:1653,0
DA:1654,0
DA:1655,0
DA:1656,0
DA:1657,0
DA:1658,0
DA:1659,0
DA:1660,0
DA:1661,0
DA:1662,0
DA:1663,0
DA:1664,0
DA:1665,0
DA:1666,0
DA:1667,0
DA:1668,0
DA:1669,0
DA:1670,0
DA:1671,0
DA:1674,0
DA:1675,0
DA:1676,0
DA:1677,0
DA:1678,0
DA:1680,0
DA:1681,0
DA:1682,0
DA:1683,0
DA:1684,0
DA:1685,0
DA:1686,0
DA:1687,0
DA:1688,0
DA:1689,0
DA:1690,0
DA:1691,0
DA:1692,0
DA:1693,0
DA:1694,0
DA:1695,0
DA:1696,0
DA:1697,0
DA:1698,0
DA:1699,0
DA:1700,0
DA:1701,0
DA:1702,0
DA:1703,0
DA:1705,0
DA:1706,0
DA:1707,0
DA:1708,0
DA:1709,0
DA:1710,0
DA:1711,0
DA:1712,0
DA:1713,0
DA:1714,0
DA:1715,0
DA:1716,0
DA:1717,0
DA:1718,0
DA:1719,0
DA:1720,0
DA:1721,0
DA:1722,0
DA:1724,0
DA:1725,0
DA:1726,0
DA:1727,0
DA:1728,0
DA:1729,0
DA:1730,0
DA:1731,0
DA:1732,0
DA:1733,0
DA:1735,0
DA:1736,0
DA:1737,0
DA:1738,0
DA:1739,0
DA:1740,0
DA:1741,0
DA:1742,0
DA:1743,0
DA:1745,0
DA:1746,0
DA:1747,0
DA:1748,0
DA:1749,0
DA:1751,0
DA:1752,0
DA:1753,0
DA:1756,0
DA:1757,0
DA:1758,0
DA:1759,0
DA:1760,0
DA:1761,0
DA:1763,0
DA:1764,0
DA:1765,0
DA:1766,0
DA:1767,0
DA:1768,0
DA:1769,0
DA:1770,0
DA:1771,0
DA:1772,0
DA:1773,0
DA:1774,0
DA:1775,0
DA:1776,0
DA:1777,0
DA:1778,0
DA:1779,0
DA:1780,0
DA:1781,0
DA:1782,0
DA:1783,0
DA:1784,0
DA:1785,0
DA:1786,0
DA:1787,0
DA:1788,0
DA:1789,0
DA:1790,0
DA:1791,0
DA:1792,0
DA:1793,0
DA:1794,0
DA:1795,0
DA:1796,0
DA:1797,0
DA:1798,0
DA:1799,0
DA:1800,0
DA:1801,0
DA:1802,0
DA:1803,0
DA:1804,0
DA:1806,0
DA:1807,0
DA:1809,0
DA:1810,0
DA:1811,0
DA:1812,0
DA:1813,0
DA:1814,0
DA:1815,0
DA:1817,0
DA:1818,0
DA:1819,0
DA:1821,0
DA:1822,0
DA:1823,0
DA:1824,0
DA:1825,0
DA:1826,0
DA:1827,0
DA:1828,0
DA:1830,0
DA:1831,0
DA:1832,0
DA:1833,0
DA:1834,0
DA:1835,0
DA:1836,0
DA:1837,0
DA:1838,0
DA:1839,0
DA:1840,0
DA:1841,0
DA:1842,0
DA:1843,0
DA:1844,0
DA:1845,0
DA:1846,0
DA:1847,0
DA:1848,0
DA:1849,0
DA:1851,0
DA:1852,0
DA:1853,0
DA:1854,0
DA:1855,0
DA:1856,0
DA:1857,0
DA:1858,0
DA:1859,0
DA:1860,0
DA:1861,0
DA:1862,0
DA:1863,0
DA:1864,0
DA:1865,0
DA:1866,0
DA:1868,9
DA:1869,0
DA:1870,9
DA:1871,0
DA:1872,9
DA:1875,4
DA:1876,4
DA:1877,0
DA:1879,4
DA:1880,4
DA:1881,4
DA:1882,4
DA:1883,4
DA:1884,4
DA:1885,4
DA:1886,4
DA:1887,4
DA:1888,4
DA:1889,4
DA:1890,4
DA:1891,4
DA:1892,4
DA:1893,1
DA:1894,4
DA:1895,4
DA:1897,4
DA:1898,4
DA:1899,4
DA:1900,4
DA:1901,4
DA:1902,4
DA:1904,4
DA:1905,4
DA:1906,0
DA:1907,4
DA:1910,6
DA:1911,6
DA:1912,0
DA:1915,6
DA:1916,5
DA:1917,5
DA:1918,5
DA:1919,3
DA:1920,5
DA:1922,3
DA:1923,3
DA:1924,3
DA:1925,2
DA:1926,1
DA:1927,0
DA:1928,1
DA:1929,0
DA:1930,1
DA:1931,1
DA:1934,0
DA:1935,0
DA:1936,0
DA:1937,0
DA:1938,0
DA:1939,0
DA:1940,0
DA:1941,0
DA:1942,0
DA:1943,0
DA:1944,0
DA:1945,0
DA:1946,0
DA:1947,0
DA:1948,0
DA:1949,0
DA:1950,0
DA:1951,0
DA:1954,0
DA:1955,0
DA:1956,0
DA:1959,1
DA:1960,1
DA:1961,1
DA:1964,0
DA:1965,0
DA:1966,0
DA:1967,0
DA:1968,0
DA:1969,0
DA:1972,0
DA:1973,0
DA:1974,0
DA:1975,0
DA:1976,0
DA:1977,0
DA:1978,0
DA:1979,0
DA:1982,0
DA:1983,0
DA:1984,0
DA:1985,0
DA:1988,0
DA:1989,0
DA:1990,0
DA:1992,0
DA:1993,0
DA:1995,0
DA:1996,0
DA:1997,0
DA:1998,0
DA:1999,0
DA:2000,0
DA:2001,0
DA:2002,0
DA:2003,0
DA:2004,0
DA:2005,0
DA:2006,0
DA:2007,0
DA:2008,0
DA:2009,0
DA:2010,0
DA:2011,0
DA:2012,0
DA:2013,0
DA:2014,0
DA:2016,0
DA:2017,0
DA:2018,0
DA:2019,0
DA:2020,0
DA:2021,0
DA:2022,0
DA:2023,0
DA:2024,0
DA:2025,0
DA:2026,0
DA:2027,0
DA:2028,0
DA:2029,0
DA:2030,0
DA:2031,0
DA:2032,0
DA:2033,0
DA:2034,0
DA:2035,0
DA:2036,0
DA:2037,0
DA:2038,0
DA:2039,0
DA:2040,0
DA:2041,0
DA:2042,0
DA:2043,0
DA:2044,0
DA:2045,0
DA:2046,0
DA:2047,0
DA:2048,0
DA:2049,0
DA:2050,0
DA:2051,0
DA:2052,0
DA:2055,0
DA:2056,0
DA:2057,0
DA:2058,0
DA:2060,0
DA:2061,0
DA:2062,0
DA:2064,0
DA:2065,0
DA:2066,0
DA:2067,0
DA:2068,0
DA:2069,0
DA:2070,0
DA:2071,0
DA:2072,0
DA:2073,0
DA:2074,0
DA:2077,0
DA:2078,0
DA:2079,0
DA:2080,0
DA:2081,0
DA:2082,0
DA:2083,0
DA:2084,0
DA:2085,0
DA:2088,0
DA:2089,0
DA:2090,0
DA:2091,0
DA:2092,0
DA:2093,0
DA:2094,0
DA:2096,0
DA:2097,0
DA:2098,0
DA:2099,0
DA:2100,0
DA:2101,0
DA:2102,0
DA:2103,0
DA:2104,0
DA:2105,0
DA:2106,0
DA:2107,0
DA:2108,0
DA:2109,0
DA:2110,0
DA:2111,0
DA:2112,0
DA:2113,0
DA:2115,0
DA:2116,0
DA:2118,0
DA:2119,0
DA:2120,0
DA:2121,0
DA:2122,0
DA:2123,0
DA:2125,0
DA:2126,0
DA:2128,0
DA:2129,0
DA:2130,0
DA:2131,0
DA:2132,0
DA:2133,0
DA:2134,0
DA:2135,0
DA:2136,0
DA:2137,0
DA:2138,0
DA:2139,0
DA:2142,0
DA:2143,0
DA:2144,0
DA:2145,0
DA:2146,0
DA:2147,0
DA:2148,0
DA:2149,0
DA:2150,0
DA:2152,0
DA:2153,0
DA:2154,0
DA:2155,0
DA:2156,0
DA:2157,0
DA:2158,0
DA:2159,0
DA:2160,0
DA:2162,0
DA:2163,0
DA:2166,1
DA:2167,1
DA:2168,1
DA:2169,0
DA:2171,1
DA:2172,1
DA:2173,1
DA:2174,1
DA:2175,1
DA:2176,1
DA:2177,1
DA:2178,1
DA:2179,1
DA:2180,1
DA:2181,1
DA:2182,1
DA:2183,1
DA:2184,1
DA:2185,0
DA:2186,0
DA:2187,0
DA:2188,0
DA:2189,0
DA:2190,0
DA:2191,0
DA:2192,0
DA:2193,0
DA:2194,0
DA:2196,1
DA:2197,1
DA:2198,1
DA:2199,1
DA:2200,1
DA:2201,1
DA:2202,0
DA:2203,0
DA:2204,0
DA:2205,0
DA:2206,0
DA:2207,0
DA:2208,0
DA:2209,0
DA:2210,0
DA:2211,0
DA:2212,0
DA:2213,0
DA:2214,0
DA:2215,0
DA:2216,0
DA:2217,0
DA:2218,0
DA:2219,0
DA:2220,0
DA:2222,0
DA:2223,0
DA:2224,0
DA:2225,0
DA:2226,0
DA:2227,0
DA:2228,0
DA:2229,0
DA:2230,0
DA:2231,0
DA:2232,0
DA:2233,0
DA:2234,0
DA:2236,0
DA:2237,0
DA:2239,1
DA:2240,1
DA:2243,0
DA:2244,0
DA:2245,0
DA:2246,0
DA:2248,0
DA:2249,0
DA:2250,0
DA:2251,0
DA:2252,0
DA:2254,0
DA:2255,0
DA:2256,0
DA:2257,0
DA:2258,0
DA:2259,0
DA:2260,0
DA:2262,0
DA:2263,0
DA:2264,0
DA:2267,1
DA:2268,1
DA:2269,1
BRDA:58,0,0,7
BRDA:58,0,1,1
BRDA:71,0,0,0
BRDA:71,0,1,27
BRDA:71,1,2,0
BRDA:71,1,3,27
BRDA:84,0,0,-
BRDA:84,0,1,-
BRDA:87,0,0,-
BRDA:87,0,1,-
BRDA:89,0,0,-
BRDA:89,0,1,-
BRDA:101,0,0,-
BRDA:101,0,1,-
BRDA:101,1,2,-
BRDA:101,1,3,-
BRDA:101,2,4,-
BRDA:101,2,5,-
BRDA:111,0,0,-
BRDA:111,0,1,-
BRDA:139,0,0,-
BRDA:139,0,1,-
BRDA:144,0,0,-
BRDA:144,0,1,-
BRDA:144,1,2,-
BRDA:144,1,3,-
BRDA:144,2,4,-
BRDA:144,2,5,-
BRDA:150,0,0,-
BRDA:150,0,1,-
BRDA:153,0,0,-
BRDA:153,0,1,-
BRDA:157,0,0,-
BRDA:157,0,1,-
BRDA:160,0,0,-
BRDA:160,0,1,-
BRDA:160,1,2,-
BRDA:160,1,3,-
BRDA:215,0,0,8
BRDA:215,0,1,0
BRDA:222,0,0,8
BRDA:222,0,1,0
BRDA:222,1,2,8
BRDA:222,1,3,0
BRDA:226,0,0,0
BRDA:226,0,1,8
BRDA:227,0,0,8
BRDA:227,0,1,0
BRDA:228,0,0,8
BRDA:228,0,1,0
BRDA:229,0,0,8
BRDA:229,0,1,0
BRDA:238,0,0,-
BRDA:238,0,1,-
BRDA:279,0,0,0
BRDA:279,0,1,1
BRDA:285,0,0,-
BRDA:285,0,1,-
BRDA:287,0,0,-
BRDA:287,0,1,-
BRDA:295,0,0,-
BRDA:295,0,1,-
BRDA:296,0,0,-
BRDA:296,0,1,-
BRDA:301,0,0,-
BRDA:301,0,1,-
BRDA:302,0,0,-
BRDA:302,0,1,-
BRDA:303,0,0,-
BRDA:303,0,1,-
BRDA:304,0,0,-
BRDA:304,0,1,-
BRDA:305,0,0,-
BRDA:305,0,1,-
BRDA:336,0,0,-
BRDA:336,0,1,-
BRDA:347,0,0,-
BRDA:347,0,1,-
BRDA:349,0,0,-
BRDA:349,0,1,-
BRDA:357,0,0,-
BRDA:357,0,1,-
BRDA:375,0,0,-
BRDA:375,0,1,-
BRDA:377,0,0,-
BRDA:377,0,1,-
BRDA:378,0,0,-
BRDA:378,0,1,-
BRDA:379,0,0,-
BRDA:379,0,1,-
BRDA:395,0,0,-
BRDA:395,0,1,-
BRDA:397,0,0,-
BRDA:397,0,1,-
BRDA:398,0,0,-
BRDA:398,0,1,-
BRDA:399,0,0,-
BRDA:399,0,1,-
BRDA:400,0,0,-
BRDA:400,0,1,-
BRDA:401,0,0,-
BRDA:401,0,1,-
BRDA:411,0,0,0
BRDA:411,0,1,12
BRDA:411,1,2,12
BRDA:411,1,3,0
BRDA:415,0,0,-
BRDA:415,0,1,-
BRDA:430,0,0,0
BRDA:430,0,1,8
BRDA:438,0,0,0
BRDA:438,0,1,8
BRDA:446,0,0,7
BRDA:446,0,1,1
BRDA:452,0,0,1
BRDA:452,0,1,0
BRDA:460,0,0,1
BRDA:460,0,1,0
BRDA:476,0,0,1
BRDA:476,0,1,0
BRDA:483,0,0,0
BRDA:483,0,1,1
BRDA:493,0,0,1
BRDA:493,0,1,7
BRDA:496,0,0,1
BRDA:496,0,1,7
BRDA:518,0,0,0
BRDA:518,0,1,8
BRDA:524,0,0,8
BRDA:524,0,1,0
BRDA:525,0,0,8
BRDA:525,0,1,0
BRDA:544,0,0,0
BRDA:544,0,1,8
BRDA:549,0,0,0
BRDA:549,0,1,8
BRDA:567,0,0,8
BRDA:567,0,1,0
BRDA:575,0,0,-
BRDA:575,0,1,-
BRDA:587,0,0,8
BRDA:587,0,1,6
BRDA:587,1,2,0
BRDA:587,1,3,6
BRDA:589,0,0,8
BRDA:589,0,1,0
BRDA:598,0,0,-
BRDA:598,0,1,-
BRDA:598,1,2,-
BRDA:598,1,3,-
BRDA:598,2,4,-
BRDA:598,2,5,-
BRDA:598,3,6,-
BRDA:598,3,7,-
BRDA:614,0,0,-
BRDA:614,0,1,-
BRDA:616,0,0,-
BRDA:616,0,1,-
BRDA:620,0,0,-
BRDA:620,0,1,-
BRDA:620,1,2,-
BRDA:620,1,3,-
BRDA:631,0,0,-
BRDA:631,0,1,-
BRDA:631,1,2,-
BRDA:631,1,3,-
BRDA:631,2,4,-
BRDA:631,2,5,-
BRDA:639,0,0,-
BRDA:639,0,1,-
BRDA:665,0,0,-
BRDA:665,0,1,-
BRDA:673,0,0,-
BRDA:673,0,1,-
BRDA:677,0,0,-
BRDA:677,0,1,-
BRDA:677,1,2,-
BRDA:677,1,3,-
BRDA:687,0,0,9
BRDA:687,0,1,0
BRDA:692,0,0,-
BRDA:692,0,1,-
BRDA:695,0,0,-
BRDA:695,0,1,-
BRDA:701,0,0,-
BRDA:701,0,1,-
BRDA:704,0,0,-
BRDA:704,0,1,-
BRDA:715,0,0,8
BRDA:715,0,1,0
BRDA:722,0,0,0
BRDA:722,0,1,8
BRDA:742,0,0,-
BRDA:742,0,1,-
BRDA:745,0,0,-
BRDA:745,0,1,-
BRDA:765,0,0,-
BRDA:765,0,1,-
BRDA:774,0,0,-
BRDA:774,0,1,-
BRDA:777,0,0,-
BRDA:777,0,1,-
BRDA:779,0,0,-
BRDA:779,0,1,-
BRDA:786,0,0,-
BRDA:786,0,1,-
BRDA:787,0,0,-
BRDA:787,0,1,-
BRDA:787,1,2,-
BRDA:787,1,3,-
BRDA:794,0,0,-
BRDA:794,0,1,-
BRDA:795,0,0,-
BRDA:795,0,1,-
BRDA:795,1,2,-
BRDA:795,1,3,-
BRDA:796,0,0,-
BRDA:796,0,1,-
BRDA:802,0,0,-
BRDA:802,0,1,-
BRDA:802,1,2,-
BRDA:802,1,3,-
BRDA:803,0,0,-
BRDA:803,0,1,-
BRDA:805,0,0,-
BRDA:805,0,1,-
BRDA:808,0,0,-
BRDA:808,0,1,-
BRDA:814,0,0,-
BRDA:814,0,1,-
BRDA:824,0,0,0
BRDA:824,0,1,1
BRDA:824,1,2,0
BRDA:824,1,3,1
BRDA:831,0,0,1
BRDA:831,0,1,0
BRDA:831,1,2,-
BRDA:831,1,3,-
BRDA:831,2,4,1
BRDA:831,2,5,0
BRDA:840,0,0,6
BRDA:840,0,1,0
BRDA:845,0,0,0
BRDA:845,0,1,6
BRDA:847,0,0,-
BRDA:847,0,1,-
BRDA:853,0,0,0
BRDA:853,0,1,6
BRDA:857,0,0,3
BRDA:857,0,1,3
BRDA:857,1,2,3
BRDA:857,1,3,0
BRDA:858,0,0,3
BRDA:858,0,1,3
BRDA:867,0,0,3
BRDA:867,0,1,3
BRDA:867,1,2,2
BRDA:867,1,3,1
BRDA:870,0,0,5
BRDA:870,0,1,0
BRDA:876,0,0,0
BRDA:876,0,1,5
BRDA:876,1,2,-
BRDA:876,1,3,-
BRDA:884,0,0,0
BRDA:884,0,1,6
BRDA:884,1,2,-
BRDA:884,1,3,-
BRDA:887,0,0,5
BRDA:887,0,1,1
BRDA:890,0,0,5
BRDA:890,0,1,0
BRDA:900,0,0,6
BRDA:900,0,1,0
BRDA:906,0,0,6
BRDA:906,0,1,0
BRDA:909,0,0,0
BRDA:909,0,1,6
BRDA:912,0,0,0
BRDA:912,0,1,6
BRDA:915,0,0,0
BRDA:915,0,1,6
BRDA:918,0,0,6
BRDA:918,0,1,0
BRDA:921,0,0,0
BRDA:921,0,1,6
BRDA:923,0,0,-
BRDA:923,0,1,-
BRDA:930,0,0,3
BRDA:930,0,1,3
BRDA:930,1,2,3
BRDA:930,1,3,0
BRDA:937,0,0,-
BRDA:937,0,1,-
BRDA:946,0,0,-
BRDA:946,0,1,-
BRDA:952,0,0,-
BRDA:952,0,1,-
BRDA:957,0,0,-
BRDA:957,0,1,-
BRDA:957,1,2,-
BRDA:957,1,3,-
BRDA:959,0,0,-
BRDA:959,0,1,-
BRDA:961,0,0,-
BRDA:961,0,1,-
BRDA:968,0,0,1
BRDA:968,0,1,0
BRDA:979,0,0,0
BRDA:979,0,1,4
BRDA:979,1,2,4
BRDA:979,1,3,0
BRDA:992,0,0,-
BRDA:992,0,1,-
BRDA:1012,0,0,-
BRDA:1012,0,1,-
BRDA:1018,0,0,-
BRDA:1018,0,1,-
BRDA:1036,0,0,-
BRDA:1036,0,1,-
BRDA:1038,0,0,-
BRDA:1038,0,1,-
BRDA:1038,1,2,-
BRDA:1038,1,3,-
BRDA:1047,0,0,-
BRDA:1047,0,1,-
BRDA:1063,0,0,-
BRDA:1063,0,1,-
BRDA:1064,0,0,-
BRDA:1064,0,1,-
BRDA:1066,0,0,-
BRDA:1066,0,1,-
BRDA:1075,0,0,-
BRDA:1075,0,1,-
BRDA:1093,0,0,-
BRDA:1093,0,1,-
BRDA:1099,0,0,-
BRDA:1099,0,1,-
BRDA:1099,1,2,-
BRDA:1099,1,3,-
BRDA:1113,0,0,-
BRDA:1113,0,1,-
BRDA:1113,1,2,-
BRDA:1113,1,3,-
BRDA:1114,0,0,-
BRDA:1114,0,1,-
BRDA:1115,0,0,-
BRDA:1115,0,1,-
BRDA:1117,0,0,-
BRDA:1117,0,1,-
BRDA:1120,0,0,-
BRDA:1120,0,1,-
BRDA:1121,0,0,-
BRDA:1121,0,1,-
BRDA:1134,0,0,-
BRDA:1134,0,1,-
BRDA:1134,1,2,-
BRDA:1134,1,3,-
BRDA:1141,0,0,-
BRDA:1141,0,1,-
BRDA:1147,0,0,-
BRDA:1147,0,1,-
BRDA:1149,0,0,-
BRDA:1149,0,1,-
BRDA:1152,0,0,-
BRDA:1152,0,1,-
BRDA:1155,0,0,-
BRDA:1155,0,1,-
BRDA:1155,1,2,-
BRDA:1155,1,3,-
BRDA:1162,0,0,-
BRDA:1162,0,1,-
BRDA:1162,1,2,-
BRDA:1162,1,3,-
BRDA:1171,0,0,-
BRDA:1171,0,1,-
BRDA:1172,0,0,-
BRDA:1172,0,1,-
BRDA:1173,0,0,-
BRDA:1173,0,1,-
BRDA:1174,0,0,-
BRDA:1174,0,1,-
BRDA:1174,1,2,-
BRDA:1174,1,3,-
BRDA:1174,2,4,-
BRDA:1174,2,5,-
BRDA:1176,0,0,-
BRDA:1176,0,1,-
BRDA:1176,1,2,-
BRDA:1176,1,3,-
BRDA:1180,0,0,-
BRDA:1180,0,1,-
BRDA:1193,0,0,0
BRDA:1193,0,1,8
BRDA:1202,0,0,8
BRDA:1202,0,1,0
BRDA:1211,0,0,8
BRDA:1211,0,1,0
BRDA:1214,0,0,8
BRDA:1214,0,1,0
BRDA:1216,0,0,1
BRDA:1216,0,1,7
BRDA:1227,0,0,1
BRDA:1227,0,1,7
BRDA:1232,0,0,1
BRDA:1232,0,1,7
BRDA:1260,0,0,-
BRDA:1260,0,1,-
BRDA:1261,0,0,-
BRDA:1261,0,1,-
BRDA:1263,0,0,-
BRDA:1263,0,1,-
BRDA:1272,0,0,-
BRDA:1272,0,1,-
BRDA:1272,1,2,-
BRDA:1272,1,3,-
BRDA:1275,0,0,-
BRDA:1275,0,1,-
BRDA:1275,1,2,-
BRDA:1275,1,3,-
BRDA:1286,0,0,-
BRDA:1286,0,1,-
BRDA:1295,0,0,-
BRDA:1295,0,1,-
BRDA:1313,0,0,-
BRDA:1313,0,1,-
BRDA:1313,1,2,-
BRDA:1313,1,3,-
BRDA:1315,0,0,-
BRDA:1315,0,1,-
BRDA:1320,0,0,-
BRDA:1320,0,1,-
BRDA:1328,0,0,-
BRDA:1328,0,1,-
BRDA:1335,0,0,-
BRDA:1335,0,1,-
BRDA:1348,0,0,-
BRDA:1348,0,1,-
BRDA:1350,0,0,-
BRDA:1350,0,1,-
BRDA:1350,1,2,-
BRDA:1350,1,3,-
BRDA:1352,0,0,-
BRDA:1352,0,1,-
BRDA:1364,0,0,-
BRDA:1364,0,1,-
BRDA:1375,0,0,-
BRDA:1375,0,1,-
BRDA:1375,1,2,-
BRDA:1375,1,3,-
BRDA:1383,0,0,-
BRDA:1383,0,1,-
BRDA:1386,0,0,-
BRDA:1386,0,1,-
BRDA:1412,0,0,-
BRDA:1412,0,1,-
BRDA:1426,0,0,9
BRDA:1426,0,1,0
BRDA:1428,0,0,0
BRDA:1428,0,1,9
BRDA:1432,0,0,-
BRDA:1432,0,1,-
BRDA:1432,1,2,-
BRDA:1432,1,3,-
BRDA:1440,0,0,-
BRDA:1440,0,1,-
BRDA:1440,1,2,-
BRDA:1440,1,3,-
BRDA:1445,0,0,-
BRDA:1445,0,1,-
BRDA:1445,1,2,-
BRDA:1445,1,3,-
BRDA:1450,0,0,-
BRDA:1450,0,1,-
BRDA:1450,1,2,-
BRDA:1450,1,3,-
BRDA:1457,0,0,8
BRDA:1457,0,1,1
BRDA:1460,0,0,0
BRDA:1460,0,1,9
BRDA:1462,0,0,0
BRDA:1462,0,1,9
BRDA:1466,0,0,8
BRDA:1466,0,1,1
BRDA:1471,0,0,8
BRDA:1471,0,1,0
BRDA:1476,0,0,0
BRDA:1476,0,1,9
BRDA:1481,0,0,9
BRDA:1481,0,1,0
BRDA:1481,1,2,9
BRDA:1481,1,3,0
BRDA:1483,0,0,4
BRDA:1483,0,1,5
BRDA:1483,1,2,0
BRDA:1483,1,3,4
BRDA:1485,0,0,-
BRDA:1485,0,1,-
BRDA:1510,0,0,0
BRDA:1510,0,1,9
BRDA:1510,1,2,0
BRDA:1510,1,3,9
BRDA:1511,0,0,-
BRDA:1511,0,1,-
BRDA:1512,0,0,-
BRDA:1512,0,1,-
BRDA:1516,0,0,-
BRDA:1516,0,1,-
BRDA:1519,0,0,-
BRDA:1519,0,1,-
BRDA:1534,0,0,0
BRDA:1534,0,1,9
BRDA:1534,1,2,-
BRDA:1534,1,3,-
BRDA:1534,2,4,-
BRDA:1534,2,5,-
BRDA:1541,0,0,-
BRDA:1541,0,1,-
BRDA:1541,1,2,-
BRDA:1541,1,3,-
BRDA:1541,2,4,-
BRDA:1541,2,5,-
BRDA:1548,0,0,8
BRDA:1548,0,1,1
BRDA:1548,1,2,8
BRDA:1548,1,3,0
BRDA:1548,2,4,8
BRDA:1548,2,5,0
BRDA:1548,3,6,8
BRDA:1548,3,7,0
BRDA:1561,0,0,0
BRDA:1561,0,1,8
BRDA:1565,0,0,0
BRDA:1565,0,1,1
BRDA:1572,0,0,9
BRDA:1572,0,1,0
BRDA:1572,1,2,9
BRDA:1572,1,3,0
BRDA:1573,0,0,9
BRDA:1573,0,1,0
BRDA:1573,1,2,0
BRDA:1573,1,3,9
BRDA:1573,2,4,-
BRDA:1573,2,5,-
BRDA:1573,3,6,-
BRDA:1573,3,7,-
BRDA:1573,4,8,-
BRDA:1573,4,9,-
BRDA:1576,0,0,-
BRDA:1576,0,1,-
BRDA:1576,1,2,-
BRDA:1576,1,3,-
BRDA:1577,0,0,-
BRDA:1577,0,1,-
BRDA:1580,0,0,-
BRDA:1580,0,1,-
BRDA:1580,1,2,-
BRDA:1580,1,3,-
BRDA:1580,2,4,-
BRDA:1580,2,5,-
BRDA:1580,3,6,-
BRDA:1580,3,7,-
BRDA:1584,0,0,-
BRDA:1584,0,1,-
BRDA:1593,0,0,-
BRDA:1593,0,1,-
BRDA:1595,0,0,-
BRDA:1595,0,1,-
BRDA:1604,0,0,-
BRDA:1604,0,1,-
BRDA:1609,0,0,-
BRDA:1609,0,1,-
BRDA:1609,1,2,-
BRDA:1609,1,3,-
BRDA:1626,0,0,-
BRDA:1626,0,1,-
BRDA:1626,1,2,-
BRDA:1626,1,3,-
BRDA:1639,0,0,-
BRDA:1639,0,1,-
BRDA:1642,0,0,-
BRDA:1642,0,1,-
BRDA:1644,0,0,-
BRDA:1644,0,1,-
BRDA:1646,0,0,-
BRDA:1646,0,1,-
BRDA:1648,0,0,-
BRDA:1648,0,1,-
BRDA:1649,0,0,-
BRDA:1649,0,1,-
BRDA:1658,0,0,-
BRDA:1658,0,1,-
BRDA:1660,0,0,-
BRDA:1660,0,1,-
BRDA:1674,0,0,-
BRDA:1674,0,1,-
BRDA:1677,0,0,-
BRDA:1677,0,1,-
BRDA:1681,0,0,-
BRDA:1681,0,1,-
BRDA:1684,0,0,-
BRDA:1684,0,1,-
BRDA:1686,0,0,-
BRDA:1686,0,1,-
BRDA:1705,0,0,-
BRDA:1705,0,1,-
BRDA:1709,0,0,-
BRDA:1709,0,1,-
BRDA:1712,0,0,-
BRDA:1712,0,1,-
BRDA:1715,0,0,-
BRDA:1715,0,1,-
BRDA:1746,0,0,-
BRDA:1746,0,1,-
BRDA:1748,0,0,-
BRDA:1748,0,1,-
BRDA:1766,0,0,-
BRDA:1766,0,1,-
BRDA:1768,0,0,-
BRDA:1768,0,1,-
BRDA:1770,0,0,-
BRDA:1770,0,1,-
BRDA:1770,1,2,-
BRDA:1770,1,3,-
BRDA:1781,0,0,-
BRDA:1781,0,1,-
BRDA:1785,0,0,-
BRDA:1785,0,1,-
BRDA:1792,0,0,-
BRDA:1792,0,1,-
BRDA:1792,1,2,-
BRDA:1792,1,3,-
BRDA:1795,0,0,-
BRDA:1795,0,1,-
BRDA:1806,0,0,-
BRDA:1806,0,1,-
BRDA:1806,1,2,-
BRDA:1806,1,3,-
BRDA:1814,0,0,-
BRDA:1814,0,1,-
BRDA:1814,1,2,-
BRDA:1814,1,3,-
BRDA:1814,2,4,-
BRDA:1814,2,5,-
BRDA:1821,0,0,-
BRDA:1821,0,1,-
BRDA:1824,0,0,-
BRDA:1824,0,1,-
BRDA:1830,0,0,-
BRDA:1830,0,1,-
BRDA:1837,0,0,-
BRDA:1837,0,1,-
BRDA:1843,0,0,-
BRDA:1843,0,1,-
BRDA:1851,0,0,-
BRDA:1851,0,1,-
BRDA:1851,1,2,-
BRDA:1851,1,3,-
BRDA:1868,0,0,9
BRDA:1868,0,1,0
BRDA:1868,1,2,0
BRDA:1868,1,3,9
BRDA:1868,2,4,-
BRDA:1868,2,5,-
BRDA:1870,0,0,9
BRDA:1870,0,1,0
BRDA:1870,1,2,0
BRDA:1870,1,3,9
BRDA:1870,2,4,-
BRDA:1870,2,5,-
BRDA:1876,0,0,0
BRDA:1876,0,1,4
BRDA:1879,0,0,4
BRDA:1879,0,1,0
BRDA:1879,1,2,4
BRDA:1879,1,3,0
BRDA:1879,2,4,4
BRDA:1879,2,5,0
BRDA:1892,0,0,1
BRDA:1892,0,1,3
BRDA:1905,0,0,4
BRDA:1905,0,1,0
BRDA:1905,1,2,0
BRDA:1905,1,3,4
BRDA:1911,0,0,0
BRDA:1911,0,1,6
BRDA:1915,0,0,6
BRDA:1915,0,1,0
BRDA:1915,1,2,5
BRDA:1915,1,3,1
BRDA:1918,0,0,3
BRDA:1918,0,1,2
BRDA:1922,0,0,2
BRDA:1922,0,1,1
BRDA:1922,1,2,2
BRDA:1922,1,3,0
BRDA:1922,2,4,2
BRDA:1922,2,5,0
BRDA:1923,0,0,2
BRDA:1923,0,1,0
BRDA:1924,0,0,2
BRDA:1924,0,1,0
BRDA:1926,0,0,0
BRDA:1926,0,1,1
BRDA:1928,0,0,0
BRDA:1928,0,1,1
BRDA:1936,0,0,-
BRDA:1936,0,1,-
BRDA:1936,1,2,-
BRDA:1936,1,3,-
BRDA:1939,0,0,-
BRDA:1939,0,1,-
BRDA:1943,0,0,-
BRDA:1943,0,1,-
BRDA:1946,0,0,-
BRDA:1946,0,1,-
BRDA:1977,0,0,-
BRDA:1977,0,1,-
BRDA:1984,0,0,-
BRDA:1984,0,1,-
BRDA:1984,1,2,-
BRDA:1984,1,3,-
BRDA:1984,2,4,-
BRDA:1984,2,5,-
BRDA:1984,3,6,-
BRDA:1984,3,7,-
BRDA:1989,0,0,-
BRDA:1989,0,1,-
BRDA:1989,1,2,-
BRDA:1989,1,3,-
BRDA:1989,2,4,-
BRDA:1989,2,5,-
BRDA:1989,3,6,-
BRDA:1989,3,7,-
BRDA:1996,0,0,-
BRDA:1996,0,1,-
BRDA:1996,1,2,-
BRDA:1996,1,3,-
BRDA:2012,0,0,-
BRDA:2012,0,1,-
BRDA:2012,1,2,-
BRDA:2012,1,3,-
BRDA:2025,0,0,-
BRDA:2025,0,1,-
BRDA:2027,0,0,-
BRDA:2027,0,1,-
BRDA:2028,0,0,-
BRDA:2028,0,1,-
BRDA:2029,0,0,-
BRDA:2029,0,1,-
BRDA:2031,0,0,-
BRDA:2031,0,1,-
BRDA:2057,0,0,-
BRDA:2057,0,1,-
BRDA:2057,1,2,-
BRDA:2057,1,3,-
BRDA:2057,2,4,-
BRDA:2057,2,5,-
BRDA:2057,3,6,-
BRDA:2057,3,7,-
BRDA:2057,4,8,-
BRDA:2057,4,9,-
BRDA:2061,0,0,-
BRDA:2061,0,1,-
BRDA:2061,1,2,-
BRDA:2061,1,3,-
BRDA:2061,2,4,-
BRDA:2061,2,5,-
BRDA:2061,3,6,-
BRDA:2061,3,7,-
BRDA:2073,0,0,-
BRDA:2073,0,1,-
BRDA:2077,0,0,-
BRDA:2077,0,1,-
BRDA:2079,0,0,-
BRDA:2079,0,1,-
BRDA:2081,0,0,-
BRDA:2081,0,1,-
BRDA:2083,0,0,-
BRDA:2083,0,1,-
BRDA:2084,0,0,-
BRDA:2084,0,1,-
BRDA:2089,0,0,-
BRDA:2089,0,1,-
BRDA:2092,0,0,-
BRDA:2092,0,1,-
BRDA:2092,1,2,-
BRDA:2092,1,3,-
BRDA:2096,0,0,-
BRDA:2096,0,1,-
BRDA:2100,0,0,-
BRDA:2100,0,1,-
BRDA:2103,0,0,-
BRDA:2103,0,1,-
BRDA:2106,0,0,-
BRDA:2106,0,1,-
BRDA:2118,0,0,-
BRDA:2118,0,1,-
BRDA:2125,0,0,-
BRDA:2125,0,1,-
BRDA:2145,0,0,-
BRDA:2145,0,1,-
BRDA:2152,0,0,-
BRDA:2152,0,1,-
BRDA:2153,0,0,-
BRDA:2153,0,1,-
BRDA:2159,0,0,-
BRDA:2159,0,1,-
BRDA:2168,0,0,0
BRDA:2168,0,1,1
BRDA:2168,1,2,0
BRDA:2168,1,3,1
BRDA:2168,2,4,0
BRDA:2168,2,5,1
BRDA:2184,0,0,0
BRDA:2184,0,1,1
BRDA:2186,0,0,-
BRDA:2186,0,1,-
BRDA:2189,0,0,-
BRDA:2189,0,1,-
BRDA:2189,1,2,-
BRDA:2189,1,3,-
BRDA:2190,0,0,-
BRDA:2190,0,1,-
BRDA:2190,1,2,-
BRDA:2190,1,3,-
BRDA:2201,0,0,0
BRDA:2201,0,1,1
BRDA:2203,0,0,-
BRDA:2203,0,1,-
BRDA:2206,0,0,-
BRDA:2206,0,1,-
BRDA:2206,1,2,-
BRDA:2206,1,3,-
BRDA:2207,0,0,-
BRDA:2207,0,1,-
BRDA:2207,1,2,-
BRDA:2207,1,3,-
BRDA:2208,0,0,-
BRDA:2208,0,1,-
BRDA:2209,0,0,-
BRDA:2209,0,1,-
BRDA:2210,0,0,-
BRDA:2210,0,1,-
BRDA:2211,0,0,-
BRDA:2211,0,1,-
BRDA:2216,0,0,-
BRDA:2216,0,1,-
BRDA:2222,0,0,-
BRDA:2222,0,1,-
BRDA:2225,0,0,-
BRDA:2225,0,1,-
BRDA:2226,0,0,-
BRDA:2226,0,1,-
BRDA:2227,0,0,-
BRDA:2227,0,1,-
BRDA:2228,0,0,-
BRDA:2228,0,1,-
BRDA:2229,0,0,-
BRDA:2229,0,1,-
BRDA:2231,0,0,-
BRDA:2231,0,1,-
BRDA:2231,1,2,-
BRDA:2231,1,3,-
BRDA:2233,0,0,-
BRDA:2233,0,1,-
BRDA:2233,1,2,-
BRDA:2233,1,3,-
BRDA:2245,0,0,-
BRDA:2245,0,1,-
BRDA:2254,0,0,-
BRDA:2254,0,1,-
BRDA:2257,0,0,-
BRDA:2257,0,1,-
BRDA:2262,0,0,-
BRDA:2262,0,1,-
BRF:876
BRH:144
LF:1952
LH:476
end_of_record
SF:/Users/runner/work/Draxul/Draxul/libs/draxul-megacity/src/megacity_material_assets.cpp
FN:52,_ZN6draxul27resolve_megacity_asset_pathERKNSt3__14__fs10filesystem4pathE
FN:68,_ZN6draxul33load_asphalt_road_material_imagesEv
FN:79,_ZN6draxul36load_paving_sidewalk_material_imagesEv
FN:90,_ZN6draxul34load_wood_building_material_imagesEv
FN:102,_ZN6draxul30load_bark_tree_material_imagesEv
FN:113,_ZN6draxul31load_leaf_atlas_material_imagesEv
FN:17,megacity_material_assets.cpp:_ZN6draxul12_GLOBAL__N_116load_rgba8_imageERKNSt3__14__fs10filesystem4pathE
FN:41,megacity_material_assets.cpp:_ZN6draxul12_GLOBAL__N_116make_solid_rgba8Ehhhh
FNDA:0,_ZN6draxul27resolve_megacity_asset_pathERKNSt3__14__fs10filesystem4pathE
FNDA:0,_ZN6draxul33load_asphalt_road_material_imagesEv
FNDA:0,_ZN6draxul36load_paving_sidewalk_material_imagesEv
FNDA:0,_ZN6draxul34load_wood_building_material_imagesEv
FNDA:0,_ZN6draxul30load_bark_tree_material_imagesEv
FNDA:0,_ZN6draxul31load_leaf_atlas_material_imagesEv
FNDA:0,megacity_material_assets.cpp:_ZN6draxul12_GLOBAL__N_116load_rgba8_imageERKNSt3__14__fs10filesystem4pathE
FNDA:0,megacity_material_assets.cpp:_ZN6draxul12_GLOBAL__N_116make_solid_rgba8Ehhhh
FNF:8
FNH:0
DA:17,0
DA:18,0
DA:19,0
DA:20,0
DA:21,0
DA:22,0
DA:23,0
DA:24,0
DA:25,0
DA:26,0
DA:27,0
DA:28,0
DA:29,0
DA:30,0
DA:31,0
DA:33,0
DA:34,0
DA:35,0
DA:36,0
DA:37,0
DA:38,0
DA:41,0
DA:42,0
DA:43,0
DA:44,0
DA:45,0
DA:46,0
DA:47,0
DA:52,0
DA:53,0
DA:54,0
DA:55,0
DA:56,0
DA:58,0
DA:59,0
DA:60,0
DA:61,0
DA:62,0
DA:64,0
DA:65,0
DA:68,0
DA:69,0
DA:70,0
DA:71,0
DA:72,0
DA:73,0
DA:74,0
DA:75,0
DA:76,0
DA:79,0
DA:80,0
DA:81,0
DA:82,0
DA:83,0
DA:84,0
DA:85,0
DA:86,0
DA:87,0
DA:90,0
DA:91,0
DA:92,0
DA:93,0
DA:94,0
DA:95,0
DA:96,0
DA:97,0
DA:98,0
DA:99,0
DA:102,0
DA:103,0
DA:104,0
DA:105,0
DA:106,0
DA:107,0
DA:108,0
DA:109,0
DA:110,0
DA:113,0
DA:114,0
DA:115,0
DA:116,0
DA:117,0
DA:118,0
DA:119,0
DA:120,0
DA:121,0
DA:122,0
BRDA:24,0,0,-
BRDA:24,0,1,-
BRDA:26,0,0,-
BRDA:26,0,1,-
BRDA:55,0,0,-
BRDA:55,0,1,-
BRDA:60,0,0,-
BRDA:60,0,1,-
BRF:8
BRH:0
LF:87
LH:0
end_of_record
SF:/Users/runner/work/Draxul/Draxul/libs/draxul-megacity/src/megacity_material_assets.h
FN:17,_ZNK6draxul18LoadedTextureImage5validEv
FN:31,_ZNK6draxul22TexturedMaterialImages5validEv
FN:49,_ZNK6draxul27VertexTintPbrMaterialImages5validEv
FN:66,_ZNK6draxul23LeafAtlasMaterialImages5validEv
FNDA:0,_ZNK6draxul18LoadedTextureImage5validEv
FNDA:0,_ZNK6draxul22TexturedMaterialImages5validEv
FNDA:0,_ZNK6draxul27VertexTintPbrMaterialImages5validEv
FNDA:0,_ZNK6draxul23LeafAtlasMaterialImages5validEv
FNF:4
FNH:0
DA:17,0
DA:18,0
DA:19,0
DA:20,0
DA:31,0
DA:32,0
DA:33,0
DA:49,0
DA:50,0
DA:51,0
DA:52,0
DA:66,0
DA:67,0
DA:68,0
DA:69,0
BRDA:18,0,0,-
BRDA:18,0,1,-
BRDA:18,1,2,-
BRDA:18,1,3,-
BRDA:19,0,0,-
BRDA:19,0,1,-
BRDA:32,0,0,-
BRDA:32,0,1,-
BRDA:32,1,2,-
BRDA:32,1,3,-
BRDA:32,2,4,-
BRDA:32,2,5,-
BRDA:32,3,6,-
BRDA:32,3,7,-
BRDA:50,0,0,-
BRDA:50,0,1,-
BRDA:50,1,2,-
BRDA:50,1,3,-
BRDA:50,2,4,-
BRDA:50,2,5,-
BRDA:51,0,0,-
BRDA:51,0,1,-
BRDA:51,1,2,-
BRDA:51,1,3,-
BRDA:67,0,0,-
BRDA:67,0,1,-
BRDA:67,1,2,-
BRDA:67,1,3,-
BRDA:67,2,4,-
BRDA:67,2,5,-
BRDA:68,0,0,-
BRDA:68,0,1,-
BRDA:68,1,2,-
BRDA:68,1,3,-
BRF:34
BRH:0
LF:15
LH:0
end_of_record
SF:/Users/runner/work/Draxul/Draxul/libs/draxul-megacity/src/megacity_render.mm
FN:1301,_ZN6draxul18IsometricScenePassC2Eiif
FN:1309,_ZN6draxul18IsometricScenePassD2Ev
FN:1312,_ZN6draxul18IsometricScenePass14record_prepassERNS_14IRenderContextE
FN:1978,_ZN6draxul18IsometricScenePass6recordERNS_14IRenderContextE
FN:2089,_ZN6draxul18IsometricScenePass23render_gbuffer_debug_uiEv
FN:406,_ZN6draxul18IsometricScenePass5State4initEPU19objcproto9MTLDevice11objc_objectiif
FN:201,megacity_render.mm:_ZN6draxul12_GLOBAL__N_111upload_meshEPU19objcproto9MTLDevice11objc_objectRKNS_12GeometryMeshERNS0_11MeshBuffersE
FN:960,_ZN6draxul18IsometricScenePass5State12init_gbufferEPU19objcproto9MTLDevice11objc_object
FN:668,_ZN6draxul18IsometricScenePass5State22ensure_frame_resourcesEPU19objcproto9MTLDevice11objc_objectj
FN:234,megacity_render.mm:_ZN6draxul12_GLOBAL__N_122ensure_buffer_capacityEPU19objcproto9MTLDevice11objc_objectmR7ObjCRefIU8__strongPU19objcproto9MTLBuffer11objc_objectE
FN:227,megacity_render.mm:_ZN6draxul12_GLOBAL__N_113grow_capacityEmm
FN:1155,_ZN6draxul18IsometricScenePass5State22ensure_gbuffer_targetsEPU19objcproto9MTLDevice11objc_objectjii
FN:1281,_ZZN6draxul18IsometricScenePass5State22ensure_gbuffer_targetsEPU19objcproto9MTLDevice11objc_objectjiiENKUlRK7ObjCRefIU8__strongPU21objcproto10MTLTexture11objc_objectEE_clESA_
FN:1284,_ZZN6draxul18IsometricScenePass5State22ensure_gbuffer_targetsEPU19objcproto9MTLDevice11objc_objectjiiENKUlRK7ObjCRefIU8__strongPU21objcproto10MTLTexture11objc_objectEE0_clESA_
FN:874,_ZN6draxul18IsometricScenePass5State21ensure_road_materialsEPU27objcproto16MTLCommandBuffer11objc_object
FN:877,_ZZN6draxul18IsometricScenePass5State21ensure_road_materialsEPU27objcproto16MTLCommandBuffer11objc_objectENKUlRK7ObjCRefIU8__strongPU21objcproto10MTLTexture11objc_objectEE_clESA_
FN:864,_ZN6draxul18IsometricScenePass5State18make_solid_textureEPU27objcproto16MTLCommandBuffer11objc_object14MTLPixelFormatNSt3__15arrayIhLm4EEE
FN:827,_ZN6draxul18IsometricScenePass5State12make_textureEPU27objcproto16MTLCommandBuffer11objc_object14MTLPixelFormatRKNS_18LoadedTextureImageE
FN:193,megacity_render.mm:_ZN6draxul12_GLOBAL__N_124mip_level_count_for_sizeEii
FN:944,_ZZN6draxul18IsometricScenePass5State21ensure_road_materialsEPU27objcproto16MTLCommandBuffer11objc_objectENKUlRK7ObjCRefIU8__strongPU21objcproto10MTLTexture11objc_objectEE0_clESA_
FN:779,_ZN6draxul18IsometricScenePass5State18ensure_label_atlasEPU19objcproto9MTLDevice11objc_objectRKNSt3__110shared_ptrIKNS_14LabelAtlasDataEEE
FN:759,_ZN6draxul18IsometricScenePass5State17ensure_floor_gridEPU19objcproto9MTLDevice11objc_objectRKNS_13FloorGridSpecE
FN:125,megacity_render.mm:_ZN6draxul12_GLOBAL__N_114same_grid_specERKNS_13FloorGridSpecES3_
FN:110,megacity_render.mm:_ZN6draxul12_GLOBAL__N_122TransientGeometryArena5resetEv
FN:99,megacity_render.mm:_ZN6draxul12_GLOBAL__N_120TransientBufferArena5resetEv
FN:702,_ZN6draxul18IsometricScenePass5State16ensure_tree_meshEPU19objcproto9MTLDevice11objc_objectRKNSt3__110shared_ptrIKNS_12GeometryMeshEEESA_
FN:734,_ZN6draxul18IsometricScenePass5State20ensure_custom_meshesEPU19objcproto9MTLDevice11objc_objectRKNSt3__16vectorINS4_10shared_ptrIKNS_12GeometryMeshEEENS4_9allocatorIS9_EEEE
FN:295,megacity_render.mm:_ZN6draxul12_GLOBAL__N_121stream_transient_meshEPU19objcproto9MTLDevice11objc_objectRKNS_12GeometryMeshERNS0_22TransientGeometryArenaERNS0_9MeshSliceE
FN:273,megacity_render.mm:_ZN6draxul12_GLOBAL__N_124reserve_transient_bufferEPU19objcproto9MTLDevice11objc_objectRNS0_20TransientBufferArenaEmmmRNS0_11BufferSliceE
FN:219,megacity_render.mm:_ZN6draxul12_GLOBAL__N_18align_upEmm
FN:142,megacity_render.mm:_ZN6draxul12_GLOBAL__N_114to_simd_matrixERKN3glm3matILi4ELi4EfLNS1_9qualifierE0EEE
FN:184,megacity_render.mm:_ZN6draxul12_GLOBAL__N_124compute_ao_radius_pixelsERKN3glm3matILi4ELi4EfLNS1_9qualifierE0EEEfi
FN:1450,megacity_render.mm:_ZZN6draxul18IsometricScenePass14record_prepassERNS_14IRenderContextEENK3$_0clERKNS_11SceneObjectE
FN:157,megacity_render.mm:_ZN6draxul12_GLOBAL__N_123build_material_uniformsERKNS_13SceneSnapshotE
FN:254,megacity_render.mm:_ZN6draxul12_GLOBAL__N_130upload_performance_heat_valuesEPU19objcproto9MTLDevice11objc_objectRKNSt3__16vectorIfNS3_9allocatorIfEEEER7ObjCRefIU8__strongPU19objcproto9MTLBuffer11objc_objectE
FN:1862,megacity_render.mm:_ZZN6draxul18IsometricScenePass14record_prepassERNS_14IRenderContextEENK3$_1clERKNS_11SceneObjectE
FNDA:8,_ZN6draxul18IsometricScenePassC2Eiif
FNDA:8,_ZN6draxul18IsometricScenePassD2Ev
FNDA:0,_ZN6draxul18IsometricScenePass14record_prepassERNS_14IRenderContextE
FNDA:0,_ZN6draxul18IsometricScenePass6recordERNS_14IRenderContextE
FNDA:0,_ZN6draxul18IsometricScenePass23render_gbuffer_debug_uiEv
FNDA:0,_ZN6draxul18IsometricScenePass5State4initEPU19objcproto9MTLDevice11objc_objectiif
FNDA:0,megacity_render.mm:_ZN6draxul12_GLOBAL__N_111upload_meshEPU19objcproto9MTLDevice11objc_objectRKNS_12GeometryMeshERNS0_11MeshBuffersE
FNDA:0,_ZN6draxul18IsometricScenePass5State12init_gbufferEPU19objcproto9MTLDevice11objc_object
FNDA:0,_ZN6draxul18IsometricScenePass5State22ensure_frame_resourcesEPU19objcproto9MTLDevice11objc_objectj
FNDA:0,megacity_render.mm:_ZN6draxul12_GLOBAL__N_122ensure_buffer_capacityEPU19objcproto9MTLDevice11objc_objectmR7ObjCRefIU8__strongPU19objcproto9MTLBuffer11objc_objectE
FNDA:0,megacity_render.mm:_ZN6draxul12_GLOBAL__N_113grow_capacityEmm
FNDA:0,_ZN6draxul18IsometricScenePass5State22ensure_gbuffer_targetsEPU19objcproto9MTLDevice11objc_objectjii
FNDA:0,_ZZN6draxul18IsometricScenePass5State22ensure_gbuffer_targetsEPU19objcproto9MTLDevice11objc_objectjiiENKUlRK7ObjCRefIU8__strongPU21objcproto10MTLTexture11objc_objectEE_clESA_
FNDA:0,_ZZN6draxul18IsometricScenePass5State22ensure_gbuffer_targetsEPU19objcproto9MTLDevice11objc_objectjiiENKUlRK7ObjCRefIU8__strongPU21objcproto10MTLTexture11objc_objectEE0_clESA_
FNDA:0,_ZN6draxul18IsometricScenePass5State21ensure_road_materialsEPU27objcproto16MTLCommandBuffer11objc_object
FNDA:0,_ZZN6draxul18IsometricScenePass5State21ensure_road_materialsEPU27objcproto16MTLCommandBuffer11objc_objectENKUlRK7ObjCRefIU8__strongPU21objcproto10MTLTexture11objc_objectEE_clESA_
FNDA:0,_ZN6draxul18IsometricScenePass5State18make_solid_textureEPU27objcproto16MTLCommandBuffer11objc_object14MTLPixelFormatNSt3__15arrayIhLm4EEE
FNDA:0,_ZN6draxul18IsometricScenePass5State12make_textureEPU27objcproto16MTLCommandBuffer11objc_object14MTLPixelFormatRKNS_18LoadedTextureImageE
FNDA:0,megacity_render.mm:_ZN6draxul12_GLOBAL__N_124mip_level_count_for_sizeEii
FNDA:0,_ZZN6draxul18IsometricScenePass5State21ensure_road_materialsEPU27objcproto16MTLCommandBuffer11objc_objectENKUlRK7ObjCRefIU8__strongPU21objcproto10MTLTexture11objc_objectEE0_clESA_
FNDA:0,_ZN6draxul18IsometricScenePass5State18ensure_label_atlasEPU19objcproto9MTLDevice11objc_objectRKNSt3__110shared_ptrIKNS_14LabelAtlasDataEEE
FNDA:0,_ZN6draxul18IsometricScenePass5State17ensure_floor_gridEPU19objcproto9MTLDevice11objc_objectRKNS_13FloorGridSpecE
FNDA:0,megacity_render.mm:_ZN6draxul12_GLOBAL__N_114same_grid_specERKNS_13FloorGridSpecES3_
FNDA:0,megacity_render.mm:_ZN6draxul12_GLOBAL__N_122TransientGeometryArena5resetEv
FNDA:0,megacity_render.mm:_ZN6draxul12_GLOBAL__N_120TransientBufferArena5resetEv
FNDA:0,_ZN6draxul18IsometricScenePass5State16ensure_tree_meshEPU19objcproto9MTLDevice11objc_objectRKNSt3__110shared_ptrIKNS_12GeometryMeshEEESA_
FNDA:0,_ZN6draxul18IsometricScenePass5State20ensure_custom_meshesEPU19objcproto9MTLDevice11objc_objectRKNSt3__16vectorINS4_10shared_ptrIKNS_12GeometryMeshEEENS4_9allocatorIS9_EEEE
FNDA:0,megacity_render.mm:_ZN6draxul12_GLOBAL__N_121stream_transient_meshEPU19objcproto9MTLDevice11objc_objectRKNS_12GeometryMeshERNS0_22TransientGeometryArenaERNS0_9MeshSliceE
FNDA:0,megacity_render.mm:_ZN6draxul12_GLOBAL__N_124reserve_transient_bufferEPU19objcproto9MTLDevice11objc_objectRNS0_20TransientBufferArenaEmmmRNS0_11BufferSliceE
FNDA:0,megacity_render.mm:_ZN6draxul12_GLOBAL__N_18align_upEmm
FNDA:0,megacity_render.mm:_ZN6draxul12_GLOBAL__N_114to_simd_matrixERKN3glm3matILi4ELi4EfLNS1_9qualifierE0EEE
FNDA:0,megacity_render.mm:_ZN6draxul12_GLOBAL__N_124compute_ao_radius_pixelsERKN3glm3matILi4ELi4EfLNS1_9qualifierE0EEEfi
FNDA:0,megacity_render.mm:_ZZN6draxul18IsometricScenePass14record_prepassERNS_14IRenderContextEENK3$_0clERKNS_11SceneObjectE
FNDA:0,megacity_render.mm:_ZN6draxul12_GLOBAL__N_123build_material_uniformsERKNS_13SceneSnapshotE
FNDA:0,megacity_render.mm:_ZN6draxul12_GLOBAL__N_130upload_performance_heat_valuesEPU19objcproto9MTLDevice11objc_objectRKNSt3__16vectorIfNS3_9allocatorIfEEEER7ObjCRefIU8__strongPU19objcproto9MTLBuffer11objc_objectE
FNDA:0,megacity_render.mm:_ZZN6draxul18IsometricScenePass14record_prepassERNS_14IRenderContextEENK3$_1clERKNS_11SceneObjectE
FNF:36
FNH:2
DA:99,0
DA:100,0
DA:101,0
DA:110,0
DA:111,0
DA:112,0
DA:113,0
DA:125,0
DA:126,0
DA:127,0
DA:128,0
DA:129,0
DA:130,0
DA:131,0
DA:132,0
DA:133,0
DA:134,0
DA:135,0
DA:136,0
DA:137,0
DA:138,0
DA:139,0
DA:142,0
DA:143,0
DA:144,0
DA:145,0
DA:146,0
DA:147,0
DA:148,0
DA:149,0
DA:150,0
DA:151,0
DA:152,0
DA:153,0
DA:154,0
DA:157,0
DA:158,0
DA:159,0
DA:160,0
DA:161,0
DA:162,0
DA:163,0
DA:164,0
DA:165,0
DA:166,0
DA:167,0
DA:168,0
DA:169,0
DA:170,0
DA:171,0
DA:172,0
DA:173,0
DA:174,0
DA:175,0
DA:176,0
DA:177,0
DA:178,0
DA:179,0
DA:180,0
DA:181,0
DA:184,0
DA:185,0
DA:186,0
DA:187,0
DA:188,0
DA:189,0
DA:190,0
DA:193,0
DA:194,0
DA:195,0
DA:196,0
DA:197,0
DA:198,0
DA:201,0
DA:202,0
DA:203,0
DA:204,0
DA:205,0
DA:206,0
DA:207,0
DA:208,0
DA:209,0
DA:210,0
DA:212,0
DA:213,0
DA:214,0
DA:215,0
DA:216,0
DA:219,0
DA:220,0
DA:221,0
DA:222,0
DA:223,0
DA:224,0
DA:227,0
DA:228,0
DA:229,0
DA:230,0
DA:231,0
DA:234,0
DA:235,0
DA:236,0
DA:237,0
DA:238,0
DA:239,0
DA:241,0
DA:242,0
DA:243,0
DA:244,0
DA:246,0
DA:247,0
DA:248,0
DA:254,0
DA:255,0
DA:256,0
DA:257,0
DA:258,0
DA:260,0
DA:261,0
DA:262,0
DA:263,0
DA:264,0
DA:265,0
DA:267,0
DA:268,0
DA:269,0
DA:273,0
DA:274,0
DA:275,0
DA:276,0
DA:277,0
DA:278,0
DA:279,0
DA:281,0
DA:282,0
DA:283,0
DA:284,0
DA:286,0
DA:287,0
DA:288,0
DA:289,0
DA:290,0
DA:291,0
DA:295,0
DA:296,0
DA:297,0
DA:298,0
DA:300,0
DA:301,0
DA:302,0
DA:303,0
DA:304,0
DA:305,0
DA:306,0
DA:308,0
DA:309,0
DA:310,0
DA:311,0
DA:312,0
DA:313,0
DA:315,0
DA:316,0
DA:317,0
DA:318,0
DA:319,0
DA:320,0
DA:322,0
DA:323,0
DA:324,0
DA:325,0
DA:326,0
DA:327,0
DA:328,0
DA:329,0
DA:330,0
DA:406,0
DA:407,0
DA:408,0
DA:409,0
DA:410,0
DA:411,0
DA:413,0
DA:414,0
DA:415,0
DA:416,0
DA:417,0
DA:418,0
DA:420,0
DA:421,0
DA:422,0
DA:423,0
DA:424,0
DA:425,0
DA:426,0
DA:427,0
DA:428,0
DA:430,0
DA:431,0
DA:432,0
DA:433,0
DA:434,0
DA:435,0
DA:436,0
DA:437,0
DA:438,0
DA:439,0
DA:440,0
DA:442,0
DA:443,0
DA:444,0
DA:445,0
DA:446,0
DA:447,0
DA:448,0
DA:449,0
DA:451,0
DA:452,0
DA:453,0
DA:454,0
DA:455,0
DA:456,0
DA:457,0
DA:458,0
DA:459,0
DA:460,0
DA:461,0
DA:462,0
DA:463,0
DA:464,0
DA:465,0
DA:466,0
DA:467,0
DA:468,0
DA:469,0
DA:470,0
DA:471,0
DA:472,0
DA:473,0
DA:474,0
DA:476,0
DA:477,0
DA:478,0
DA:479,0
DA:480,0
DA:481,0
DA:482,0
DA:483,0
DA:484,0
DA:485,0
DA:486,0
DA:487,0
DA:488,0
DA:489,0
DA:491,0
DA:492,0
DA:493,0
DA:494,0
DA:495,0
DA:496,0
DA:497,0
DA:498,0
DA:499,0
DA:501,0
DA:502,0
DA:503,0
DA:504,0
DA:505,0
DA:506,0
DA:507,0
DA:508,0
DA:509,0
DA:510,0
DA:511,0
DA:512,0
DA:513,0
DA:514,0
DA:515,0
DA:516,0
DA:517,0
DA:519,0
DA:520,0
DA:521,0
DA:522,0
DA:523,0
DA:524,0
DA:525,0
DA:526,0
DA:527,0
DA:529,0
DA:530,0
DA:531,0
DA:532,0
DA:534,0
DA:535,0
DA:536,0
DA:537,0
DA:538,0
DA:539,0
DA:540,0
DA:541,0
DA:542,0
DA:543,0
DA:545,0
DA:546,0
DA:547,0
DA:548,0
DA:550,0
DA:551,0
DA:552,0
DA:553,0
DA:554,0
DA:555,0
DA:556,0
DA:557,0
DA:558,0
DA:559,0
DA:561,0
DA:562,0
DA:563,0
DA:564,0
DA:565,0
DA:566,0
DA:567,0
DA:568,0
DA:569,0
DA:571,0
DA:572,0
DA:574,0
DA:575,0
DA:576,0
DA:577,0
DA:578,0
DA:579,0
DA:580,0
DA:581,0
DA:582,0
DA:583,0
DA:584,0
DA:585,0
DA:586,0
DA:587,0
DA:588,0
DA:589,0
DA:590,0
DA:591,0
DA:592,0
DA:593,0
DA:594,0
DA:595,0
DA:596,0
DA:597,0
DA:598,0
DA:599,0
DA:600,0
DA:601,0
DA:602,0
DA:603,0
DA:604,0
DA:605,0
DA:606,0
DA:607,0
DA:608,0
DA:610,0
DA:611,0
DA:612,0
DA:613,0
DA:614,0
DA:615,0
DA:616,0
DA:617,0
DA:618,0
DA:619,0
DA:620,0
DA:621,0
DA:622,0
DA:625,0
DA:626,0
DA:627,0
DA:628,0
DA:629,0
DA:630,0
DA:631,0
DA:632,0
DA:633,0
DA:634,0
DA:635,0
DA:636,0
DA:637,0
DA:638,0
DA:639,0
DA:641,0
DA:642,0
DA:643,0
DA:644,0
DA:645,0
DA:646,0
DA:647,0
DA:650,0
DA:651,0
DA:652,0
DA:653,0
DA:654,0
DA:655,0
DA:656,0
DA:657,0
DA:658,0
DA:659,0
DA:660,0
DA:661,0
DA:663,0
DA:664,0
DA:665,0
DA:668,0
DA:669,0
DA:670,0
DA:671,0
DA:672,0
DA:674,0
DA:675,0
DA:676,0
DA:678,0
DA:679,0
DA:680,0
DA:681,0
DA:682,0
DA:683,0
DA:684,0
DA:685,0
DA:686,0
DA:687,0
DA:688,0
DA:689,0
DA:690,0
DA:691,0
DA:692,0
DA:693,0
DA:694,0
DA:695,0
DA:696,0
DA:702,0
DA:703,0
DA:704,0
DA:705,0
DA:706,0
DA:707,0
DA:708,0
DA:709,0
DA:710,0
DA:711,0
DA:712,0
DA:713,0
DA:714,0
DA:715,0
DA:716,0
DA:717,0
DA:718,0
DA:719,0
DA:720,0
DA:721,0
DA:722,0
DA:723,0
DA:724,0
DA:725,0
DA:726,0
DA:727,0
DA:728,0
DA:729,0
DA:734,0
DA:735,0
DA:736,0
DA:737,0
DA:738,0
DA:739,0
DA:740,0
DA:741,0
DA:742,0
DA:743,0
DA:744,0
DA:746,0
DA:747,0
DA:748,0
DA:749,0
DA:750,0
DA:751,0
DA:752,0
DA:753,0
DA:754,0
DA:755,0
DA:756,0
DA:759,0
DA:760,0
DA:761,0
DA:762,0
DA:763,0
DA:764,0
DA:765,0
DA:766,0
DA:767,0
DA:768,0
DA:769,0
DA:770,0
DA:772,0
DA:773,0
DA:774,0
DA:775,0
DA:776,0
DA:779,0
DA:780,0
DA:781,0
DA:782,0
DA:783,0
DA:784,0
DA:786,0
DA:787,0
DA:788,0
DA:789,0
DA:790,0
DA:791,0
DA:792,0
DA:793,0
DA:794,0
DA:795,0
DA:796,0
DA:797,0
DA:798,0
DA:799,0
DA:800,0
DA:801,0
DA:802,0
DA:804,0
DA:805,0
DA:807,0
DA:808,0
DA:809,0
DA:810,0
DA:811,0
DA:812,0
DA:813,0
DA:814,0
DA:816,0
DA:817,0
DA:818,0
DA:819,0
DA:820,0
DA:821,0
DA:822,0
DA:823,0
DA:824,0
DA:827,0
DA:828,0
DA:829,0
DA:830,0
DA:831,0
DA:832,0
DA:833,0
DA:834,0
DA:835,0
DA:836,0
DA:837,0
DA:838,0
DA:840,0
DA:841,0
DA:842,0
DA:843,0
DA:844,0
DA:845,0
DA:846,0
DA:847,0
DA:848,0
DA:849,0
DA:850,0
DA:851,0
DA:852,0
DA:853,0
DA:854,0
DA:855,0
DA:856,0
DA:857,0
DA:858,0
DA:859,0
DA:860,0
DA:861,0
DA:864,0
DA:865,0
DA:866,0
DA:867,0
DA:868,0
DA:869,0
DA:870,0
DA:871,0
DA:874,0
DA:875,0
DA:876,0
DA:877,0
DA:878,0
DA:879,0
DA:881,0
DA:882,0
DA:883,0
DA:884,0
DA:885,0
DA:886,0
DA:887,0
DA:888,0
DA:889,0
DA:890,0
DA:891,0
DA:893,0
DA:894,0
DA:895,0
DA:896,0
DA:897,0
DA:898,0
DA:899,0
DA:900,0
DA:901,0
DA:902,0
DA:903,0
DA:904,0
DA:905,0
DA:906,0
DA:907,0
DA:908,0
DA:909,0
DA:910,0
DA:911,0
DA:912,0
DA:913,0
DA:914,0
DA:915,0
DA:916,0
DA:917,0
DA:918,0
DA:919,0
DA:920,0
DA:921,0
DA:922,0
DA:923,0
DA:924,0
DA:925,0
DA:926,0
DA:927,0
DA:928,0
DA:929,0
DA:930,0
DA:931,0
DA:932,0
DA:933,0
DA:934,0
DA:935,0
DA:936,0
DA:937,0
DA:938,0
DA:939,0
DA:940,0
DA:941,0
DA:942,0
DA:943,0
DA:944,0
DA:945,0
DA:947,0
DA:948,0
DA:949,0
DA:950,0
DA:951,0
DA:952,0
DA:953,0
DA:954,0
DA:955,0
DA:956,0
DA:957,0
DA:960,0
DA:961,0
DA:962,0
DA:963,0
DA:964,0
DA:965,0
DA:966,0
DA:968,0
DA:970,0
DA:971,0
DA:972,0
DA:973,0
DA:974,0
DA:976,0
DA:977,0
DA:978,0
DA:979,0
DA:980,0
DA:981,0
DA:982,0
DA:983,0
DA:985,0
DA:986,0
DA:987,0
DA:988,0
DA:989,0
DA:990,0
DA:991,0
DA:992,0
DA:993,0
DA:994,0
DA:996,0
DA:997,0
DA:998,0
DA:999,0
DA:1000,0
DA:1001,0
DA:1002,0
DA:1003,0
DA:1004,0
DA:1005,0
DA:1006,0
DA:1007,0
DA:1008,0
DA:1009,0
DA:1010,0
DA:1011,0
DA:1012,0
DA:1013,0
DA:1014,0
DA:1015,0
DA:1016,0
DA:1017,0
DA:1018,0
DA:1019,0
DA:1021,0
DA:1022,0
DA:1023,0
DA:1024,0
DA:1025,0
DA:1026,0
DA:1028,0
DA:1029,0
DA:1030,0
DA:1031,0
DA:1032,0
DA:1033,0
DA:1034,0
DA:1035,0
DA:1036,0
DA:1038,0
DA:1039,0
DA:1040,0
DA:1041,0
DA:1042,0
DA:1044,0
DA:1045,0
DA:1046,0
DA:1047,0
DA:1048,0
DA:1049,0
DA:1050,0
DA:1051,0
DA:1052,0
DA:1054,0
DA:1055,0
DA:1056,0
DA:1057,0
DA:1058,0
DA:1059,0
DA:1061,0
DA:1062,0
DA:1063,0
DA:1064,0
DA:1065,0
DA:1066,0
DA:1067,0
DA:1068,0
DA:1069,0
DA:1070,0
DA:1071,0
DA:1073,0
DA:1074,0
DA:1075,0
DA:1076,0
DA:1077,0
DA:1078,0
DA:1079,0
DA:1080,0
DA:1081,0
DA:1082,0
DA:1084,0
DA:1085,0
DA:1086,0
DA:1087,0
DA:1088,0
DA:1089,0
DA:1090,0
DA:1091,0
DA:1093,0
DA:1094,0
DA:1095,0
DA:1096,0
DA:1098,0
DA:1099,0
DA:1100,0
DA:1101,0
DA:1102,0
DA:1103,0
DA:1104,0
DA:1105,0
DA:1106,0
DA:1108,0
DA:1109,0
DA:1110,0
DA:1111,0
DA:1113,0
DA:1114,0
DA:1115,0
DA:1116,0
DA:1117,0
DA:1118,0
DA:1119,0
DA:1120,0
DA:1121,0
DA:1123,0
DA:1124,0
DA:1125,0
DA:1126,0
DA:1127,0
DA:1128,0
DA:1129,0
DA:1130,0
DA:1131,0
DA:1132,0
DA:1133,0
DA:1134,0
DA:1135,0
DA:1137,0
DA:1138,0
DA:1139,0
DA:1140,0
DA:1141,0
DA:1142,0
DA:1143,0
DA:1144,0
DA:1145,0
DA:1146,0
DA:1147,0
DA:1148,0
DA:1149,0
DA:1150,0
DA:1151,0
DA:1152,0
DA:1155,0
DA:1156,0
DA:1157,0
DA:1158,0
DA:1160,0
DA:1161,0
DA:1162,0
DA:1163,0
DA:1164,0
DA:1165,0
DA:1167,0
DA:1168,0
DA:1170,0
DA:1171,0
DA:1172,0
DA:1173,0
DA:1174,0
DA:1175,0
DA:1176,0
DA:1177,0
DA:1178,0
DA:1180,0
DA:1181,0
DA:1182,0
DA:1183,0
DA:1184,0
DA:1185,0
DA:1187,0
DA:1188,0
DA:1189,0
DA:1190,0
DA:1191,0
DA:1192,0
DA:1193,0
DA:1195,0
DA:1196,0
DA:1197,0
DA:1198,0
DA:1199,0
DA:1200,0
DA:1201,0
DA:1203,0
DA:1204,0
DA:1205,0
DA:1206,0
DA:1207,0
DA:1208,0
DA:1209,0
DA:1211,0
DA:1212,0
DA:1213,0
DA:1214,0
DA:1215,0
DA:1216,0
DA:1217,0
DA:1218,0
DA:1219,0
DA:1221,0
DA:1222,0
DA:1223,0
DA:1224,0
DA:1225,0
DA:1226,0
DA:1227,0
DA:1228,0
DA:1229,0
DA:1231,0
DA:1232,0
DA:1233,0
DA:1234,0
DA:1235,0
DA:1236,0
DA:1237,0
DA:1239,0
DA:1240,0
DA:1241,0
DA:1242,0
DA:1243,0
DA:1244,0
DA:1245,0
DA:1247,0
DA:1248,0
DA:1249,0
DA:1250,0
DA:1251,0
DA:1252,0
DA:1253,0
DA:1254,0
DA:1255,0
DA:1256,0
DA:1257,0
DA:1258,0
DA:1259,0
DA:1260,0
DA:1261,0
DA:1262,0
DA:1263,0
DA:1264,0
DA:1265,0
DA:1266,0
DA:1267,0
DA:1268,0
DA:1269,0
DA:1270,0
DA:1271,0
DA:1272,0
DA:1273,0
DA:1274,0
DA:1275,0
DA:1276,0
DA:1277,0
DA:1279,0
DA:1280,0
DA:1281,0
DA:1282,0
DA:1283,0
DA:1284,0
DA:1286,0
DA:1287,0
DA:1288,0
DA:1289,0
DA:1290,0
DA:1291,0
DA:1292,0
DA:1293,0
DA:1294,0
DA:1295,0
DA:1296,0
DA:1297,0
DA:1301,8
DA:1302,8
DA:1303,8
DA:1304,8
DA:1305,8
DA:1306,8
DA:1307,8
DA:1309,8
DA:1312,0
DA:1313,0
DA:1314,0
DA:1315,0
DA:1316,0
DA:1317,0
DA:1319,0
DA:1320,0
DA:1321,0
DA:1322,0
DA:1324,0
DA:1325,0
DA:1326,0
DA:1327,0
DA:1328,0
DA:1329,0
DA:1330,0
DA:1331,0
DA:1332,0
DA:1333,0
DA:1334,0
DA:1335,0
DA:1336,0
DA:1337,0
DA:1338,0
DA:1340,0
DA:1341,0
DA:1342,0
DA:1343,0
DA:1345,0
DA:1346,0
DA:1347,0
DA:1349,0
DA:1350,0
DA:1351,0
DA:1352,0
DA:1353,0
DA:1354,0
DA:1356,0
DA:1358,0
DA:1359,0
DA:1360,0
DA:1361,0
DA:1362,0
DA:1363,0
DA:1364,0
DA:1366,0
DA:1367,0
DA:1368,0
DA:1369,0
DA:1370,0
DA:1373,0
DA:1374,0
DA:1375,0
DA:1376,0
DA:1377,0
DA:1378,0
DA:1379,0
DA:1380,0
DA:1381,0
DA:1382,0
DA:1383,0
DA:1384,0
DA:1385,0
DA:1386,0
DA:1387,0
DA:1388,0
DA:1389,0
DA:1390,0
DA:1391,0
DA:1392,0
DA:1393,0
DA:1394,0
DA:1395,0
DA:1396,0
DA:1397,0
DA:1398,0
DA:1399,0
DA:1400,0
DA:1401,0
DA:1402,0
DA:1403,0
DA:1404,0
DA:1405,0
DA:1406,0
DA:1407,0
DA:1408,0
DA:1409,0
DA:1410,0
DA:1411,0
DA:1412,0
DA:1413,0
DA:1414,0
DA:1415,0
DA:1416,0
DA:1417,0
DA:1418,0
DA:1419,0
DA:1420,0
DA:1421,0
DA:1422,0
DA:1423,0
DA:1424,0
DA:1425,0
DA:1426,0
DA:1427,0
DA:1428,0
DA:1429,0
DA:1430,0
DA:1431,0
DA:1432,0
DA:1433,0
DA:1434,0
DA:1435,0
DA:1436,0
DA:1437,0
DA:1438,0
DA:1439,0
DA:1440,0
DA:1441,0
DA:1442,0
DA:1443,0
DA:1444,0
DA:1445,0
DA:1446,0
DA:1448,0
DA:1449,0
DA:1450,0
DA:1451,0
DA:1452,0
DA:1453,0
DA:1454,0
DA:1455,0
DA:1456,0
DA:1457,0
DA:1458,0
DA:1459,0
DA:1460,0
DA:1461,0
DA:1463,0
DA:1464,0
DA:1465,0
DA:1466,0
DA:1468,0
DA:1469,0
DA:1470,0
DA:1471,0
DA:1472,0
DA:1474,0
DA:1475,0
DA:1476,0
DA:1478,0
DA:1479,0
DA:1480,0
DA:1481,0
DA:1482,0
DA:1483,0
DA:1484,0
DA:1485,0
DA:1487,0
DA:1488,0
DA:1489,0
DA:1490,0
DA:1491,0
DA:1492,0
DA:1493,0
DA:1494,0
DA:1495,0
DA:1496,0
DA:1497,0
DA:1499,0
DA:1500,0
DA:1501,0
DA:1502,0
DA:1503,0
DA:1505,0
DA:1506,0
DA:1507,0
DA:1508,0
DA:1509,0
DA:1510,0
DA:1511,0
DA:1512,0
DA:1513,0
DA:1514,0
DA:1515,0
DA:1516,0
DA:1517,0
DA:1518,0
DA:1519,0
DA:1520,0
DA:1521,0
DA:1522,0
DA:1523,0
DA:1524,0
DA:1525,0
DA:1526,0
DA:1527,0
DA:1528,0
DA:1529,0
DA:1530,0
DA:1531,0
DA:1532,0
DA:1533,0
DA:1534,0
DA:1535,0
DA:1536,0
DA:1537,0
DA:1539,0
DA:1540,0
DA:1541,0
DA:1542,0
DA:1543,0
DA:1544,0
DA:1546,0
DA:1547,0
DA:1548,0
DA:1549,0
DA:1550,0
DA:1551,0
DA:1552,0
DA:1553,0
DA:1554,0
DA:1556,0
DA:1557,0
DA:1559,0
DA:1560,0
DA:1561,0
DA:1562,0
DA:1563,0
DA:1564,0
DA:1566,0
DA:1567,0
DA:1568,0
DA:1569,0
DA:1570,0
DA:1571,0
DA:1572,0
DA:1573,0
DA:1574,0
DA:1576,0
DA:1577,0
DA:1578,0
DA:1579,0
DA:1581,0
DA:1582,0
DA:1583,0
DA:1584,0
DA:1585,0
DA:1586,0
DA:1587,0
DA:1588,0
DA:1590,0
DA:1591,0
DA:1592,0
DA:1593,0
DA:1594,0
DA:1595,0
DA:1596,0
DA:1597,0
DA:1598,0
DA:1599,0
DA:1600,0
DA:1601,0
DA:1603,0
DA:1604,0
DA:1605,0
DA:1606,0
DA:1607,0
DA:1609,0
DA:1610,0
DA:1611,0
DA:1612,0
DA:1613,0
DA:1614,0
DA:1615,0
DA:1616,0
DA:1617,0
DA:1618,0
DA:1619,0
DA:1620,0
DA:1621,0
DA:1622,0
DA:1623,0
DA:1624,0
DA:1625,0
DA:1626,0
DA:1627,0
DA:1628,0
DA:1629,0
DA:1630,0
DA:1631,0
DA:1632,0
DA:1633,0
DA:1634,0
DA:1635,0
DA:1636,0
DA:1637,0
DA:1638,0
DA:1639,0
DA:1640,0
DA:1641,0
DA:1643,0
DA:1644,0
DA:1645,0
DA:1646,0
DA:1647,0
DA:1648,0
DA:1650,0
DA:1651,0
DA:1652,0
DA:1653,0
DA:1654,0
DA:1655,0
DA:1656,0
DA:1657,0
DA:1658,0
DA:1660,0
DA:1661,0
DA:1662,0
DA:1665,0
DA:1666,0
DA:1667,0
DA:1668,0
DA:1669,0
DA:1670,0
DA:1671,0
DA:1672,0
DA:1673,0
DA:1675,0
DA:1676,0
DA:1677,0
DA:1679,0
DA:1680,0
DA:1682,0
DA:1683,0
DA:1684,0
DA:1685,0
DA:1686,0
DA:1687,0
DA:1688,0
DA:1689,0
DA:1692,0
DA:1693,0
DA:1694,0
DA:1695,0
DA:1696,0
DA:1697,0
DA:1698,0
DA:1699,0
DA:1700,0
DA:1701,0
DA:1702,0
DA:1703,0
DA:1704,0
DA:1705,0
DA:1706,0
DA:1707,0
DA:1708,0
DA:1709,0
DA:1710,0
DA:1711,0
DA:1712,0
DA:1713,0
DA:1714,0
DA:1715,0
DA:1716,0
DA:1717,0
DA:1718,0
DA:1719,0
DA:1720,0
DA:1721,0
DA:1722,0
DA:1723,0
DA:1724,0
DA:1725,0
DA:1726,0
DA:1727,0
DA:1729,0
DA:1730,0
DA:1731,0
DA:1732,0
DA:1733,0
DA:1734,0
DA:1736,0
DA:1737,0
DA:1738,0
DA:1739,0
DA:1740,0
DA:1741,0
DA:1742,0
DA:1743,0
DA:1744,0
DA:1747,0
DA:1748,0
DA:1749,0
DA:1750,0
DA:1751,0
DA:1752,0
DA:1753,0
DA:1754,0
DA:1755,0
DA:1756,0
DA:1758,0
DA:1759,0
DA:1760,0
DA:1761,0
DA:1762,0
DA:1763,0
DA:1764,0
DA:1765,0
DA:1767,0
DA:1769,0
DA:1770,0
DA:1771,0
DA:1772,0
DA:1774,0
DA:1775,0
DA:1776,0
DA:1778,0
DA:1779,0
DA:1780,0
DA:1781,0
DA:1782,0
DA:1783,0
DA:1784,0
DA:1785,0
DA:1786,0
DA:1787,0
DA:1789,0
DA:1790,0
DA:1791,0
DA:1792,0
DA:1794,0
DA:1795,0
DA:1796,0
DA:1798,0
DA:1799,0
DA:1800,0
DA:1801,0
DA:1802,0
DA:1803,0
DA:1804,0
DA:1805,0
DA:1806,0
DA:1807,0
DA:1808,0
DA:1810,0
DA:1811,0
DA:1812,0
DA:1813,0
DA:1814,0
DA:1815,0
DA:1816,0
DA:1817,0
DA:1818,0
DA:1819,0
DA:1821,0
DA:1822,0
DA:1823,0
DA:1825,0
DA:1826,0
DA:1828,0
DA:1829,0
DA:1830,0
DA:1831,0
DA:1833,0
DA:1834,0
DA:1835,0
DA:1836,0
DA:1837,0
DA:1838,0
DA:1839,0
DA:1840,0
DA:1841,0
DA:1842,0
DA:1843,0
DA:1844,0
DA:1845,0
DA:1846,0
DA:1847,0
DA:1848,0
DA:1849,0
DA:1850,0
DA:1851,0
DA:1852,0
DA:1853,0
DA:1854,0
DA:1855,0
DA:1856,0
DA:1857,0
DA:1858,0
DA:1859,0
DA:1860,0
DA:1862,0
DA:1863,0
DA:1864,0
DA:1865,0
DA:1866,0
DA:1867,0
DA:1868,0
DA:1869,0
DA:1870,0
DA:1871,0
DA:1872,0
DA:1873,0
DA:1874,0
DA:1875,0
DA:1876,0
DA:1877,0
DA:1878,0
DA:1879,0
DA:1880,0
DA:1881,0
DA:1882,0
DA:1883,0
DA:1884,0
DA:1885,0
DA:1886,0
DA:1887,0
DA:1888,0
DA:1889,0
DA:1890,0
DA:1891,0
DA:1892,0
DA:1893,0
DA:1894,0
DA:1895,0
DA:1897,0
DA:1898,0
DA:1899,0
DA:1900,0
DA:1901,0
DA:1902,0
DA:1903,0
DA:1904,0
DA:1905,0
DA:1906,0
DA:1908,0
DA:1909,0
DA:1910,0
DA:1911,0
DA:1912,0
DA:1913,0
DA:1914,0
DA:1915,0
DA:1916,0
DA:1918,0
DA:1919,0
DA:1920,0
DA:1921,0
DA:1923,0
DA:1924,0
DA:1925,0
DA:1926,0
DA:1927,0
DA:1928,0
DA:1929,0
DA:1931,0
DA:1932,0
DA:1933,0
DA:1934,0
DA:1935,0
DA:1936,0
DA:1937,0
DA:1938,0
DA:1939,0
DA:1940,0
DA:1941,0
DA:1942,0
DA:1944,0
DA:1945,0
DA:1946,0
DA:1947,0
DA:1948,0
DA:1949,0
DA:1950,0
DA:1951,0
DA:1953,0
DA:1954,0
DA:1955,0
DA:1957,0
DA:1958,0
DA:1959,0
DA:1960,0
DA:1962,0
DA:1963,0
DA:1964,0
DA:1966,0
DA:1967,0
DA:1968,0
DA:1969,0
DA:1970,0
DA:1971,0
DA:1972,0
DA:1973,0
DA:1974,0
DA:1975,0
DA:1978,0
DA:1979,0
DA:1980,0
DA:1981,0
DA:1982,0
DA:1983,0
DA:1984,0
DA:1986,0
DA:1987,0
DA:1988,0
DA:1989,0
DA:1990,0
DA:1991,0
DA:1992,0
DA:1993,0
DA:1994,0
DA:1996,0
DA:1997,0
DA:1998,0
DA:1999,0
DA:2000,0
DA:2001,0
DA:2002,0
DA:2003,0
DA:2005,0
DA:2006,0
DA:2007,0
DA:2008,0
DA:2009,0
DA:2010,0
DA:2011,0
DA:2012,0
DA:2013,0
DA:2014,0
DA:2015,0
DA:2018,0
DA:2019,0
DA:2021,0
DA:2022,0
DA:2023,0
DA:2024,0
DA:2025,0
DA:2026,0
DA:2027,0
DA:2028,0
DA:2029,0
DA:2030,0
DA:2031,0
DA:2032,0
DA:2033,0
DA:2034,0
DA:2035,0
DA:2036,0
DA:2037,0
DA:2038,0
DA:2039,0
DA:2040,0
DA:2041,0
DA:2043,0
DA:2044,0
DA:2045,0
DA:2046,0
DA:2047,0
DA:2048,0
DA:2049,0
DA:2051,0
DA:2052,0
DA:2054,0
DA:2055,0
DA:2056,0
DA:2057,0
DA:2058,0
DA:2059,0
DA:2060,0
DA:2063,0
DA:2064,0
DA:2065,0
DA:2066,0
DA:2067,0
DA:2068,0
DA:2069,0
DA:2070,0
DA:2072,0
DA:2073,0
DA:2074,0
DA:2075,0
DA:2076,0
DA:2077,0
DA:2079,0
DA:2080,0
DA:2081,0
DA:2082,0
DA:2083,0
DA:2084,0
DA:2085,0
DA:2086,0
DA:2089,0
DA:2090,0
DA:2091,0
DA:2092,0
DA:2094,0
DA:2095,0
DA:2096,0
DA:2097,0
DA:2099,0
DA:2100,0
DA:2101,0
DA:2102,0
DA:2103,0
DA:2105,0
DA:2106,0
DA:2107,0
DA:2108,0
DA:2109,0
DA:2110,0
DA:2111,0
DA:2112,0
DA:2113,0
DA:2115,0
DA:2116,0
DA:2117,0
DA:2118,0
DA:2119,0
DA:2121,0
DA:2122,0
DA:2123,0
DA:2125,0
DA:2126,0
DA:2127,0
DA:2129,0
DA:2130,0
DA:2131,0
DA:2133,0
DA:2134,0
DA:2135,0
DA:2137,0
DA:2138,0
DA:2139,0
DA:2141,0
DA:2142,0
DA:2143,0
DA:2144,0
DA:2145,0
DA:2146,0
DA:2148,0
DA:2149,0
DA:2150,0
DA:2151,0
DA:2152,0
DA:2153,0
DA:2154,0
DA:2156,0
DA:2157,0
DA:2159,0
DA:2160,0
DA:2161,0
BRDA:127,0,0,-
BRDA:127,0,1,-
BRDA:128,0,0,-
BRDA:128,0,1,-
BRDA:129,0,0,-
BRDA:129,0,1,-
BRDA:130,0,0,-
BRDA:130,0,1,-
BRDA:131,0,0,-
BRDA:131,0,1,-
BRDA:132,0,0,-
BRDA:132,0,1,-
BRDA:133,0,0,-
BRDA:133,0,1,-
BRDA:134,0,0,-
BRDA:134,0,1,-
BRDA:135,0,0,-
BRDA:135,0,1,-
BRDA:136,0,0,-
BRDA:136,0,1,-
BRDA:137,0,0,-
BRDA:137,0,1,-
BRDA:138,0,0,-
BRDA:138,0,1,-
BRDA:145,0,0,-
BRDA:145,0,1,-
BRDA:161,0,0,-
BRDA:161,0,1,-
BRDA:186,0,0,-
BRDA:186,0,1,-
BRDA:195,0,0,-
BRDA:195,0,1,-
BRDA:209,0,0,-
BRDA:209,0,1,-
BRDA:209,1,2,-
BRDA:209,1,3,-
BRDA:220,0,0,-
BRDA:220,0,1,-
BRDA:223,0,0,-
BRDA:223,0,1,-
BRDA:228,0,0,-
BRDA:228,0,1,-
BRDA:236,0,0,-
BRDA:236,0,1,-
BRDA:238,0,0,-
BRDA:238,0,1,-
BRDA:238,1,2,-
BRDA:238,1,3,-
BRDA:238,2,4,-
BRDA:238,2,5,-
BRDA:241,0,0,-
BRDA:241,0,1,-
BRDA:243,0,0,-
BRDA:243,0,1,-
BRDA:257,0,0,-
BRDA:257,0,1,-
BRDA:261,0,0,-
BRDA:261,0,1,-
BRDA:275,0,0,-
BRDA:275,0,1,-
BRDA:283,0,0,-
BRDA:283,0,1,-
BRDA:302,0,0,-
BRDA:302,0,1,-
BRDA:302,1,2,-
BRDA:302,1,3,-
BRDA:309,0,0,-
BRDA:309,0,1,-
BRDA:316,0,0,-
BRDA:316,0,1,-
BRDA:408,0,0,-
BRDA:408,0,1,-
BRDA:409,0,0,-
BRDA:409,0,1,-
BRDA:409,1,2,-
BRDA:409,1,3,-
BRDA:410,0,0,-
BRDA:410,0,1,-
BRDA:410,1,2,-
BRDA:410,1,3,-
BRDA:411,0,0,-
BRDA:411,0,1,-
BRDA:421,0,0,-
BRDA:421,0,1,-
BRDA:423,0,0,-
BRDA:423,0,1,-
BRDA:433,0,0,-
BRDA:433,0,1,-
BRDA:435,0,0,-
BRDA:435,0,1,-
BRDA:444,0,0,-
BRDA:444,0,1,-
BRDA:444,1,2,-
BRDA:444,1,3,-
BRDA:492,0,0,-
BRDA:492,0,1,-
BRDA:494,0,0,-
BRDA:494,0,1,-
BRDA:502,0,0,-
BRDA:502,0,1,-
BRDA:507,0,0,-
BRDA:507,0,1,-
BRDA:510,0,0,-
BRDA:510,0,1,-
BRDA:522,0,0,-
BRDA:522,0,1,-
BRDA:522,1,2,-
BRDA:522,1,3,-
BRDA:522,2,4,-
BRDA:522,2,5,-
BRDA:536,0,0,-
BRDA:536,0,1,-
BRDA:538,0,0,-
BRDA:538,0,1,-
BRDA:552,0,0,-
BRDA:552,0,1,-
BRDA:554,0,0,-
BRDA:554,0,1,-
BRDA:565,0,0,-
BRDA:565,0,1,-
BRDA:574,0,0,-
BRDA:574,0,1,-
BRDA:579,0,0,-
BRDA:579,0,1,-
BRDA:584,0,0,-
BRDA:584,0,1,-
BRDA:589,0,0,-
BRDA:589,0,1,-
BRDA:594,0,0,-
BRDA:594,0,1,-
BRDA:599,0,0,-
BRDA:599,0,1,-
BRDA:604,0,0,-
BRDA:604,0,1,-
BRDA:618,0,0,-
BRDA:618,0,1,-
BRDA:627,0,0,-
BRDA:627,0,1,-
BRDA:627,1,2,-
BRDA:627,1,3,-
BRDA:643,0,0,-
BRDA:643,0,1,-
BRDA:646,0,0,-
BRDA:646,0,1,-
BRDA:671,0,0,-
BRDA:671,0,1,-
BRDA:671,1,2,-
BRDA:671,1,3,-
BRDA:678,0,0,-
BRDA:678,0,1,-
BRDA:680,0,0,-
BRDA:680,0,1,-
BRDA:687,0,0,-
BRDA:687,0,1,-
BRDA:704,0,0,-
BRDA:704,0,1,-
BRDA:705,0,0,-
BRDA:705,0,1,-
BRDA:705,1,2,-
BRDA:705,1,3,-
BRDA:708,0,0,-
BRDA:708,0,1,-
BRDA:716,0,0,-
BRDA:716,0,1,-
BRDA:717,0,0,-
BRDA:717,0,1,-
BRDA:717,1,2,-
BRDA:717,1,3,-
BRDA:720,0,0,-
BRDA:720,0,1,-
BRDA:738,0,0,-
BRDA:738,0,1,-
BRDA:741,0,0,-
BRDA:741,0,1,-
BRDA:743,0,0,-
BRDA:743,0,1,-
BRDA:743,1,2,-
BRDA:743,1,3,-
BRDA:747,0,0,-
BRDA:747,0,1,-
BRDA:762,0,0,-
BRDA:762,0,1,-
BRDA:769,0,0,-
BRDA:769,0,1,-
BRDA:769,1,2,-
BRDA:769,1,3,-
BRDA:781,0,0,-
BRDA:781,0,1,-
BRDA:781,1,2,-
BRDA:781,1,3,-
BRDA:783,0,0,-
BRDA:783,0,1,-
BRDA:792,0,0,-
BRDA:792,0,1,-
BRDA:804,0,0,-
BRDA:804,0,1,-
BRDA:804,1,2,-
BRDA:804,1,3,-
BRDA:813,0,0,-
BRDA:813,0,1,-
BRDA:837,0,0,-
BRDA:837,0,1,-
BRDA:844,0,0,-
BRDA:844,0,1,-
BRDA:847,0,0,-
BRDA:847,0,1,-
BRDA:850,0,0,-
BRDA:850,0,1,-
BRDA:853,0,0,-
BRDA:853,0,1,-
BRDA:876,0,0,-
BRDA:876,0,1,-
BRDA:878,0,0,-
BRDA:878,0,1,-
BRDA:886,0,0,-
BRDA:886,0,1,-
BRDA:886,1,2,-
BRDA:886,1,3,-
BRDA:886,2,4,-
BRDA:886,2,5,-
BRDA:887,0,0,-
BRDA:887,0,1,-
BRDA:887,1,2,-
BRDA:887,1,3,-
BRDA:943,0,0,-
BRDA:943,0,1,-
BRDA:962,0,0,-
BRDA:962,0,1,-
BRDA:963,0,0,-
BRDA:963,0,1,-
BRDA:963,1,2,-
BRDA:963,1,3,-
BRDA:964,0,0,-
BRDA:964,0,1,-
BRDA:965,0,0,-
BRDA:965,0,1,-
BRDA:965,1,2,-
BRDA:965,1,3,-
BRDA:966,0,0,-
BRDA:966,0,1,-
BRDA:966,1,2,-
BRDA:966,1,3,-
BRDA:977,0,0,-
BRDA:977,0,1,-
BRDA:979,0,0,-
BRDA:979,0,1,-
BRDA:990,0,0,-
BRDA:990,0,1,-
BRDA:990,1,2,-
BRDA:990,1,3,-
BRDA:990,2,4,-
BRDA:990,2,5,-
BRDA:990,3,6,-
BRDA:990,3,7,-
BRDA:990,4,8,-
BRDA:990,4,9,-
BRDA:1029,0,0,-
BRDA:1029,0,1,-
BRDA:1031,0,0,-
BRDA:1031,0,1,-
BRDA:1045,0,0,-
BRDA:1045,0,1,-
BRDA:1047,0,0,-
BRDA:1047,0,1,-
BRDA:1064,0,0,-
BRDA:1064,0,1,-
BRDA:1066,0,0,-
BRDA:1066,0,1,-
BRDA:1076,0,0,-
BRDA:1076,0,1,-
BRDA:1078,0,0,-
BRDA:1078,0,1,-
BRDA:1087,0,0,-
BRDA:1087,0,1,-
BRDA:1087,1,2,-
BRDA:1087,1,3,-
BRDA:1087,2,4,-
BRDA:1087,2,5,-
BRDA:1099,0,0,-
BRDA:1099,0,1,-
BRDA:1101,0,0,-
BRDA:1101,0,1,-
BRDA:1114,0,0,-
BRDA:1114,0,1,-
BRDA:1116,0,0,-
BRDA:1116,0,1,-
BRDA:1131,0,0,-
BRDA:1131,0,1,-
BRDA:1145,0,0,-
BRDA:1145,0,1,-
BRDA:1157,0,0,-
BRDA:1157,0,1,-
BRDA:1157,1,2,-
BRDA:1157,1,3,-
BRDA:1161,0,0,-
BRDA:1161,0,1,-
BRDA:1162,0,0,-
BRDA:1162,0,1,-
BRDA:1163,0,0,-
BRDA:1163,0,1,-
BRDA:1164,0,0,-
BRDA:1164,0,1,-
BRDA:1170,0,0,-
BRDA:1170,0,1,-
BRDA:1251,0,0,-
BRDA:1251,0,1,-
BRDA:1255,0,0,-
BRDA:1255,0,1,-
BRDA:1257,0,0,-
BRDA:1257,0,1,-
BRDA:1271,0,0,-
BRDA:1271,0,1,-
BRDA:1286,0,0,-
BRDA:1286,0,1,-
BRDA:1286,1,2,-
BRDA:1286,1,3,-
BRDA:1286,2,4,-
BRDA:1286,2,5,-
BRDA:1286,3,6,-
BRDA:1286,3,7,-
BRDA:1286,4,8,-
BRDA:1286,4,9,-
BRDA:1287,0,0,-
BRDA:1287,0,1,-
BRDA:1287,1,2,-
BRDA:1287,1,3,-
BRDA:1287,2,4,-
BRDA:1287,2,5,-
BRDA:1288,0,0,-
BRDA:1288,0,1,-
BRDA:1288,1,2,-
BRDA:1288,1,3,-
BRDA:1289,0,0,-
BRDA:1289,0,1,-
BRDA:1289,1,2,-
BRDA:1289,1,3,-
BRDA:1289,2,4,-
BRDA:1289,2,5,-
BRDA:1316,0,0,-
BRDA:1316,0,1,-
BRDA:1321,0,0,-
BRDA:1321,0,1,-
BRDA:1321,1,2,-
BRDA:1321,1,3,-
BRDA:1325,0,0,-
BRDA:1325,0,1,-
BRDA:1327,0,0,-
BRDA:1327,0,1,-
BRDA:1329,0,0,-
BRDA:1329,0,1,-
BRDA:1331,0,0,-
BRDA:1331,0,1,-
BRDA:1333,0,0,-
BRDA:1333,0,1,-
BRDA:1335,0,0,-
BRDA:1335,0,1,-
BRDA:1337,0,0,-
BRDA:1337,0,1,-
BRDA:1345,0,0,-
BRDA:1345,0,1,-
BRDA:1345,1,2,-
BRDA:1345,1,3,-
BRDA:1346,0,0,-
BRDA:1346,0,1,-
BRDA:1350,0,0,-
BRDA:1350,0,1,-
BRDA:1350,1,2,-
BRDA:1350,1,3,-
BRDA:1351,0,0,-
BRDA:1351,0,1,-
BRDA:1418,0,0,-
BRDA:1418,0,1,-
BRDA:1435,0,0,-
BRDA:1435,0,1,-
BRDA:1445,0,0,-
BRDA:1445,0,1,-
BRDA:1451,0,0,-
BRDA:1451,0,1,-
BRDA:1451,1,2,-
BRDA:1451,1,3,-
BRDA:1453,0,0,-
BRDA:1453,0,1,-
BRDA:1453,1,2,-
BRDA:1453,1,3,-
BRDA:1455,0,0,-
BRDA:1455,0,1,-
BRDA:1456,0,0,-
BRDA:1456,0,1,-
BRDA:1463,0,0,-
BRDA:1463,0,1,-
BRDA:1465,0,0,-
BRDA:1465,0,1,-
BRDA:1475,0,0,-
BRDA:1475,0,1,-
BRDA:1499,0,0,-
BRDA:1499,0,1,-
BRDA:1502,0,0,-
BRDA:1502,0,1,-
BRDA:1506,0,0,-
BRDA:1506,0,1,-
BRDA:1508,0,0,-
BRDA:1508,0,1,-
BRDA:1511,0,0,-
BRDA:1511,0,1,-
BRDA:1514,0,0,-
BRDA:1514,0,1,-
BRDA:1517,0,0,-
BRDA:1517,0,1,-
BRDA:1520,0,0,-
BRDA:1520,0,1,-
BRDA:1523,0,0,-
BRDA:1523,0,1,-
BRDA:1526,0,0,-
BRDA:1526,0,1,-
BRDA:1529,0,0,-
BRDA:1529,0,1,-
BRDA:1530,0,0,-
BRDA:1530,0,1,-
BRDA:1533,0,0,-
BRDA:1533,0,1,-
BRDA:1536,0,0,-
BRDA:1536,0,1,-
BRDA:1536,1,2,-
BRDA:1536,1,3,-
BRDA:1546,0,0,-
BRDA:1546,0,1,-
BRDA:1559,0,0,-
BRDA:1559,0,1,-
BRDA:1559,1,2,-
BRDA:1559,1,3,-
BRDA:1559,2,4,-
BRDA:1559,2,5,-
BRDA:1561,0,0,-
BRDA:1561,0,1,-
BRDA:1563,0,0,-
BRDA:1563,0,1,-
BRDA:1578,0,0,-
BRDA:1578,0,1,-
BRDA:1603,0,0,-
BRDA:1603,0,1,-
BRDA:1606,0,0,-
BRDA:1606,0,1,-
BRDA:1610,0,0,-
BRDA:1610,0,1,-
BRDA:1612,0,0,-
BRDA:1612,0,1,-
BRDA:1615,0,0,-
BRDA:1615,0,1,-
BRDA:1618,0,0,-
BRDA:1618,0,1,-
BRDA:1621,0,0,-
BRDA:1621,0,1,-
BRDA:1624,0,0,-
BRDA:1624,0,1,-
BRDA:1627,0,0,-
BRDA:1627,0,1,-
BRDA:1630,0,0,-
BRDA:1630,0,1,-
BRDA:1633,0,0,-
BRDA:1633,0,1,-
BRDA:1634,0,0,-
BRDA:1634,0,1,-
BRDA:1637,0,0,-
BRDA:1637,0,1,-
BRDA:1640,0,0,-
BRDA:1640,0,1,-
BRDA:1640,1,2,-
BRDA:1640,1,3,-
BRDA:1650,0,0,-
BRDA:1650,0,1,-
BRDA:1676,0,0,-
BRDA:1676,0,1,-
BRDA:1687,0,0,-
BRDA:1687,0,1,-
BRDA:1692,0,0,-
BRDA:1692,0,1,-
BRDA:1696,0,0,-
BRDA:1696,0,1,-
BRDA:1698,0,0,-
BRDA:1698,0,1,-
BRDA:1701,0,0,-
BRDA:1701,0,1,-
BRDA:1704,0,0,-
BRDA:1704,0,1,-
BRDA:1707,0,0,-
BRDA:1707,0,1,-
BRDA:1710,0,0,-
BRDA:1710,0,1,-
BRDA:1713,0,0,-
BRDA:1713,0,1,-
BRDA:1716,0,0,-
BRDA:1716,0,1,-
BRDA:1719,0,0,-
BRDA:1719,0,1,-
BRDA:1720,0,0,-
BRDA:1720,0,1,-
BRDA:1723,0,0,-
BRDA:1723,0,1,-
BRDA:1726,0,0,-
BRDA:1726,0,1,-
BRDA:1726,1,2,-
BRDA:1726,1,3,-
BRDA:1736,0,0,-
BRDA:1736,0,1,-
BRDA:1747,0,0,-
BRDA:1747,0,1,-
BRDA:1775,0,0,-
BRDA:1775,0,1,-
BRDA:1795,0,0,-
BRDA:1795,0,1,-
BRDA:1822,0,0,-
BRDA:1822,0,1,-
BRDA:1830,0,0,-
BRDA:1830,0,1,-
BRDA:1834,0,0,-
BRDA:1834,0,1,-
BRDA:1834,1,2,-
BRDA:1834,1,3,-
BRDA:1835,0,0,-
BRDA:1835,0,1,-
BRDA:1839,0,0,-
BRDA:1839,0,1,-
BRDA:1845,0,0,-
BRDA:1845,0,1,-
BRDA:1849,0,0,-
BRDA:1849,0,1,-
BRDA:1851,0,0,-
BRDA:1851,0,1,-
BRDA:1853,0,0,-
BRDA:1853,0,1,-
BRDA:1864,0,0,-
BRDA:1864,0,1,-
BRDA:1866,0,0,-
BRDA:1866,0,1,-
BRDA:1869,0,0,-
BRDA:1869,0,1,-
BRDA:1872,0,0,-
BRDA:1872,0,1,-
BRDA:1875,0,0,-
BRDA:1875,0,1,-
BRDA:1878,0,0,-
BRDA:1878,0,1,-
BRDA:1881,0,0,-
BRDA:1881,0,1,-
BRDA:1884,0,0,-
BRDA:1884,0,1,-
BRDA:1887,0,0,-
BRDA:1887,0,1,-
BRDA:1888,0,0,-
BRDA:1888,0,1,-
BRDA:1891,0,0,-
BRDA:1891,0,1,-
BRDA:1894,0,0,-
BRDA:1894,0,1,-
BRDA:1894,1,2,-
BRDA:1894,1,3,-
BRDA:1908,0,0,-
BRDA:1908,0,1,-
BRDA:1920,0,0,-
BRDA:1920,0,1,-
BRDA:1923,0,0,-
BRDA:1923,0,1,-
BRDA:1926,0,0,-
BRDA:1926,0,1,-
BRDA:1931,0,0,-
BRDA:1931,0,1,-
BRDA:1953,0,0,-
BRDA:1953,0,1,-
BRDA:1963,0,0,-
